   1              	 .cpu cortex-m0
   2              	 .fpu softvfp
   3              	 .eabi_attribute 20,1
   4              	 .eabi_attribute 21,1
   5              	 .eabi_attribute 23,3
   6              	 .eabi_attribute 24,1
   7              	 .eabi_attribute 25,1
   8              	 .eabi_attribute 26,1
   9              	 .eabi_attribute 30,6
  10              	 .eabi_attribute 34,0
  11              	 .eabi_attribute 18,4
  12              	 .code 16
  13              	 .file "digital_io.c"
  14              	 .text
  15              	.Ltext0:
  16              	 .cfi_sections .debug_frame
  17              	 .section .text.DIGITAL_IO_GetAppVersion,"ax",%progbits
  18              	 .align 2
  19              	 .global DIGITAL_IO_GetAppVersion
  20              	 .code 16
  21              	 .thumb_func
  23              	DIGITAL_IO_GetAppVersion:
  24              	.LFB55:
  25              	 .file 1 "../Dave/Generated/DIGITAL_IO/digital_io.c"
   1:../Dave/Generated/DIGITAL_IO/digital_io.c **** /**
   2:../Dave/Generated/DIGITAL_IO/digital_io.c ****  * @file digital_io.c
   3:../Dave/Generated/DIGITAL_IO/digital_io.c ****  * @date 2016-07-08
   4:../Dave/Generated/DIGITAL_IO/digital_io.c ****  *
   5:../Dave/Generated/DIGITAL_IO/digital_io.c ****  * NOTE:
   6:../Dave/Generated/DIGITAL_IO/digital_io.c ****  * This file is generated by DAVE. Any manual modification done to this file will be lost when the 
   7:../Dave/Generated/DIGITAL_IO/digital_io.c ****  *
   8:../Dave/Generated/DIGITAL_IO/digital_io.c ****  * @cond
   9:../Dave/Generated/DIGITAL_IO/digital_io.c ****  **************************************************************************************************
  10:../Dave/Generated/DIGITAL_IO/digital_io.c ****  * DIGITAL_IO v4.0.16 - The DIGITAL_IO APP is used to configure a port pin as digital Input/Output.
  11:../Dave/Generated/DIGITAL_IO/digital_io.c ****  *
  12:../Dave/Generated/DIGITAL_IO/digital_io.c ****  * Copyright (c) 2015-2016, Infineon Technologies AG
  13:../Dave/Generated/DIGITAL_IO/digital_io.c ****  * All rights reserved.
  14:../Dave/Generated/DIGITAL_IO/digital_io.c ****  *
  15:../Dave/Generated/DIGITAL_IO/digital_io.c ****  * Redistribution and use in source and binary forms, with or without modification,are permitted pr
  16:../Dave/Generated/DIGITAL_IO/digital_io.c ****  * following conditions are met:
  17:../Dave/Generated/DIGITAL_IO/digital_io.c ****  *
  18:../Dave/Generated/DIGITAL_IO/digital_io.c ****  *   Redistributions of source code must retain the above copyright notice, this list of conditions
  19:../Dave/Generated/DIGITAL_IO/digital_io.c ****  *   disclaimer.
  20:../Dave/Generated/DIGITAL_IO/digital_io.c ****  *
  21:../Dave/Generated/DIGITAL_IO/digital_io.c ****  *   Redistributions in binary form must reproduce the above copyright notice, this list of conditi
  22:../Dave/Generated/DIGITAL_IO/digital_io.c ****  *   following disclaimer in the documentation and/or other materials provided with the distributio
  23:../Dave/Generated/DIGITAL_IO/digital_io.c ****  *
  24:../Dave/Generated/DIGITAL_IO/digital_io.c ****  *   Neither the name of the copyright holders nor the names of its contributors may be used to end
  25:../Dave/Generated/DIGITAL_IO/digital_io.c ****  *   products derived from this software without specific prior written permission.
  26:../Dave/Generated/DIGITAL_IO/digital_io.c ****  *
  27:../Dave/Generated/DIGITAL_IO/digital_io.c ****  * THIS SOFTWARE IS PROVIDED BY THE COPYRIGHT HOLDERS AND CONTRIBUTORS "AS IS" AND ANY EXPRESS OR I
  28:../Dave/Generated/DIGITAL_IO/digital_io.c ****  * INCLUDING, BUT NOT LIMITED TO, THE IMPLIED WARRANTIES OF MERCHANTABILITY AND FITNESS FOR A PARTI
  29:../Dave/Generated/DIGITAL_IO/digital_io.c ****  * DISCLAIMED. IN NO EVENT SHALL THE COPYRIGHT HOLDER OR CONTRIBUTORS BE LIABLE  FOR ANY DIRECT, IN
  30:../Dave/Generated/DIGITAL_IO/digital_io.c ****  * SPECIAL, EXEMPLARY, OR CONSEQUENTIAL DAMAGES (INCLUDING, BUT NOT LIMITED TO, PROCUREMENT OF SUBS
  31:../Dave/Generated/DIGITAL_IO/digital_io.c ****  * SERVICES; LOSS OF USE, DATA, OR PROFITS; OR BUSINESS INTERRUPTION) HOWEVER CAUSED AND ON ANY THE
  32:../Dave/Generated/DIGITAL_IO/digital_io.c ****  * WHETHER IN CONTRACT, STRICT LIABILITY,OR TORT (INCLUDING NEGLIGENCE OR OTHERWISE) ARISING IN ANY
  33:../Dave/Generated/DIGITAL_IO/digital_io.c ****  * USE OF THIS SOFTWARE, EVEN IF ADVISED OF THE POSSIBILITY OF SUCH DAMAGE.
  34:../Dave/Generated/DIGITAL_IO/digital_io.c ****  *
  35:../Dave/Generated/DIGITAL_IO/digital_io.c ****  * To improve the quality of the software, users are encouraged to share modifications, enhancement
  36:../Dave/Generated/DIGITAL_IO/digital_io.c ****  * with Infineon Technologies AG (dave@infineon.com).
  37:../Dave/Generated/DIGITAL_IO/digital_io.c ****  **************************************************************************************************
  38:../Dave/Generated/DIGITAL_IO/digital_io.c ****  *
  39:../Dave/Generated/DIGITAL_IO/digital_io.c ****  * Change History
  40:../Dave/Generated/DIGITAL_IO/digital_io.c ****  * --------------
  41:../Dave/Generated/DIGITAL_IO/digital_io.c ****  *
  42:../Dave/Generated/DIGITAL_IO/digital_io.c ****  * 2015-02-16
  43:../Dave/Generated/DIGITAL_IO/digital_io.c ****  *     - Initial version<br>
  44:../Dave/Generated/DIGITAL_IO/digital_io.c ****  * 2015-12-22
  45:../Dave/Generated/DIGITAL_IO/digital_io.c ****  *     - Added hardware controlled IO feature.
  46:../Dave/Generated/DIGITAL_IO/digital_io.c ****  * 2016-07-08:
  47:../Dave/Generated/DIGITAL_IO/digital_io.c ****  *     - Fixed incorrect case for an included header.<br>
  48:../Dave/Generated/DIGITAL_IO/digital_io.c ****  *
  49:../Dave/Generated/DIGITAL_IO/digital_io.c ****  * @endcond
  50:../Dave/Generated/DIGITAL_IO/digital_io.c ****  *
  51:../Dave/Generated/DIGITAL_IO/digital_io.c ****  */
  52:../Dave/Generated/DIGITAL_IO/digital_io.c **** 
  53:../Dave/Generated/DIGITAL_IO/digital_io.c **** /**************************************************************************************************
  54:../Dave/Generated/DIGITAL_IO/digital_io.c ****  * HEADER FILES
  55:../Dave/Generated/DIGITAL_IO/digital_io.c ****  **************************************************************************************************
  56:../Dave/Generated/DIGITAL_IO/digital_io.c **** #include "digital_io.h"
  57:../Dave/Generated/DIGITAL_IO/digital_io.c **** 
  58:../Dave/Generated/DIGITAL_IO/digital_io.c **** /**************************************************************************************************
  59:../Dave/Generated/DIGITAL_IO/digital_io.c ****  * MACROS
  60:../Dave/Generated/DIGITAL_IO/digital_io.c ****  **************************************************************************************************
  61:../Dave/Generated/DIGITAL_IO/digital_io.c **** 
  62:../Dave/Generated/DIGITAL_IO/digital_io.c **** /**************************************************************************************************
  63:../Dave/Generated/DIGITAL_IO/digital_io.c ****  * LOCAL DATA
  64:../Dave/Generated/DIGITAL_IO/digital_io.c ****  **************************************************************************************************
  65:../Dave/Generated/DIGITAL_IO/digital_io.c **** 
  66:../Dave/Generated/DIGITAL_IO/digital_io.c **** /**************************************************************************************************
  67:../Dave/Generated/DIGITAL_IO/digital_io.c ****  * LOCAL ROUTINES
  68:../Dave/Generated/DIGITAL_IO/digital_io.c ****  **************************************************************************************************
  69:../Dave/Generated/DIGITAL_IO/digital_io.c **** 
  70:../Dave/Generated/DIGITAL_IO/digital_io.c ****  /*************************************************************************************************
  71:../Dave/Generated/DIGITAL_IO/digital_io.c ****  * API IMPLEMENTATION
  72:../Dave/Generated/DIGITAL_IO/digital_io.c ****  **************************************************************************************************
  73:../Dave/Generated/DIGITAL_IO/digital_io.c **** 
  74:../Dave/Generated/DIGITAL_IO/digital_io.c **** /**
  75:../Dave/Generated/DIGITAL_IO/digital_io.c **** * @brief Get DIGITAL_IO APP version
  76:../Dave/Generated/DIGITAL_IO/digital_io.c **** * @return DAVE_APP_VERSION_t APP version information (major, minor and patch number)
  77:../Dave/Generated/DIGITAL_IO/digital_io.c **** */
  78:../Dave/Generated/DIGITAL_IO/digital_io.c **** 
  79:../Dave/Generated/DIGITAL_IO/digital_io.c **** DAVE_APP_VERSION_t DIGITAL_IO_GetAppVersion(void)
  80:../Dave/Generated/DIGITAL_IO/digital_io.c **** {
  26              	 .loc 1 80 0
  27              	 .cfi_startproc
  28 0000 80B5     	 push {r7,lr}
  29              	.LCFI0:
  30              	 .cfi_def_cfa_offset 8
  31              	 .cfi_offset 7,-8
  32              	 .cfi_offset 14,-4
  33 0002 82B0     	 sub sp,sp,#8
  34              	.LCFI1:
  35              	 .cfi_def_cfa_offset 16
  36 0004 00AF     	 add r7,sp,#0
  37              	.LCFI2:
  38              	 .cfi_def_cfa_register 7
  81:../Dave/Generated/DIGITAL_IO/digital_io.c ****   DAVE_APP_VERSION_t version;
  82:../Dave/Generated/DIGITAL_IO/digital_io.c **** 
  83:../Dave/Generated/DIGITAL_IO/digital_io.c ****   version.major = (uint8_t)DIGITAL_IO_MAJOR_VERSION;
  39              	 .loc 1 83 0
  40 0006 3B1C     	 mov r3,r7
  41 0008 0422     	 mov r2,#4
  42 000a 1A70     	 strb r2,[r3]
  84:../Dave/Generated/DIGITAL_IO/digital_io.c ****   version.minor = (uint8_t)DIGITAL_IO_MINOR_VERSION;
  43              	 .loc 1 84 0
  44 000c 3B1C     	 mov r3,r7
  45 000e 0022     	 mov r2,#0
  46 0010 5A70     	 strb r2,[r3,#1]
  85:../Dave/Generated/DIGITAL_IO/digital_io.c ****   version.patch = (uint8_t)DIGITAL_IO_PATCH_VERSION;
  47              	 .loc 1 85 0
  48 0012 3B1C     	 mov r3,r7
  49 0014 1022     	 mov r2,#16
  50 0016 9A70     	 strb r2,[r3,#2]
  86:../Dave/Generated/DIGITAL_IO/digital_io.c **** 
  87:../Dave/Generated/DIGITAL_IO/digital_io.c ****   return (version);
  51              	 .loc 1 87 0
  52 0018 3B1D     	 add r3,r7,#4
  53 001a 3A1C     	 mov r2,r7
  54 001c 1188     	 ldrh r1,[r2]
  55 001e 1980     	 strh r1,[r3]
  56 0020 9278     	 ldrb r2,[r2,#2]
  57 0022 9A70     	 strb r2,[r3,#2]
  58 0024 3A1D     	 add r2,r7,#4
  59 0026 0023     	 mov r3,#0
  60 0028 1178     	 ldrb r1,[r2]
  61 002a FF20     	 mov r0,#255
  62 002c 0140     	 and r1,r0
  63 002e FF20     	 mov r0,#255
  64 0030 8343     	 bic r3,r0
  65 0032 0B43     	 orr r3,r1
  66 0034 5178     	 ldrb r1,[r2,#1]
  67 0036 FF20     	 mov r0,#255
  68 0038 0140     	 and r1,r0
  69 003a 0902     	 lsl r1,r1,#8
  70 003c 0648     	 ldr r0,.L3
  71 003e 0340     	 and r3,r0
  72 0040 0B43     	 orr r3,r1
  73 0042 9278     	 ldrb r2,[r2,#2]
  74 0044 FF21     	 mov r1,#255
  75 0046 0A40     	 and r2,r1
  76 0048 1204     	 lsl r2,r2,#16
  77 004a 0449     	 ldr r1,.L3+4
  78 004c 0B40     	 and r3,r1
  79 004e 1343     	 orr r3,r2
  88:../Dave/Generated/DIGITAL_IO/digital_io.c **** }
  80              	 .loc 1 88 0
  81 0050 181C     	 mov r0,r3
  82 0052 BD46     	 mov sp,r7
  83 0054 02B0     	 add sp,sp,#8
  84              	 
  85 0056 80BD     	 pop {r7,pc}
  86              	.L4:
  87              	 .align 2
  88              	.L3:
  89 0058 FF00FFFF 	 .word -65281
  90 005c FFFF00FF 	 .word -16711681
  91              	 .cfi_endproc
  92              	.LFE55:
  94              	 .section .text.DIGITAL_IO_Init,"ax",%progbits
  95              	 .align 2
  96              	 .global DIGITAL_IO_Init
  97              	 .code 16
  98              	 .thumb_func
 100              	DIGITAL_IO_Init:
 101              	.LFB56:
  89:../Dave/Generated/DIGITAL_IO/digital_io.c **** 
  90:../Dave/Generated/DIGITAL_IO/digital_io.c **** 
  91:../Dave/Generated/DIGITAL_IO/digital_io.c **** /**
  92:../Dave/Generated/DIGITAL_IO/digital_io.c **** * @brief Function to initialize the port pin as per UI settings.
  93:../Dave/Generated/DIGITAL_IO/digital_io.c **** * @param handler Pointer pointing to APP data structure.
  94:../Dave/Generated/DIGITAL_IO/digital_io.c **** * @return DIGITAL_IO_STATUS_t DIGITAL_IO APP status.
  95:../Dave/Generated/DIGITAL_IO/digital_io.c **** */
  96:../Dave/Generated/DIGITAL_IO/digital_io.c **** 
  97:../Dave/Generated/DIGITAL_IO/digital_io.c **** DIGITAL_IO_STATUS_t DIGITAL_IO_Init(const DIGITAL_IO_t *const handler)
  98:../Dave/Generated/DIGITAL_IO/digital_io.c **** {
 102              	 .loc 1 98 0
 103              	 .cfi_startproc
 104 0000 80B5     	 push {r7,lr}
 105              	.LCFI3:
 106              	 .cfi_def_cfa_offset 8
 107              	 .cfi_offset 7,-8
 108              	 .cfi_offset 14,-4
 109 0002 82B0     	 sub sp,sp,#8
 110              	.LCFI4:
 111              	 .cfi_def_cfa_offset 16
 112 0004 00AF     	 add r7,sp,#0
 113              	.LCFI5:
 114              	 .cfi_def_cfa_register 7
 115 0006 7860     	 str r0,[r7,#4]
  99:../Dave/Generated/DIGITAL_IO/digital_io.c ****   XMC_ASSERT("DIGITAL_IO_Init: handler null pointer", handler != NULL);
 100:../Dave/Generated/DIGITAL_IO/digital_io.c **** 
 101:../Dave/Generated/DIGITAL_IO/digital_io.c ****   /* Initializes input / output characteristics */
 102:../Dave/Generated/DIGITAL_IO/digital_io.c ****   XMC_GPIO_Init(handler->gpio_port, handler->gpio_pin, &handler->gpio_config);
 116              	 .loc 1 102 0
 117 0008 7B68     	 ldr r3,[r7,#4]
 118 000a 1968     	 ldr r1,[r3]
 119 000c 7B68     	 ldr r3,[r7,#4]
 120 000e 1A7B     	 ldrb r2,[r3,#12]
 121 0010 7B68     	 ldr r3,[r7,#4]
 122 0012 0433     	 add r3,r3,#4
 123 0014 081C     	 mov r0,r1
 124 0016 111C     	 mov r1,r2
 125 0018 1A1C     	 mov r2,r3
 126 001a FFF7FEFF 	 bl XMC_GPIO_Init
 103:../Dave/Generated/DIGITAL_IO/digital_io.c **** 
 104:../Dave/Generated/DIGITAL_IO/digital_io.c ****   /*Configure hardware port control*/
 105:../Dave/Generated/DIGITAL_IO/digital_io.c ****   XMC_GPIO_SetHardwareControl(handler->gpio_port, handler->gpio_pin, handler->hwctrl);
 127              	 .loc 1 105 0
 128 001e 7B68     	 ldr r3,[r7,#4]
 129 0020 1968     	 ldr r1,[r3]
 130 0022 7B68     	 ldr r3,[r7,#4]
 131 0024 1A7B     	 ldrb r2,[r3,#12]
 132 0026 7B68     	 ldr r3,[r7,#4]
 133 0028 5B7B     	 ldrb r3,[r3,#13]
 134 002a 081C     	 mov r0,r1
 135 002c 111C     	 mov r1,r2
 136 002e 1A1C     	 mov r2,r3
 137 0030 FFF7FEFF 	 bl XMC_GPIO_SetHardwareControl
 106:../Dave/Generated/DIGITAL_IO/digital_io.c **** 
 107:../Dave/Generated/DIGITAL_IO/digital_io.c ****   return (DIGITAL_IO_STATUS_OK);
 138              	 .loc 1 107 0
 139 0034 0023     	 mov r3,#0
 108:../Dave/Generated/DIGITAL_IO/digital_io.c **** }
 140              	 .loc 1 108 0
 141 0036 181C     	 mov r0,r3
 142 0038 BD46     	 mov sp,r7
 143 003a 02B0     	 add sp,sp,#8
 144              	 
 145 003c 80BD     	 pop {r7,pc}
 146              	 .cfi_endproc
 147              	.LFE56:
 149 003e C046     	 .text
 150              	.Letext0:
 151              	 .file 2 "c:\\dave\\dave-ide-4.4.2-64bit\\eclipse\\arm-gcc-49\\arm-none-eabi\\include\\machine\\_default_types.h"
 152              	 .file 3 "c:\\dave\\dave-ide-4.4.2-64bit\\eclipse\\arm-gcc-49\\arm-none-eabi\\include\\stdint.h"
 153              	 .file 4 "C:/Workspaces/DAVE-4.4.2-64Bit/Blinky_v2/Libraries/XMCLib/inc/xmc_gpio.h"
 154              	 .file 5 "C:/Workspaces/DAVE-4.4.2-64Bit/Blinky_v2/Libraries/XMCLib/inc/xmc1_gpio.h"
 155              	 .file 6 "C:/Workspaces/DAVE-4.4.2-64Bit/Blinky_v2/Dave/Generated/DAVE_Common.h"
 156              	 .file 7 "../Dave/Generated/DIGITAL_IO/digital_io.h"