   1              	 .cpu cortex-m0
   2              	 .fpu softvfp
   3              	 .eabi_attribute 20,1
   4              	 .eabi_attribute 21,1
   5              	 .eabi_attribute 23,3
   6              	 .eabi_attribute 24,1
   7              	 .eabi_attribute 25,1
   8              	 .eabi_attribute 26,1
   9              	 .eabi_attribute 30,6
  10              	 .eabi_attribute 34,0
  11              	 .eabi_attribute 18,4
  12              	 .code 16
  13              	 .file "xmc1_gpio.c"
  14              	 .text
  15              	.Ltext0:
  16              	 .cfi_sections .debug_frame
  17              	 .section .text.XMC_GPIO_Init,"ax",%progbits
  18              	 .align 2
  19              	 .global XMC_GPIO_Init
  20              	 .code 16
  21              	 .thumb_func
  23              	XMC_GPIO_Init:
  24              	.LFB51:
  25              	 .file 1 "../Libraries/XMCLib/src/xmc1_gpio.c"
   1:../Libraries/XMCLib/src/xmc1_gpio.c **** /**
   2:../Libraries/XMCLib/src/xmc1_gpio.c ****  * @file xmc1_gpio.c
   3:../Libraries/XMCLib/src/xmc1_gpio.c ****  * @date 2017-09-15
   4:../Libraries/XMCLib/src/xmc1_gpio.c ****  *
   5:../Libraries/XMCLib/src/xmc1_gpio.c ****  * @cond
   6:../Libraries/XMCLib/src/xmc1_gpio.c ****  **************************************************************************************************
   7:../Libraries/XMCLib/src/xmc1_gpio.c ****  * XMClib v2.1.18 - XMC Peripheral Driver Library 
   8:../Libraries/XMCLib/src/xmc1_gpio.c ****  *
   9:../Libraries/XMCLib/src/xmc1_gpio.c ****  * Copyright (c) 2015-2018, Infineon Technologies AG
  10:../Libraries/XMCLib/src/xmc1_gpio.c ****  * All rights reserved.                        
  11:../Libraries/XMCLib/src/xmc1_gpio.c ****  *                                             
  12:../Libraries/XMCLib/src/xmc1_gpio.c ****  * Redistribution and use in source and binary forms, with or without modification,are permitted pr
  13:../Libraries/XMCLib/src/xmc1_gpio.c ****  * following conditions are met:   
  14:../Libraries/XMCLib/src/xmc1_gpio.c ****  *                                                                              
  15:../Libraries/XMCLib/src/xmc1_gpio.c ****  * Redistributions of source code must retain the above copyright notice, this list of conditions a
  16:../Libraries/XMCLib/src/xmc1_gpio.c ****  * disclaimer.                        
  17:../Libraries/XMCLib/src/xmc1_gpio.c ****  * 
  18:../Libraries/XMCLib/src/xmc1_gpio.c ****  * Redistributions in binary form must reproduce the above copyright notice, this list of condition
  19:../Libraries/XMCLib/src/xmc1_gpio.c ****  * disclaimer in the documentation and/or other materials provided with the distribution.          
  20:../Libraries/XMCLib/src/xmc1_gpio.c ****  * 
  21:../Libraries/XMCLib/src/xmc1_gpio.c ****  * Neither the name of the copyright holders nor the names of its contributors may be used to endor
  22:../Libraries/XMCLib/src/xmc1_gpio.c ****  * products derived from this software without specific prior written permission.                  
  23:../Libraries/XMCLib/src/xmc1_gpio.c ****  *                                                                              
  24:../Libraries/XMCLib/src/xmc1_gpio.c ****  * THIS SOFTWARE IS PROVIDED BY THE COPYRIGHT HOLDERS AND CONTRIBUTORS "AS IS" AND ANY EXPRESS OR I
  25:../Libraries/XMCLib/src/xmc1_gpio.c ****  * INCLUDING, BUT NOT LIMITED TO, THE IMPLIED WARRANTIES OF MERCHANTABILITY AND FITNESS FOR A PARTI
  26:../Libraries/XMCLib/src/xmc1_gpio.c ****  * DISCLAIMED. IN NO EVENT SHALL THE COPYRIGHT HOLDER OR CONTRIBUTORS BE LIABLE  FOR ANY DIRECT, IN
  27:../Libraries/XMCLib/src/xmc1_gpio.c ****  * SPECIAL, EXEMPLARY, OR CONSEQUENTIAL DAMAGES (INCLUDING, BUT NOT LIMITED TO, PROCUREMENT OF SUBS
  28:../Libraries/XMCLib/src/xmc1_gpio.c ****  * SERVICES; LOSS OF USE, DATA, OR PROFITS; OR BUSINESS INTERRUPTION) HOWEVER CAUSED AND ON ANY THE
  29:../Libraries/XMCLib/src/xmc1_gpio.c ****  * WHETHER IN CONTRACT, STRICT LIABILITY,OR TORT (INCLUDING NEGLIGENCE OR OTHERWISE) ARISING IN ANY
  30:../Libraries/XMCLib/src/xmc1_gpio.c ****  * OF THIS SOFTWARE, EVEN IF ADVISED OF THE POSSIBILITY OF SUCH DAMAGE.                            
  31:../Libraries/XMCLib/src/xmc1_gpio.c ****  *                                                                              
  32:../Libraries/XMCLib/src/xmc1_gpio.c ****  * To improve the quality of the software, users are encouraged to share modifications, enhancement
  33:../Libraries/XMCLib/src/xmc1_gpio.c ****  * Infineon Technologies AG dave@infineon.com).                                                    
  34:../Libraries/XMCLib/src/xmc1_gpio.c ****  **************************************************************************************************
  35:../Libraries/XMCLib/src/xmc1_gpio.c ****  *
  36:../Libraries/XMCLib/src/xmc1_gpio.c ****  * Change History
  37:../Libraries/XMCLib/src/xmc1_gpio.c ****  * --------------
  38:../Libraries/XMCLib/src/xmc1_gpio.c ****  *
  39:../Libraries/XMCLib/src/xmc1_gpio.c ****  * 2015-02-20:
  40:../Libraries/XMCLib/src/xmc1_gpio.c ****  *     - Initial draft <br>
  41:../Libraries/XMCLib/src/xmc1_gpio.c ****  *      
  42:../Libraries/XMCLib/src/xmc1_gpio.c ****  * 2015-06-20:
  43:../Libraries/XMCLib/src/xmc1_gpio.c ****  *     - Removed version macros and declaration of GetDriverVersion API
  44:../Libraries/XMCLib/src/xmc1_gpio.c ****  *
  45:../Libraries/XMCLib/src/xmc1_gpio.c ****  * 2017-09-15:
  46:../Libraries/XMCLib/src/xmc1_gpio.c ****  *     - Fix side effects on output level when programming a pin as input after the same pin in ano
  47:../Libraries/XMCLib/src/xmc1_gpio.c ****  * 
  48:../Libraries/XMCLib/src/xmc1_gpio.c ****  * @endcond
  49:../Libraries/XMCLib/src/xmc1_gpio.c ****  *
  50:../Libraries/XMCLib/src/xmc1_gpio.c ****  */
  51:../Libraries/XMCLib/src/xmc1_gpio.c **** 
  52:../Libraries/XMCLib/src/xmc1_gpio.c **** #include "xmc_gpio.h"
  53:../Libraries/XMCLib/src/xmc1_gpio.c **** 
  54:../Libraries/XMCLib/src/xmc1_gpio.c **** #if UC_FAMILY == XMC1
  55:../Libraries/XMCLib/src/xmc1_gpio.c **** 
  56:../Libraries/XMCLib/src/xmc1_gpio.c **** /*******************************************************************************
  57:../Libraries/XMCLib/src/xmc1_gpio.c ****  * MACROS
  58:../Libraries/XMCLib/src/xmc1_gpio.c ****  *******************************************************************************/
  59:../Libraries/XMCLib/src/xmc1_gpio.c **** 
  60:../Libraries/XMCLib/src/xmc1_gpio.c **** #define PORT_PHCR_Msk             PORT0_PHCR0_PH0_Msk
  61:../Libraries/XMCLib/src/xmc1_gpio.c **** #define PORT_PHCR_Size            PORT0_PHCR0_PH0_Msk
  62:../Libraries/XMCLib/src/xmc1_gpio.c **** #define PORT_HWSEL_Msk            PORT0_HWSEL_HW0_Msk
  63:../Libraries/XMCLib/src/xmc1_gpio.c **** #define XMC_GPIO_MODE_OE          XMC_GPIO_MODE_OUTPUT_PUSH_PULL
  64:../Libraries/XMCLib/src/xmc1_gpio.c **** 
  65:../Libraries/XMCLib/src/xmc1_gpio.c **** /*******************************************************************************
  66:../Libraries/XMCLib/src/xmc1_gpio.c ****  * API IMPLEMENTATION
  67:../Libraries/XMCLib/src/xmc1_gpio.c ****  *******************************************************************************/
  68:../Libraries/XMCLib/src/xmc1_gpio.c **** 
  69:../Libraries/XMCLib/src/xmc1_gpio.c **** void XMC_GPIO_Init(XMC_GPIO_PORT_t *const port, const uint8_t pin, const XMC_GPIO_CONFIG_t *const c
  70:../Libraries/XMCLib/src/xmc1_gpio.c **** {
  26              	 .loc 1 70 0
  27              	 .cfi_startproc
  28 0000 90B5     	 push {r4,r7,lr}
  29              	.LCFI0:
  30              	 .cfi_def_cfa_offset 12
  31              	 .cfi_offset 4,-12
  32              	 .cfi_offset 7,-8
  33              	 .cfi_offset 14,-4
  34 0002 85B0     	 sub sp,sp,#20
  35              	.LCFI1:
  36              	 .cfi_def_cfa_offset 32
  37 0004 00AF     	 add r7,sp,#0
  38              	.LCFI2:
  39              	 .cfi_def_cfa_register 7
  40 0006 F860     	 str r0,[r7,#12]
  41 0008 7A60     	 str r2,[r7,#4]
  42 000a 0B23     	 mov r3,#11
  43 000c FB18     	 add r3,r7,r3
  44 000e 0A1C     	 add r2,r1,#0
  45 0010 1A70     	 strb r2,[r3]
  71:../Libraries/XMCLib/src/xmc1_gpio.c ****   XMC_ASSERT("XMC_GPIO_Init: Invalid port", XMC_GPIO_CHECK_PORT(port));
  72:../Libraries/XMCLib/src/xmc1_gpio.c ****   XMC_ASSERT("XMC_GPIO_Init: Invalid mode", XMC_GPIO_IsModeValid(config->mode));
  73:../Libraries/XMCLib/src/xmc1_gpio.c ****   XMC_ASSERT("XMC_GPIO_Init: Invalid input hysteresis", XMC_GPIO_CHECK_INPUT_HYSTERESIS(config->inp
  74:../Libraries/XMCLib/src/xmc1_gpio.c ****   
  75:../Libraries/XMCLib/src/xmc1_gpio.c ****   /* Switch to input */
  76:../Libraries/XMCLib/src/xmc1_gpio.c ****   port->IOCR[pin >> 2U] &= ~(uint32_t)((uint32_t)PORT_IOCR_PC_Msk << (PORT_IOCR_PC_Size * (pin & 0x
  46              	 .loc 1 76 0
  47 0012 0B23     	 mov r3,#11
  48 0014 FB18     	 add r3,r7,r3
  49 0016 1B78     	 ldrb r3,[r3]
  50 0018 9B08     	 lsr r3,r3,#2
  51 001a DBB2     	 uxtb r3,r3
  52 001c 181C     	 mov r0,r3
  53 001e 0B23     	 mov r3,#11
  54 0020 FB18     	 add r3,r7,r3
  55 0022 1B78     	 ldrb r3,[r3]
  56 0024 9B08     	 lsr r3,r3,#2
  57 0026 DBB2     	 uxtb r3,r3
  58 0028 1A1C     	 mov r2,r3
  59 002a FB68     	 ldr r3,[r7,#12]
  60 002c 0432     	 add r2,r2,#4
  61 002e 9200     	 lsl r2,r2,#2
  62 0030 D358     	 ldr r3,[r2,r3]
  63 0032 0B22     	 mov r2,#11
  64 0034 BA18     	 add r2,r7,r2
  65 0036 1278     	 ldrb r2,[r2]
  66 0038 0321     	 mov r1,#3
  67 003a 0A40     	 and r2,r1
  68 003c D200     	 lsl r2,r2,#3
  69 003e 111C     	 mov r1,r2
  70 0040 F822     	 mov r2,#248
  71 0042 8A40     	 lsl r2,r2,r1
  72 0044 D243     	 mvn r2,r2
  73 0046 1A40     	 and r2,r3
  74 0048 111C     	 mov r1,r2
  75 004a FB68     	 ldr r3,[r7,#12]
  76 004c 021D     	 add r2,r0,#4
  77 004e 9200     	 lsl r2,r2,#2
  78 0050 D150     	 str r1,[r2,r3]
  77:../Libraries/XMCLib/src/xmc1_gpio.c **** 
  78:../Libraries/XMCLib/src/xmc1_gpio.c ****   /* HW port control is disabled */
  79:../Libraries/XMCLib/src/xmc1_gpio.c ****   port->HWSEL &= ~(uint32_t)((uint32_t)PORT_HWSEL_Msk << ((uint32_t)pin << 1U));
  79              	 .loc 1 79 0
  80 0052 FB68     	 ldr r3,[r7,#12]
  81 0054 5B6F     	 ldr r3,[r3,#116]
  82 0056 0B22     	 mov r2,#11
  83 0058 BA18     	 add r2,r7,r2
  84 005a 1278     	 ldrb r2,[r2]
  85 005c 5200     	 lsl r2,r2,#1
  86 005e 111C     	 mov r1,r2
  87 0060 0322     	 mov r2,#3
  88 0062 8A40     	 lsl r2,r2,r1
  89 0064 D243     	 mvn r2,r2
  90 0066 1A40     	 and r2,r3
  91 0068 FB68     	 ldr r3,[r7,#12]
  92 006a 5A67     	 str r2,[r3,#116]
  80:../Libraries/XMCLib/src/xmc1_gpio.c **** 
  81:../Libraries/XMCLib/src/xmc1_gpio.c ****   /* Set input hysteresis */
  82:../Libraries/XMCLib/src/xmc1_gpio.c ****   port->PHCR[(uint32_t)pin >> 3U] &= ~(uint32_t)((uint32_t)PORT_PHCR_Msk << ((uint32_t)PORT_PHCR_Si
  93              	 .loc 1 82 0
  94 006c 0B23     	 mov r3,#11
  95 006e FB18     	 add r3,r7,r3
  96 0070 1B78     	 ldrb r3,[r3]
  97 0072 DB08     	 lsr r3,r3,#3
  98 0074 DBB2     	 uxtb r3,r3
  99 0076 181C     	 mov r0,r3
 100 0078 0B23     	 mov r3,#11
 101 007a FB18     	 add r3,r7,r3
 102 007c 1B78     	 ldrb r3,[r3]
 103 007e DB08     	 lsr r3,r3,#3
 104 0080 DBB2     	 uxtb r3,r3
 105 0082 1A1C     	 mov r2,r3
 106 0084 FB68     	 ldr r3,[r7,#12]
 107 0086 1032     	 add r2,r2,#16
 108 0088 9200     	 lsl r2,r2,#2
 109 008a D358     	 ldr r3,[r2,r3]
 110 008c 0B22     	 mov r2,#11
 111 008e BA18     	 add r2,r7,r2
 112 0090 1278     	 ldrb r2,[r2]
 113 0092 0721     	 mov r1,#7
 114 0094 0A40     	 and r2,r1
 115 0096 9200     	 lsl r2,r2,#2
 116 0098 111C     	 mov r1,r2
 117 009a 0422     	 mov r2,#4
 118 009c 8A40     	 lsl r2,r2,r1
 119 009e D243     	 mvn r2,r2
 120 00a0 1A40     	 and r2,r3
 121 00a2 111C     	 mov r1,r2
 122 00a4 FB68     	 ldr r3,[r7,#12]
 123 00a6 021C     	 mov r2,r0
 124 00a8 1032     	 add r2,r2,#16
 125 00aa 9200     	 lsl r2,r2,#2
 126 00ac D150     	 str r1,[r2,r3]
  83:../Libraries/XMCLib/src/xmc1_gpio.c ****   port->PHCR[(uint32_t)pin >> 3U] |= (uint32_t)config->input_hysteresis << ((uint32_t)PORT_PHCR_Siz
 127              	 .loc 1 83 0
 128 00ae 0B23     	 mov r3,#11
 129 00b0 FB18     	 add r3,r7,r3
 130 00b2 1B78     	 ldrb r3,[r3]
 131 00b4 DB08     	 lsr r3,r3,#3
 132 00b6 DBB2     	 uxtb r3,r3
 133 00b8 181C     	 mov r0,r3
 134 00ba 0B23     	 mov r3,#11
 135 00bc FB18     	 add r3,r7,r3
 136 00be 1B78     	 ldrb r3,[r3]
 137 00c0 DB08     	 lsr r3,r3,#3
 138 00c2 DBB2     	 uxtb r3,r3
 139 00c4 1A1C     	 mov r2,r3
 140 00c6 FB68     	 ldr r3,[r7,#12]
 141 00c8 1032     	 add r2,r2,#16
 142 00ca 9200     	 lsl r2,r2,#2
 143 00cc D258     	 ldr r2,[r2,r3]
 144 00ce 7B68     	 ldr r3,[r7,#4]
 145 00d0 5B78     	 ldrb r3,[r3,#1]
 146 00d2 1C1C     	 mov r4,r3
 147 00d4 0B23     	 mov r3,#11
 148 00d6 FB18     	 add r3,r7,r3
 149 00d8 1B78     	 ldrb r3,[r3]
 150 00da 0721     	 mov r1,#7
 151 00dc 0B40     	 and r3,r1
 152 00de 9B00     	 lsl r3,r3,#2
 153 00e0 9C40     	 lsl r4,r4,r3
 154 00e2 231C     	 mov r3,r4
 155 00e4 1A43     	 orr r2,r3
 156 00e6 111C     	 mov r1,r2
 157 00e8 FB68     	 ldr r3,[r7,#12]
 158 00ea 021C     	 mov r2,r0
 159 00ec 1032     	 add r2,r2,#16
 160 00ee 9200     	 lsl r2,r2,#2
 161 00f0 D150     	 str r1,[r2,r3]
  84:../Libraries/XMCLib/src/xmc1_gpio.c ****     
  85:../Libraries/XMCLib/src/xmc1_gpio.c ****   /* Enable digital input */
  86:../Libraries/XMCLib/src/xmc1_gpio.c ****   if (XMC_GPIO_CHECK_ANALOG_PORT(port))
 162              	 .loc 1 86 0
 163 00f2 FB68     	 ldr r3,[r7,#12]
 164 00f4 204A     	 ldr r2,.L4
 165 00f6 9342     	 cmp r3,r2
 166 00f8 0CD1     	 bne .L2
  87:../Libraries/XMCLib/src/xmc1_gpio.c ****   {    
  88:../Libraries/XMCLib/src/xmc1_gpio.c ****     port->PDISC &= ~(uint32_t)((uint32_t)0x1U << pin);
 167              	 .loc 1 88 0
 168 00fa FB68     	 ldr r3,[r7,#12]
 169 00fc 1B6E     	 ldr r3,[r3,#96]
 170 00fe 0B22     	 mov r2,#11
 171 0100 BA18     	 add r2,r7,r2
 172 0102 1278     	 ldrb r2,[r2]
 173 0104 0121     	 mov r1,#1
 174 0106 9140     	 lsl r1,r1,r2
 175 0108 0A1C     	 mov r2,r1
 176 010a D243     	 mvn r2,r2
 177 010c 1A40     	 and r2,r3
 178 010e FB68     	 ldr r3,[r7,#12]
 179 0110 1A66     	 str r2,[r3,#96]
 180 0112 0DE0     	 b .L3
 181              	.L2:
  89:../Libraries/XMCLib/src/xmc1_gpio.c ****   }
  90:../Libraries/XMCLib/src/xmc1_gpio.c ****   else 
  91:../Libraries/XMCLib/src/xmc1_gpio.c ****   {
  92:../Libraries/XMCLib/src/xmc1_gpio.c ****     if ((config->mode & XMC_GPIO_MODE_OE) != 0)
 182              	 .loc 1 92 0
 183 0114 7B68     	 ldr r3,[r7,#4]
 184 0116 1B78     	 ldrb r3,[r3]
 185 0118 DBB2     	 uxtb r3,r3
 186 011a 5BB2     	 sxtb r3,r3
 187 011c 002B     	 cmp r3,#0
 188 011e 07DA     	 bge .L3
  93:../Libraries/XMCLib/src/xmc1_gpio.c ****     {
  94:../Libraries/XMCLib/src/xmc1_gpio.c ****       /* If output is enabled */
  95:../Libraries/XMCLib/src/xmc1_gpio.c **** 
  96:../Libraries/XMCLib/src/xmc1_gpio.c ****       /* Set output level */
  97:../Libraries/XMCLib/src/xmc1_gpio.c ****       port->OMR = (uint32_t)config->output_level << pin;
 189              	 .loc 1 97 0
 190 0120 7B68     	 ldr r3,[r7,#4]
 191 0122 5A68     	 ldr r2,[r3,#4]
 192 0124 0B23     	 mov r3,#11
 193 0126 FB18     	 add r3,r7,r3
 194 0128 1B78     	 ldrb r3,[r3]
 195 012a 9A40     	 lsl r2,r2,r3
 196 012c FB68     	 ldr r3,[r7,#12]
 197 012e 5A60     	 str r2,[r3,#4]
 198              	.L3:
  98:../Libraries/XMCLib/src/xmc1_gpio.c ****     }
  99:../Libraries/XMCLib/src/xmc1_gpio.c ****   }
 100:../Libraries/XMCLib/src/xmc1_gpio.c ****   
 101:../Libraries/XMCLib/src/xmc1_gpio.c ****   /* Set mode */
 102:../Libraries/XMCLib/src/xmc1_gpio.c ****   port->IOCR[pin >> 2U] |= (uint32_t)config->mode << (PORT_IOCR_PC_Size * (pin & 0x3U));
 199              	 .loc 1 102 0
 200 0130 0B23     	 mov r3,#11
 201 0132 FB18     	 add r3,r7,r3
 202 0134 1B78     	 ldrb r3,[r3]
 203 0136 9B08     	 lsr r3,r3,#2
 204 0138 DBB2     	 uxtb r3,r3
 205 013a 181C     	 mov r0,r3
 206 013c 0B23     	 mov r3,#11
 207 013e FB18     	 add r3,r7,r3
 208 0140 1B78     	 ldrb r3,[r3]
 209 0142 9B08     	 lsr r3,r3,#2
 210 0144 DBB2     	 uxtb r3,r3
 211 0146 1A1C     	 mov r2,r3
 212 0148 FB68     	 ldr r3,[r7,#12]
 213 014a 0432     	 add r2,r2,#4
 214 014c 9200     	 lsl r2,r2,#2
 215 014e D258     	 ldr r2,[r2,r3]
 216 0150 7B68     	 ldr r3,[r7,#4]
 217 0152 1B78     	 ldrb r3,[r3]
 218 0154 1C1C     	 mov r4,r3
 219 0156 0B23     	 mov r3,#11
 220 0158 FB18     	 add r3,r7,r3
 221 015a 1B78     	 ldrb r3,[r3]
 222 015c 0321     	 mov r1,#3
 223 015e 0B40     	 and r3,r1
 224 0160 DB00     	 lsl r3,r3,#3
 225 0162 9C40     	 lsl r4,r4,r3
 226 0164 231C     	 mov r3,r4
 227 0166 1A43     	 orr r2,r3
 228 0168 111C     	 mov r1,r2
 229 016a FB68     	 ldr r3,[r7,#12]
 230 016c 021D     	 add r2,r0,#4
 231 016e 9200     	 lsl r2,r2,#2
 232 0170 D150     	 str r1,[r2,r3]
 103:../Libraries/XMCLib/src/xmc1_gpio.c **** }
 233              	 .loc 1 103 0
 234 0172 BD46     	 mov sp,r7
 235 0174 05B0     	 add sp,sp,#20
 236              	 
 237 0176 90BD     	 pop {r4,r7,pc}
 238              	.L5:
 239              	 .align 2
 240              	.L4:
 241 0178 00020440 	 .word 1074004480
 242              	 .cfi_endproc
 243              	.LFE51:
 245              	 .section .text.XMC_GPIO_SetInputHysteresis,"ax",%progbits
 246              	 .align 2
 247              	 .global XMC_GPIO_SetInputHysteresis
 248              	 .code 16
 249              	 .thumb_func
 251              	XMC_GPIO_SetInputHysteresis:
 252              	.LFB52:
 104:../Libraries/XMCLib/src/xmc1_gpio.c **** 
 105:../Libraries/XMCLib/src/xmc1_gpio.c **** void XMC_GPIO_SetInputHysteresis(XMC_GPIO_PORT_t *const port, 
 106:../Libraries/XMCLib/src/xmc1_gpio.c ****                                  const uint8_t pin, 
 107:../Libraries/XMCLib/src/xmc1_gpio.c ****                                  const XMC_GPIO_INPUT_HYSTERESIS_t hysteresis)
 108:../Libraries/XMCLib/src/xmc1_gpio.c **** {
 253              	 .loc 1 108 0
 254              	 .cfi_startproc
 255 0000 90B5     	 push {r4,r7,lr}
 256              	.LCFI3:
 257              	 .cfi_def_cfa_offset 12
 258              	 .cfi_offset 4,-12
 259              	 .cfi_offset 7,-8
 260              	 .cfi_offset 14,-4
 261 0002 83B0     	 sub sp,sp,#12
 262              	.LCFI4:
 263              	 .cfi_def_cfa_offset 24
 264 0004 00AF     	 add r7,sp,#0
 265              	.LCFI5:
 266              	 .cfi_def_cfa_register 7
 267 0006 7860     	 str r0,[r7,#4]
 268 0008 081C     	 mov r0,r1
 269 000a 111C     	 mov r1,r2
 270 000c FB1C     	 add r3,r7,#3
 271 000e 021C     	 add r2,r0,#0
 272 0010 1A70     	 strb r2,[r3]
 273 0012 BB1C     	 add r3,r7,#2
 274 0014 0A1C     	 add r2,r1,#0
 275 0016 1A70     	 strb r2,[r3]
 109:../Libraries/XMCLib/src/xmc1_gpio.c ****   XMC_ASSERT("XMC_GPIO_SetInputHysteresis: Invalid port", XMC_GPIO_CHECK_PORT(port));
 110:../Libraries/XMCLib/src/xmc1_gpio.c ****   XMC_ASSERT("XMC_GPIO_SetInputHysteresis: Invalid input hysteresis", XMC_GPIO_CHECK_INPUT_HYSTERES
 111:../Libraries/XMCLib/src/xmc1_gpio.c **** 
 112:../Libraries/XMCLib/src/xmc1_gpio.c ****   port->PHCR[(uint32_t)pin >> 3U] &= ~(uint32_t)((uint32_t)PORT_PHCR_Msk << ((uint32_t)PORT_PHCR_Si
 276              	 .loc 1 112 0
 277 0018 FB1C     	 add r3,r7,#3
 278 001a 1B78     	 ldrb r3,[r3]
 279 001c DB08     	 lsr r3,r3,#3
 280 001e DBB2     	 uxtb r3,r3
 281 0020 181C     	 mov r0,r3
 282 0022 FB1C     	 add r3,r7,#3
 283 0024 1B78     	 ldrb r3,[r3]
 284 0026 DB08     	 lsr r3,r3,#3
 285 0028 DBB2     	 uxtb r3,r3
 286 002a 1A1C     	 mov r2,r3
 287 002c 7B68     	 ldr r3,[r7,#4]
 288 002e 1032     	 add r2,r2,#16
 289 0030 9200     	 lsl r2,r2,#2
 290 0032 D358     	 ldr r3,[r2,r3]
 291 0034 FA1C     	 add r2,r7,#3
 292 0036 1278     	 ldrb r2,[r2]
 293 0038 0721     	 mov r1,#7
 294 003a 0A40     	 and r2,r1
 295 003c 9200     	 lsl r2,r2,#2
 296 003e 111C     	 mov r1,r2
 297 0040 0422     	 mov r2,#4
 298 0042 8A40     	 lsl r2,r2,r1
 299 0044 D243     	 mvn r2,r2
 300 0046 1A40     	 and r2,r3
 301 0048 111C     	 mov r1,r2
 302 004a 7B68     	 ldr r3,[r7,#4]
 303 004c 021C     	 mov r2,r0
 304 004e 1032     	 add r2,r2,#16
 305 0050 9200     	 lsl r2,r2,#2
 306 0052 D150     	 str r1,[r2,r3]
 113:../Libraries/XMCLib/src/xmc1_gpio.c ****   port->PHCR[(uint32_t)pin >> 3U] |= (uint32_t)hysteresis << ((uint32_t)PORT_PHCR_Size * ((uint32_t
 307              	 .loc 1 113 0
 308 0054 FB1C     	 add r3,r7,#3
 309 0056 1B78     	 ldrb r3,[r3]
 310 0058 DB08     	 lsr r3,r3,#3
 311 005a DBB2     	 uxtb r3,r3
 312 005c 1C1C     	 mov r4,r3
 313 005e FB1C     	 add r3,r7,#3
 314 0060 1B78     	 ldrb r3,[r3]
 315 0062 DB08     	 lsr r3,r3,#3
 316 0064 DBB2     	 uxtb r3,r3
 317 0066 1A1C     	 mov r2,r3
 318 0068 7B68     	 ldr r3,[r7,#4]
 319 006a 1032     	 add r2,r2,#16
 320 006c 9200     	 lsl r2,r2,#2
 321 006e D258     	 ldr r2,[r2,r3]
 322 0070 BB1C     	 add r3,r7,#2
 323 0072 1B78     	 ldrb r3,[r3]
 324 0074 F91C     	 add r1,r7,#3
 325 0076 0978     	 ldrb r1,[r1]
 326 0078 0720     	 mov r0,#7
 327 007a 0140     	 and r1,r0
 328 007c 8900     	 lsl r1,r1,#2
 329 007e 8B40     	 lsl r3,r3,r1
 330 0080 1A43     	 orr r2,r3
 331 0082 111C     	 mov r1,r2
 332 0084 7B68     	 ldr r3,[r7,#4]
 333 0086 221C     	 mov r2,r4
 334 0088 1032     	 add r2,r2,#16
 335 008a 9200     	 lsl r2,r2,#2
 336 008c D150     	 str r1,[r2,r3]
 114:../Libraries/XMCLib/src/xmc1_gpio.c **** }
 337              	 .loc 1 114 0
 338 008e BD46     	 mov sp,r7
 339 0090 03B0     	 add sp,sp,#12
 340              	 
 341 0092 90BD     	 pop {r4,r7,pc}
 342              	 .cfi_endproc
 343              	.LFE52:
 345              	 .text
 346              	.Letext0:
 347              	 .file 2 "c:\\dave\\dave-ide-4.4.2-64bit\\eclipse\\arm-gcc-49\\arm-none-eabi\\include\\machine\\_default_types.h"
 348              	 .file 3 "c:\\dave\\dave-ide-4.4.2-64bit\\eclipse\\arm-gcc-49\\arm-none-eabi\\include\\stdint.h"
 349              	 .file 4 "C:/Workspaces/DAVE-4.4.2-64Bit/Blinky_v2/Libraries/XMCLib/inc/xmc_gpio.h"
 350              	 .file 5 "C:/Workspaces/DAVE-4.4.2-64Bit/Blinky_v2/Libraries/XMCLib/inc/xmc1_gpio.h"