   1              	 .cpu cortex-m0
   2              	 .fpu softvfp
   3              	 .eabi_attribute 20,1
   4              	 .eabi_attribute 21,1
   5              	 .eabi_attribute 23,3
   6              	 .eabi_attribute 24,1
   7              	 .eabi_attribute 25,1
   8              	 .eabi_attribute 26,1
   9              	 .eabi_attribute 30,6
  10              	 .eabi_attribute 34,0
  11              	 .eabi_attribute 18,4
  12              	 .code 16
  13              	 .file "xmc_rtc.c"
  14              	 .text
  15              	.Ltext0:
  16              	 .cfi_sections .debug_frame
  17              	 .section .text.XMC_SCU_GetMirrorStatus,"ax",%progbits
  18              	 .align 2
  19              	 .code 16
  20              	 .thumb_func
  22              	XMC_SCU_GetMirrorStatus:
  23              	.LFB58:
  24              	 .file 1 "C:/Workspaces/DAVE-4.4.2-64Bit/Blinky_v2/Libraries/XMCLib/inc/xmc_scu.h"
   1:C:/Workspaces/DAVE-4.4.2-64Bit/Blinky_v2/Libraries/XMCLib/inc\xmc_scu.h **** /**
   2:C:/Workspaces/DAVE-4.4.2-64Bit/Blinky_v2/Libraries/XMCLib/inc\xmc_scu.h ****  * @file xmc_scu.h
   3:C:/Workspaces/DAVE-4.4.2-64Bit/Blinky_v2/Libraries/XMCLib/inc\xmc_scu.h ****  * @date 2016-03-09
   4:C:/Workspaces/DAVE-4.4.2-64Bit/Blinky_v2/Libraries/XMCLib/inc\xmc_scu.h ****  *
   5:C:/Workspaces/DAVE-4.4.2-64Bit/Blinky_v2/Libraries/XMCLib/inc\xmc_scu.h ****  * @cond
   6:C:/Workspaces/DAVE-4.4.2-64Bit/Blinky_v2/Libraries/XMCLib/inc\xmc_scu.h ****  **************************************************************************************************
   7:C:/Workspaces/DAVE-4.4.2-64Bit/Blinky_v2/Libraries/XMCLib/inc\xmc_scu.h ****  * XMClib v2.1.18 - XMC Peripheral Driver Library 
   8:C:/Workspaces/DAVE-4.4.2-64Bit/Blinky_v2/Libraries/XMCLib/inc\xmc_scu.h ****  *
   9:C:/Workspaces/DAVE-4.4.2-64Bit/Blinky_v2/Libraries/XMCLib/inc\xmc_scu.h ****  * Copyright (c) 2015-2018, Infineon Technologies AG
  10:C:/Workspaces/DAVE-4.4.2-64Bit/Blinky_v2/Libraries/XMCLib/inc\xmc_scu.h ****  * All rights reserved.                        
  11:C:/Workspaces/DAVE-4.4.2-64Bit/Blinky_v2/Libraries/XMCLib/inc\xmc_scu.h ****  *                                             
  12:C:/Workspaces/DAVE-4.4.2-64Bit/Blinky_v2/Libraries/XMCLib/inc\xmc_scu.h ****  * Redistribution and use in source and binary forms, with or without modification,are permitted pr
  13:C:/Workspaces/DAVE-4.4.2-64Bit/Blinky_v2/Libraries/XMCLib/inc\xmc_scu.h ****  * following conditions are met:   
  14:C:/Workspaces/DAVE-4.4.2-64Bit/Blinky_v2/Libraries/XMCLib/inc\xmc_scu.h ****  *                                                                              
  15:C:/Workspaces/DAVE-4.4.2-64Bit/Blinky_v2/Libraries/XMCLib/inc\xmc_scu.h ****  * Redistributions of source code must retain the above copyright notice, this list of conditions a
  16:C:/Workspaces/DAVE-4.4.2-64Bit/Blinky_v2/Libraries/XMCLib/inc\xmc_scu.h ****  * disclaimer.                        
  17:C:/Workspaces/DAVE-4.4.2-64Bit/Blinky_v2/Libraries/XMCLib/inc\xmc_scu.h ****  * 
  18:C:/Workspaces/DAVE-4.4.2-64Bit/Blinky_v2/Libraries/XMCLib/inc\xmc_scu.h ****  * Redistributions in binary form must reproduce the above copyright notice, this list of condition
  19:C:/Workspaces/DAVE-4.4.2-64Bit/Blinky_v2/Libraries/XMCLib/inc\xmc_scu.h ****  * disclaimer in the documentation and/or other materials provided with the distribution.          
  20:C:/Workspaces/DAVE-4.4.2-64Bit/Blinky_v2/Libraries/XMCLib/inc\xmc_scu.h ****  * 
  21:C:/Workspaces/DAVE-4.4.2-64Bit/Blinky_v2/Libraries/XMCLib/inc\xmc_scu.h ****  * Neither the name of the copyright holders nor the names of its contributors may be used to endor
  22:C:/Workspaces/DAVE-4.4.2-64Bit/Blinky_v2/Libraries/XMCLib/inc\xmc_scu.h ****  * products derived from this software without specific prior written permission.                  
  23:C:/Workspaces/DAVE-4.4.2-64Bit/Blinky_v2/Libraries/XMCLib/inc\xmc_scu.h ****  *                                                                              
  24:C:/Workspaces/DAVE-4.4.2-64Bit/Blinky_v2/Libraries/XMCLib/inc\xmc_scu.h ****  * THIS SOFTWARE IS PROVIDED BY THE COPYRIGHT HOLDERS AND CONTRIBUTORS "AS IS" AND ANY EXPRESS OR I
  25:C:/Workspaces/DAVE-4.4.2-64Bit/Blinky_v2/Libraries/XMCLib/inc\xmc_scu.h ****  * INCLUDING, BUT NOT LIMITED TO, THE IMPLIED WARRANTIES OF MERCHANTABILITY AND FITNESS FOR A PARTI
  26:C:/Workspaces/DAVE-4.4.2-64Bit/Blinky_v2/Libraries/XMCLib/inc\xmc_scu.h ****  * DISCLAIMED. IN NO EVENT SHALL THE COPYRIGHT HOLDER OR CONTRIBUTORS BE LIABLE  FOR ANY DIRECT, IN
  27:C:/Workspaces/DAVE-4.4.2-64Bit/Blinky_v2/Libraries/XMCLib/inc\xmc_scu.h ****  * SPECIAL, EXEMPLARY, OR CONSEQUENTIAL DAMAGES (INCLUDING, BUT NOT LIMITED TO, PROCUREMENT OF SUBS
  28:C:/Workspaces/DAVE-4.4.2-64Bit/Blinky_v2/Libraries/XMCLib/inc\xmc_scu.h ****  * SERVICES; LOSS OF USE, DATA, OR PROFITS; OR BUSINESS INTERRUPTION) HOWEVER CAUSED AND ON ANY THE
  29:C:/Workspaces/DAVE-4.4.2-64Bit/Blinky_v2/Libraries/XMCLib/inc\xmc_scu.h ****  * WHETHER IN CONTRACT, STRICT LIABILITY,OR TORT (INCLUDING NEGLIGENCE OR OTHERWISE) ARISING IN ANY
  30:C:/Workspaces/DAVE-4.4.2-64Bit/Blinky_v2/Libraries/XMCLib/inc\xmc_scu.h ****  * OF THIS SOFTWARE, EVEN IF ADVISED OF THE POSSIBILITY OF SUCH DAMAGE.                            
  31:C:/Workspaces/DAVE-4.4.2-64Bit/Blinky_v2/Libraries/XMCLib/inc\xmc_scu.h ****  *                                                                              
  32:C:/Workspaces/DAVE-4.4.2-64Bit/Blinky_v2/Libraries/XMCLib/inc\xmc_scu.h ****  * To improve the quality of the software, users are encouraged to share modifications, enhancement
  33:C:/Workspaces/DAVE-4.4.2-64Bit/Blinky_v2/Libraries/XMCLib/inc\xmc_scu.h ****  * Infineon Technologies AG dave@infineon.com).                                                    
  34:C:/Workspaces/DAVE-4.4.2-64Bit/Blinky_v2/Libraries/XMCLib/inc\xmc_scu.h ****  **************************************************************************************************
  35:C:/Workspaces/DAVE-4.4.2-64Bit/Blinky_v2/Libraries/XMCLib/inc\xmc_scu.h ****  *
  36:C:/Workspaces/DAVE-4.4.2-64Bit/Blinky_v2/Libraries/XMCLib/inc\xmc_scu.h ****  * Change History
  37:C:/Workspaces/DAVE-4.4.2-64Bit/Blinky_v2/Libraries/XMCLib/inc\xmc_scu.h ****  * --------------
  38:C:/Workspaces/DAVE-4.4.2-64Bit/Blinky_v2/Libraries/XMCLib/inc\xmc_scu.h ****  *
  39:C:/Workspaces/DAVE-4.4.2-64Bit/Blinky_v2/Libraries/XMCLib/inc\xmc_scu.h ****  * 2015-02-20:
  40:C:/Workspaces/DAVE-4.4.2-64Bit/Blinky_v2/Libraries/XMCLib/inc\xmc_scu.h ****  *     - Initial <br>
  41:C:/Workspaces/DAVE-4.4.2-64Bit/Blinky_v2/Libraries/XMCLib/inc\xmc_scu.h ****  *
  42:C:/Workspaces/DAVE-4.4.2-64Bit/Blinky_v2/Libraries/XMCLib/inc\xmc_scu.h ****  * 2015-05-20:
  43:C:/Workspaces/DAVE-4.4.2-64Bit/Blinky_v2/Libraries/XMCLib/inc\xmc_scu.h ****  *     - Documentation improved <br>
  44:C:/Workspaces/DAVE-4.4.2-64Bit/Blinky_v2/Libraries/XMCLib/inc\xmc_scu.h ****  *     - XMC_ASSERT() hanging issues have fixed for XMC4 devices. <br>
  45:C:/Workspaces/DAVE-4.4.2-64Bit/Blinky_v2/Libraries/XMCLib/inc\xmc_scu.h ****  *
  46:C:/Workspaces/DAVE-4.4.2-64Bit/Blinky_v2/Libraries/XMCLib/inc\xmc_scu.h ****  * 2015-06-20:
  47:C:/Workspaces/DAVE-4.4.2-64Bit/Blinky_v2/Libraries/XMCLib/inc\xmc_scu.h ****  *     - Removed version macros and declaration of GetDriverVersion API
  48:C:/Workspaces/DAVE-4.4.2-64Bit/Blinky_v2/Libraries/XMCLib/inc\xmc_scu.h ****  *     - Removed STATIC_INLINE property for the below APIs and declared as void
  49:C:/Workspaces/DAVE-4.4.2-64Bit/Blinky_v2/Libraries/XMCLib/inc\xmc_scu.h ****  *       XMC_SCU_INTERRUPT_EnableEvent, XMC_SCU_INTERRUPT_DisableEvent,
  50:C:/Workspaces/DAVE-4.4.2-64Bit/Blinky_v2/Libraries/XMCLib/inc\xmc_scu.h ****  *       XMC_SCU_INTERRUPT_TriggerEvent, XMC_SCU_INTERUPT_GetEventStatus,
  51:C:/Workspaces/DAVE-4.4.2-64Bit/Blinky_v2/Libraries/XMCLib/inc\xmc_scu.h ****  *       XMC_SCU_INTERUPT_ClearEventStatus
  52:C:/Workspaces/DAVE-4.4.2-64Bit/Blinky_v2/Libraries/XMCLib/inc\xmc_scu.h ****  *
  53:C:/Workspaces/DAVE-4.4.2-64Bit/Blinky_v2/Libraries/XMCLib/inc\xmc_scu.h ****  * 2015-11-30:
  54:C:/Workspaces/DAVE-4.4.2-64Bit/Blinky_v2/Libraries/XMCLib/inc\xmc_scu.h ****  *     - Documentation improved <br>
  55:C:/Workspaces/DAVE-4.4.2-64Bit/Blinky_v2/Libraries/XMCLib/inc\xmc_scu.h ****  *      
  56:C:/Workspaces/DAVE-4.4.2-64Bit/Blinky_v2/Libraries/XMCLib/inc\xmc_scu.h ****  * 2016-03-09:
  57:C:/Workspaces/DAVE-4.4.2-64Bit/Blinky_v2/Libraries/XMCLib/inc\xmc_scu.h ****  *     - Optimization of write only registers
  58:C:/Workspaces/DAVE-4.4.2-64Bit/Blinky_v2/Libraries/XMCLib/inc\xmc_scu.h ****  *      
  59:C:/Workspaces/DAVE-4.4.2-64Bit/Blinky_v2/Libraries/XMCLib/inc\xmc_scu.h ****  * @endcond 
  60:C:/Workspaces/DAVE-4.4.2-64Bit/Blinky_v2/Libraries/XMCLib/inc\xmc_scu.h ****  *
  61:C:/Workspaces/DAVE-4.4.2-64Bit/Blinky_v2/Libraries/XMCLib/inc\xmc_scu.h ****  */
  62:C:/Workspaces/DAVE-4.4.2-64Bit/Blinky_v2/Libraries/XMCLib/inc\xmc_scu.h **** #ifndef XMC_SCU_H
  63:C:/Workspaces/DAVE-4.4.2-64Bit/Blinky_v2/Libraries/XMCLib/inc\xmc_scu.h **** #define XMC_SCU_H
  64:C:/Workspaces/DAVE-4.4.2-64Bit/Blinky_v2/Libraries/XMCLib/inc\xmc_scu.h ****  
  65:C:/Workspaces/DAVE-4.4.2-64Bit/Blinky_v2/Libraries/XMCLib/inc\xmc_scu.h **** /**************************************************************************************************
  66:C:/Workspaces/DAVE-4.4.2-64Bit/Blinky_v2/Libraries/XMCLib/inc\xmc_scu.h ****  * HEADER FILES
  67:C:/Workspaces/DAVE-4.4.2-64Bit/Blinky_v2/Libraries/XMCLib/inc\xmc_scu.h ****  **************************************************************************************************
  68:C:/Workspaces/DAVE-4.4.2-64Bit/Blinky_v2/Libraries/XMCLib/inc\xmc_scu.h **** #include <xmc_common.h>
  69:C:/Workspaces/DAVE-4.4.2-64Bit/Blinky_v2/Libraries/XMCLib/inc\xmc_scu.h **** 
  70:C:/Workspaces/DAVE-4.4.2-64Bit/Blinky_v2/Libraries/XMCLib/inc\xmc_scu.h **** /**
  71:C:/Workspaces/DAVE-4.4.2-64Bit/Blinky_v2/Libraries/XMCLib/inc\xmc_scu.h ****  * @addtogroup XMClib XMC Peripheral Library
  72:C:/Workspaces/DAVE-4.4.2-64Bit/Blinky_v2/Libraries/XMCLib/inc\xmc_scu.h ****  * @{
  73:C:/Workspaces/DAVE-4.4.2-64Bit/Blinky_v2/Libraries/XMCLib/inc\xmc_scu.h ****  */
  74:C:/Workspaces/DAVE-4.4.2-64Bit/Blinky_v2/Libraries/XMCLib/inc\xmc_scu.h ****  
  75:C:/Workspaces/DAVE-4.4.2-64Bit/Blinky_v2/Libraries/XMCLib/inc\xmc_scu.h **** /**
  76:C:/Workspaces/DAVE-4.4.2-64Bit/Blinky_v2/Libraries/XMCLib/inc\xmc_scu.h ****  * @addtogroup SCU
  77:C:/Workspaces/DAVE-4.4.2-64Bit/Blinky_v2/Libraries/XMCLib/inc\xmc_scu.h ****  * @brief System Control Unit(SCU) driver for XMC microcontroller family.
  78:C:/Workspaces/DAVE-4.4.2-64Bit/Blinky_v2/Libraries/XMCLib/inc\xmc_scu.h ****  *
  79:C:/Workspaces/DAVE-4.4.2-64Bit/Blinky_v2/Libraries/XMCLib/inc\xmc_scu.h ****  * System control unit is the SoC power, reset and a clock manager with additional responsibility o
  80:C:/Workspaces/DAVE-4.4.2-64Bit/Blinky_v2/Libraries/XMCLib/inc\xmc_scu.h ****  * providing system stability protection and other auxiliary functions.<br>
  81:C:/Workspaces/DAVE-4.4.2-64Bit/Blinky_v2/Libraries/XMCLib/inc\xmc_scu.h ****  * SCU provides the following features,
  82:C:/Workspaces/DAVE-4.4.2-64Bit/Blinky_v2/Libraries/XMCLib/inc\xmc_scu.h ****  * -# Power control
  83:C:/Workspaces/DAVE-4.4.2-64Bit/Blinky_v2/Libraries/XMCLib/inc\xmc_scu.h ****  \if XMC4 
  84:C:/Workspaces/DAVE-4.4.2-64Bit/Blinky_v2/Libraries/XMCLib/inc\xmc_scu.h ****  * -# Hibernate control 
  85:C:/Workspaces/DAVE-4.4.2-64Bit/Blinky_v2/Libraries/XMCLib/inc\xmc_scu.h ****  \endif
  86:C:/Workspaces/DAVE-4.4.2-64Bit/Blinky_v2/Libraries/XMCLib/inc\xmc_scu.h ****  * -# Reset control
  87:C:/Workspaces/DAVE-4.4.2-64Bit/Blinky_v2/Libraries/XMCLib/inc\xmc_scu.h ****  * -# Clock control
  88:C:/Workspaces/DAVE-4.4.2-64Bit/Blinky_v2/Libraries/XMCLib/inc\xmc_scu.h ****  * -# Miscellaneous control(boot mode, system interrupts etc.)<br><br>
  89:C:/Workspaces/DAVE-4.4.2-64Bit/Blinky_v2/Libraries/XMCLib/inc\xmc_scu.h ****  *
  90:C:/Workspaces/DAVE-4.4.2-64Bit/Blinky_v2/Libraries/XMCLib/inc\xmc_scu.h ****  * The SCU driver is divided in to clock control logic, reset control logic, system interrupt contr
  91:C:/Workspaces/DAVE-4.4.2-64Bit/Blinky_v2/Libraries/XMCLib/inc\xmc_scu.h ****  \if XMC4
  92:C:/Workspaces/DAVE-4.4.2-64Bit/Blinky_v2/Libraries/XMCLib/inc\xmc_scu.h ****  * , hibernate control logic, trap control logic, parity control logic 
  93:C:/Workspaces/DAVE-4.4.2-64Bit/Blinky_v2/Libraries/XMCLib/inc\xmc_scu.h ****  \endif
  94:C:/Workspaces/DAVE-4.4.2-64Bit/Blinky_v2/Libraries/XMCLib/inc\xmc_scu.h ****  * and miscellaneous control logic.<br>
  95:C:/Workspaces/DAVE-4.4.2-64Bit/Blinky_v2/Libraries/XMCLib/inc\xmc_scu.h ****  *
  96:C:/Workspaces/DAVE-4.4.2-64Bit/Blinky_v2/Libraries/XMCLib/inc\xmc_scu.h ****  * Clock driver features:
  97:C:/Workspaces/DAVE-4.4.2-64Bit/Blinky_v2/Libraries/XMCLib/inc\xmc_scu.h ****  * -# Allows clock configuration using the structure XMC_SCU_CLOCK_CONFIG_t and API XMC_SCU_CLOCK_I
  98:C:/Workspaces/DAVE-4.4.2-64Bit/Blinky_v2/Libraries/XMCLib/inc\xmc_scu.h ****  \if XMC4
  99:C:/Workspaces/DAVE-4.4.2-64Bit/Blinky_v2/Libraries/XMCLib/inc\xmc_scu.h ****  * -# Provides structure XMC_SCU_CLOCK_SYSPLL_CONFIG_t for configuring the system PLL
 100:C:/Workspaces/DAVE-4.4.2-64Bit/Blinky_v2/Libraries/XMCLib/inc\xmc_scu.h ****  * -# Allows selection of clock source for system PLL, XMC_SCU_CLOCK_GetSystemPllClockSource()
 101:C:/Workspaces/DAVE-4.4.2-64Bit/Blinky_v2/Libraries/XMCLib/inc\xmc_scu.h ****  * -# Provides APIs for configuring different module clock frequencies XMC_SCU_CLOCK_SetWdtClockDiv
 102:C:/Workspaces/DAVE-4.4.2-64Bit/Blinky_v2/Libraries/XMCLib/inc\xmc_scu.h ****  * -# Allows selection of clock source for external output, XMC_SCU_CLOCK_SetExternalOutputClockSou
 103:C:/Workspaces/DAVE-4.4.2-64Bit/Blinky_v2/Libraries/XMCLib/inc\xmc_scu.h ****  * -# Provides APIs for enabling external high power oscillator and ultra low power oscillator, XMC
 104:C:/Workspaces/DAVE-4.4.2-64Bit/Blinky_v2/Libraries/XMCLib/inc\xmc_scu.h ****  * -# Provides APIs for getting various clock frequencies XMC_SCU_CLOCK_GetPeripheralClockFrequency
 105:C:/Workspaces/DAVE-4.4.2-64Bit/Blinky_v2/Libraries/XMCLib/inc\xmc_scu.h ****  XMC_SCU_CLOCK_GetCpuClockFrequency(), XMC_SCU_CLOCK_GetSystemClockFrequency()<br>
 106:C:/Workspaces/DAVE-4.4.2-64Bit/Blinky_v2/Libraries/XMCLib/inc\xmc_scu.h ****  \endif
 107:C:/Workspaces/DAVE-4.4.2-64Bit/Blinky_v2/Libraries/XMCLib/inc\xmc_scu.h ****  \if XMC1
 108:C:/Workspaces/DAVE-4.4.2-64Bit/Blinky_v2/Libraries/XMCLib/inc\xmc_scu.h ****  * -# Allows selection of peripheral clock frequency, XMC_SCU_CLOCK_SetFastPeripheralClockSource()
 109:C:/Workspaces/DAVE-4.4.2-64Bit/Blinky_v2/Libraries/XMCLib/inc\xmc_scu.h ****  * -# Provides API to get the peripheral clock frequency, XMC_SCU_CLOCK_GetFastPeripheralClockFrequ
 110:C:/Workspaces/DAVE-4.4.2-64Bit/Blinky_v2/Libraries/XMCLib/inc\xmc_scu.h ****  \endif
 111:C:/Workspaces/DAVE-4.4.2-64Bit/Blinky_v2/Libraries/XMCLib/inc\xmc_scu.h ****  *
 112:C:/Workspaces/DAVE-4.4.2-64Bit/Blinky_v2/Libraries/XMCLib/inc\xmc_scu.h ****  * Reset driver features:
 113:C:/Workspaces/DAVE-4.4.2-64Bit/Blinky_v2/Libraries/XMCLib/inc\xmc_scu.h ****  \if XMC4
 114:C:/Workspaces/DAVE-4.4.2-64Bit/Blinky_v2/Libraries/XMCLib/inc\xmc_scu.h ****  * -# Allows to handle peripheral reset XMC_SCU_RESET_AssertPeripheralReset(), XMC_SCU_RESET_Deasse
 115:C:/Workspaces/DAVE-4.4.2-64Bit/Blinky_v2/Libraries/XMCLib/inc\xmc_scu.h ****  * -# Allows configuration of NMI generation for selected events, XMC_SCU_INTERRUPT_EnableNmiReques
 116:C:/Workspaces/DAVE-4.4.2-64Bit/Blinky_v2/Libraries/XMCLib/inc\xmc_scu.h ****  \endif
 117:C:/Workspaces/DAVE-4.4.2-64Bit/Blinky_v2/Libraries/XMCLib/inc\xmc_scu.h ****  \if XMC1
 118:C:/Workspaces/DAVE-4.4.2-64Bit/Blinky_v2/Libraries/XMCLib/inc\xmc_scu.h ****  * -# Allows to trigger device reset XMC_SCU_RESET_AssertMasterReset()
 119:C:/Workspaces/DAVE-4.4.2-64Bit/Blinky_v2/Libraries/XMCLib/inc\xmc_scu.h ****  * -# Allows to configure multiple sources for reset, XMC_SCU_RESET_EnableResetRequest()
 120:C:/Workspaces/DAVE-4.4.2-64Bit/Blinky_v2/Libraries/XMCLib/inc\xmc_scu.h ****  \endif <br>
 121:C:/Workspaces/DAVE-4.4.2-64Bit/Blinky_v2/Libraries/XMCLib/inc\xmc_scu.h ****  *
 122:C:/Workspaces/DAVE-4.4.2-64Bit/Blinky_v2/Libraries/XMCLib/inc\xmc_scu.h ****  * Interrupt driver features:
 123:C:/Workspaces/DAVE-4.4.2-64Bit/Blinky_v2/Libraries/XMCLib/inc\xmc_scu.h ****  * -# Provides APIs for enabling/ disabling interrupt event generation XMC_SCU_INTERRUPT_EnableEven
 124:C:/Workspaces/DAVE-4.4.2-64Bit/Blinky_v2/Libraries/XMCLib/inc\xmc_scu.h ****  XMC_SCU_INTERRUPT_DisableEvent()
 125:C:/Workspaces/DAVE-4.4.2-64Bit/Blinky_v2/Libraries/XMCLib/inc\xmc_scu.h ****  * -# Provides API for registering callback function for events XMC_SCU_INTERRUPT_SetEventHandler()
 126:C:/Workspaces/DAVE-4.4.2-64Bit/Blinky_v2/Libraries/XMCLib/inc\xmc_scu.h ****  *
 127:C:/Workspaces/DAVE-4.4.2-64Bit/Blinky_v2/Libraries/XMCLib/inc\xmc_scu.h ****  \if XMC4
 128:C:/Workspaces/DAVE-4.4.2-64Bit/Blinky_v2/Libraries/XMCLib/inc\xmc_scu.h ****  * Hibernate driver features:
 129:C:/Workspaces/DAVE-4.4.2-64Bit/Blinky_v2/Libraries/XMCLib/inc\xmc_scu.h ****  * -# Allows configuration of hibernate domain XMC_SCU_HIB_EnableHibernateDomain(), XMC_SCU_HIB_Dis
 130:C:/Workspaces/DAVE-4.4.2-64Bit/Blinky_v2/Libraries/XMCLib/inc\xmc_scu.h ****  * -# Allows selection of standby clock source, XMC_SCU_HIB_SetStandbyClockSource()
 131:C:/Workspaces/DAVE-4.4.2-64Bit/Blinky_v2/Libraries/XMCLib/inc\xmc_scu.h ****  * -# Allows selection of RTC clock source, XMC_SCU_HIB_SetRtcClockSource()
 132:C:/Workspaces/DAVE-4.4.2-64Bit/Blinky_v2/Libraries/XMCLib/inc\xmc_scu.h ****  * -# Provides API for enabling slow internal clock used for backup clock, XMC_SCU_HIB_EnableIntern
 133:C:/Workspaces/DAVE-4.4.2-64Bit/Blinky_v2/Libraries/XMCLib/inc\xmc_scu.h ****  *
 134:C:/Workspaces/DAVE-4.4.2-64Bit/Blinky_v2/Libraries/XMCLib/inc\xmc_scu.h ****  * Trap driver features:
 135:C:/Workspaces/DAVE-4.4.2-64Bit/Blinky_v2/Libraries/XMCLib/inc\xmc_scu.h ****  * -# Allows handling of trap XMC_SCU_TRAP_Enable(), XMC_SCU_TRAP_GetStatus(), XMC_SCU_TRAP_Trigger
 136:C:/Workspaces/DAVE-4.4.2-64Bit/Blinky_v2/Libraries/XMCLib/inc\xmc_scu.h ****  *
 137:C:/Workspaces/DAVE-4.4.2-64Bit/Blinky_v2/Libraries/XMCLib/inc\xmc_scu.h ****  * Parity driver features:
 138:C:/Workspaces/DAVE-4.4.2-64Bit/Blinky_v2/Libraries/XMCLib/inc\xmc_scu.h ****  * -# Parity error generated by on-chip RAM can be monitored, XMC_SCU_PARITY_Enable(), XMC_SCU_PARI
 139:C:/Workspaces/DAVE-4.4.2-64Bit/Blinky_v2/Libraries/XMCLib/inc\xmc_scu.h ****  * -# Allows configuration of trap generation on detection of parity error, XMC_SCU_PARITY_EnableTr
 140:C:/Workspaces/DAVE-4.4.2-64Bit/Blinky_v2/Libraries/XMCLib/inc\xmc_scu.h ****  *
 141:C:/Workspaces/DAVE-4.4.2-64Bit/Blinky_v2/Libraries/XMCLib/inc\xmc_scu.h ****  * Power driver features:
 142:C:/Workspaces/DAVE-4.4.2-64Bit/Blinky_v2/Libraries/XMCLib/inc\xmc_scu.h ****  * -# Allows to power the USB module XMC_SCU_POWER_EnableUsb(), XMC_SCU_POWER_DisableUsb()
 143:C:/Workspaces/DAVE-4.4.2-64Bit/Blinky_v2/Libraries/XMCLib/inc\xmc_scu.h ****  \endif
 144:C:/Workspaces/DAVE-4.4.2-64Bit/Blinky_v2/Libraries/XMCLib/inc\xmc_scu.h ****  *
 145:C:/Workspaces/DAVE-4.4.2-64Bit/Blinky_v2/Libraries/XMCLib/inc\xmc_scu.h ****  * Miscellaneous features:
 146:C:/Workspaces/DAVE-4.4.2-64Bit/Blinky_v2/Libraries/XMCLib/inc\xmc_scu.h ****  * -# Allows to trigger multiple capture compare unit(CCU) channels to be started together XMC_SCU_
 147:C:/Workspaces/DAVE-4.4.2-64Bit/Blinky_v2/Libraries/XMCLib/inc\xmc_scu.h ****  \if XMC4
 148:C:/Workspaces/DAVE-4.4.2-64Bit/Blinky_v2/Libraries/XMCLib/inc\xmc_scu.h ****  * -# Enables configuration of out of range comparator (ORC) XMC_SCU_EnableOutOfRangeComparator()
 149:C:/Workspaces/DAVE-4.4.2-64Bit/Blinky_v2/Libraries/XMCLib/inc\xmc_scu.h ****  * -# Enables configuration of die temperature sensor XMC_SCU_EnableTemperatureSensor(), XMC_SCU_Ca
 150:C:/Workspaces/DAVE-4.4.2-64Bit/Blinky_v2/Libraries/XMCLib/inc\xmc_scu.h ****  * -# Enables configuration of device boot mode XMC_SCU_SetBootMode()<br>
 151:C:/Workspaces/DAVE-4.4.2-64Bit/Blinky_v2/Libraries/XMCLib/inc\xmc_scu.h ****  \endif
 152:C:/Workspaces/DAVE-4.4.2-64Bit/Blinky_v2/Libraries/XMCLib/inc\xmc_scu.h ****  \if XMC1
 153:C:/Workspaces/DAVE-4.4.2-64Bit/Blinky_v2/Libraries/XMCLib/inc\xmc_scu.h ****  * -# Enables configuration of die temperature sensor XMC_SCU_StartTempMeasurement(), XMC_SCU_SetRa
 154:C:/Workspaces/DAVE-4.4.2-64Bit/Blinky_v2/Libraries/XMCLib/inc\xmc_scu.h ****  * -# Allows configuring supply monitor unit using the structure XMC_SCU_SUPPLYMONITOR_t and API XM
 155:C:/Workspaces/DAVE-4.4.2-64Bit/Blinky_v2/Libraries/XMCLib/inc\xmc_scu.h ****  * -# Allows handling of protected bits XMC_SCU_LockProtectedBits(), XMC_SCU_UnlockProtectedBits()<
 156:C:/Workspaces/DAVE-4.4.2-64Bit/Blinky_v2/Libraries/XMCLib/inc\xmc_scu.h ****  \endif
 157:C:/Workspaces/DAVE-4.4.2-64Bit/Blinky_v2/Libraries/XMCLib/inc\xmc_scu.h ****  * @{
 158:C:/Workspaces/DAVE-4.4.2-64Bit/Blinky_v2/Libraries/XMCLib/inc\xmc_scu.h ****  */
 159:C:/Workspaces/DAVE-4.4.2-64Bit/Blinky_v2/Libraries/XMCLib/inc\xmc_scu.h ****  
 160:C:/Workspaces/DAVE-4.4.2-64Bit/Blinky_v2/Libraries/XMCLib/inc\xmc_scu.h **** /**************************************************************************************************
 161:C:/Workspaces/DAVE-4.4.2-64Bit/Blinky_v2/Libraries/XMCLib/inc\xmc_scu.h ****  * MACROS
 162:C:/Workspaces/DAVE-4.4.2-64Bit/Blinky_v2/Libraries/XMCLib/inc\xmc_scu.h ****  **************************************************************************************************
 163:C:/Workspaces/DAVE-4.4.2-64Bit/Blinky_v2/Libraries/XMCLib/inc\xmc_scu.h **** 
 164:C:/Workspaces/DAVE-4.4.2-64Bit/Blinky_v2/Libraries/XMCLib/inc\xmc_scu.h **** /**************************************************************************************************
 165:C:/Workspaces/DAVE-4.4.2-64Bit/Blinky_v2/Libraries/XMCLib/inc\xmc_scu.h ****  * ENUMS
 166:C:/Workspaces/DAVE-4.4.2-64Bit/Blinky_v2/Libraries/XMCLib/inc\xmc_scu.h ****  **************************************************************************************************
 167:C:/Workspaces/DAVE-4.4.2-64Bit/Blinky_v2/Libraries/XMCLib/inc\xmc_scu.h **** /**
 168:C:/Workspaces/DAVE-4.4.2-64Bit/Blinky_v2/Libraries/XMCLib/inc\xmc_scu.h ****  *  Defines the status of SCU API execution, used to verify the SCU related API calls.
 169:C:/Workspaces/DAVE-4.4.2-64Bit/Blinky_v2/Libraries/XMCLib/inc\xmc_scu.h ****  */
 170:C:/Workspaces/DAVE-4.4.2-64Bit/Blinky_v2/Libraries/XMCLib/inc\xmc_scu.h **** typedef enum XMC_SCU_STATUS 
 171:C:/Workspaces/DAVE-4.4.2-64Bit/Blinky_v2/Libraries/XMCLib/inc\xmc_scu.h **** {
 172:C:/Workspaces/DAVE-4.4.2-64Bit/Blinky_v2/Libraries/XMCLib/inc\xmc_scu.h ****   XMC_SCU_STATUS_OK   = 0UL, /**< SCU related operation successfully completed.*/
 173:C:/Workspaces/DAVE-4.4.2-64Bit/Blinky_v2/Libraries/XMCLib/inc\xmc_scu.h ****   XMC_SCU_STATUS_ERROR,      /**< SCU related operation failed. When API cannot fulfill request, th
 174:C:/Workspaces/DAVE-4.4.2-64Bit/Blinky_v2/Libraries/XMCLib/inc\xmc_scu.h ****   XMC_SCU_STATUS_BUSY,       /**< Cannot execute the SCU related operation request because
 175:C:/Workspaces/DAVE-4.4.2-64Bit/Blinky_v2/Libraries/XMCLib/inc\xmc_scu.h ****                                   another operation is in progress. \a XMC_SCU_STATUS_BUSY is retur
 176:C:/Workspaces/DAVE-4.4.2-64Bit/Blinky_v2/Libraries/XMCLib/inc\xmc_scu.h ****                                   processing another request. */
 177:C:/Workspaces/DAVE-4.4.2-64Bit/Blinky_v2/Libraries/XMCLib/inc\xmc_scu.h **** } XMC_SCU_STATUS_t;
 178:C:/Workspaces/DAVE-4.4.2-64Bit/Blinky_v2/Libraries/XMCLib/inc\xmc_scu.h **** 
 179:C:/Workspaces/DAVE-4.4.2-64Bit/Blinky_v2/Libraries/XMCLib/inc\xmc_scu.h **** 
 180:C:/Workspaces/DAVE-4.4.2-64Bit/Blinky_v2/Libraries/XMCLib/inc\xmc_scu.h **** /**************************************************************************************************
 181:C:/Workspaces/DAVE-4.4.2-64Bit/Blinky_v2/Libraries/XMCLib/inc\xmc_scu.h ****  * DATA TYPES
 182:C:/Workspaces/DAVE-4.4.2-64Bit/Blinky_v2/Libraries/XMCLib/inc\xmc_scu.h ****  **************************************************************************************************
 183:C:/Workspaces/DAVE-4.4.2-64Bit/Blinky_v2/Libraries/XMCLib/inc\xmc_scu.h **** 
 184:C:/Workspaces/DAVE-4.4.2-64Bit/Blinky_v2/Libraries/XMCLib/inc\xmc_scu.h **** /**
 185:C:/Workspaces/DAVE-4.4.2-64Bit/Blinky_v2/Libraries/XMCLib/inc\xmc_scu.h ****  * Function pointer type used for registering callback functions on SCU event occurrence.
 186:C:/Workspaces/DAVE-4.4.2-64Bit/Blinky_v2/Libraries/XMCLib/inc\xmc_scu.h ****  */
 187:C:/Workspaces/DAVE-4.4.2-64Bit/Blinky_v2/Libraries/XMCLib/inc\xmc_scu.h **** typedef void (*XMC_SCU_INTERRUPT_EVENT_HANDLER_t)(void);
 188:C:/Workspaces/DAVE-4.4.2-64Bit/Blinky_v2/Libraries/XMCLib/inc\xmc_scu.h **** 
 189:C:/Workspaces/DAVE-4.4.2-64Bit/Blinky_v2/Libraries/XMCLib/inc\xmc_scu.h **** /**************************************************************************************************
 190:C:/Workspaces/DAVE-4.4.2-64Bit/Blinky_v2/Libraries/XMCLib/inc\xmc_scu.h ****  * DEVICE EXTENSIONS
 191:C:/Workspaces/DAVE-4.4.2-64Bit/Blinky_v2/Libraries/XMCLib/inc\xmc_scu.h ****  **************************************************************************************************
 192:C:/Workspaces/DAVE-4.4.2-64Bit/Blinky_v2/Libraries/XMCLib/inc\xmc_scu.h **** 
 193:C:/Workspaces/DAVE-4.4.2-64Bit/Blinky_v2/Libraries/XMCLib/inc\xmc_scu.h **** #if (UC_FAMILY == XMC1)
 194:C:/Workspaces/DAVE-4.4.2-64Bit/Blinky_v2/Libraries/XMCLib/inc\xmc_scu.h **** #include <xmc1_scu.h>
 195:C:/Workspaces/DAVE-4.4.2-64Bit/Blinky_v2/Libraries/XMCLib/inc\xmc_scu.h **** #elif (UC_FAMILY == XMC4)
 196:C:/Workspaces/DAVE-4.4.2-64Bit/Blinky_v2/Libraries/XMCLib/inc\xmc_scu.h **** #include <xmc4_scu.h>
 197:C:/Workspaces/DAVE-4.4.2-64Bit/Blinky_v2/Libraries/XMCLib/inc\xmc_scu.h **** #else
 198:C:/Workspaces/DAVE-4.4.2-64Bit/Blinky_v2/Libraries/XMCLib/inc\xmc_scu.h **** #error "Unspecified chipset"
 199:C:/Workspaces/DAVE-4.4.2-64Bit/Blinky_v2/Libraries/XMCLib/inc\xmc_scu.h **** #endif
 200:C:/Workspaces/DAVE-4.4.2-64Bit/Blinky_v2/Libraries/XMCLib/inc\xmc_scu.h **** 
 201:C:/Workspaces/DAVE-4.4.2-64Bit/Blinky_v2/Libraries/XMCLib/inc\xmc_scu.h **** /**************************************************************************************************
 202:C:/Workspaces/DAVE-4.4.2-64Bit/Blinky_v2/Libraries/XMCLib/inc\xmc_scu.h ****  * API Prototypes
 203:C:/Workspaces/DAVE-4.4.2-64Bit/Blinky_v2/Libraries/XMCLib/inc\xmc_scu.h ****  **************************************************************************************************
 204:C:/Workspaces/DAVE-4.4.2-64Bit/Blinky_v2/Libraries/XMCLib/inc\xmc_scu.h **** 
 205:C:/Workspaces/DAVE-4.4.2-64Bit/Blinky_v2/Libraries/XMCLib/inc\xmc_scu.h **** #ifdef __cplusplus
 206:C:/Workspaces/DAVE-4.4.2-64Bit/Blinky_v2/Libraries/XMCLib/inc\xmc_scu.h **** extern "C" {
 207:C:/Workspaces/DAVE-4.4.2-64Bit/Blinky_v2/Libraries/XMCLib/inc\xmc_scu.h **** #endif
 208:C:/Workspaces/DAVE-4.4.2-64Bit/Blinky_v2/Libraries/XMCLib/inc\xmc_scu.h **** 
 209:C:/Workspaces/DAVE-4.4.2-64Bit/Blinky_v2/Libraries/XMCLib/inc\xmc_scu.h **** 
 210:C:/Workspaces/DAVE-4.4.2-64Bit/Blinky_v2/Libraries/XMCLib/inc\xmc_scu.h **** /**
 211:C:/Workspaces/DAVE-4.4.2-64Bit/Blinky_v2/Libraries/XMCLib/inc\xmc_scu.h ****  *
 212:C:/Workspaces/DAVE-4.4.2-64Bit/Blinky_v2/Libraries/XMCLib/inc\xmc_scu.h ****  * @param trigger    CCU slices to be triggered synchronously via software. The value is a bitmask 
 213:C:/Workspaces/DAVE-4.4.2-64Bit/Blinky_v2/Libraries/XMCLib/inc\xmc_scu.h ****  *                    in the register CCUCON. <br>
 214:C:/Workspaces/DAVE-4.4.2-64Bit/Blinky_v2/Libraries/XMCLib/inc\xmc_scu.h ****  *                    \b Range: Use type @ref XMC_SCU_CCU_TRIGGER_t for bitmask of individual CCU s
 215:C:/Workspaces/DAVE-4.4.2-64Bit/Blinky_v2/Libraries/XMCLib/inc\xmc_scu.h ****  *                    combined using \a OR operation.
 216:C:/Workspaces/DAVE-4.4.2-64Bit/Blinky_v2/Libraries/XMCLib/inc\xmc_scu.h ****  *
 217:C:/Workspaces/DAVE-4.4.2-64Bit/Blinky_v2/Libraries/XMCLib/inc\xmc_scu.h ****  * @return None
 218:C:/Workspaces/DAVE-4.4.2-64Bit/Blinky_v2/Libraries/XMCLib/inc\xmc_scu.h ****  *
 219:C:/Workspaces/DAVE-4.4.2-64Bit/Blinky_v2/Libraries/XMCLib/inc\xmc_scu.h ****  * \par<b>Description</b><br>
 220:C:/Workspaces/DAVE-4.4.2-64Bit/Blinky_v2/Libraries/XMCLib/inc\xmc_scu.h ****  * Generates active edge(low to high) trigger for multiple CCU units at the same time.\n\n
 221:C:/Workspaces/DAVE-4.4.2-64Bit/Blinky_v2/Libraries/XMCLib/inc\xmc_scu.h ****  * Before executing this API, all the required CCU timers should configure external start.
 222:C:/Workspaces/DAVE-4.4.2-64Bit/Blinky_v2/Libraries/XMCLib/inc\xmc_scu.h ****  * The edge of the start signal should be selected as active edge.
 223:C:/Workspaces/DAVE-4.4.2-64Bit/Blinky_v2/Libraries/XMCLib/inc\xmc_scu.h ****  * The input signal for the CCU slice should be selected as SCU input.
 224:C:/Workspaces/DAVE-4.4.2-64Bit/Blinky_v2/Libraries/XMCLib/inc\xmc_scu.h ****  * The above mentioned configurations can be made using the CCU LLD API XMC_CCU4_SLICE_StartConfig(
 225:C:/Workspaces/DAVE-4.4.2-64Bit/Blinky_v2/Libraries/XMCLib/inc\xmc_scu.h ****  * CCU timer slice should be started using XMC_CCU4_SLICE_StartTimer() before triggering 
 226:C:/Workspaces/DAVE-4.4.2-64Bit/Blinky_v2/Libraries/XMCLib/inc\xmc_scu.h ****  * the timer using this API.<BR>
 227:C:/Workspaces/DAVE-4.4.2-64Bit/Blinky_v2/Libraries/XMCLib/inc\xmc_scu.h ****  * \par<b>Related APIs:</b><BR>
 228:C:/Workspaces/DAVE-4.4.2-64Bit/Blinky_v2/Libraries/XMCLib/inc\xmc_scu.h ****  * XMC_CCU4_SLICE_StartConfig(), XMC_CCU4_SLICE_SetInput(), XMC_SCU_SetCcuTriggerLow()\n\n\n
 229:C:/Workspaces/DAVE-4.4.2-64Bit/Blinky_v2/Libraries/XMCLib/inc\xmc_scu.h ****  */
 230:C:/Workspaces/DAVE-4.4.2-64Bit/Blinky_v2/Libraries/XMCLib/inc\xmc_scu.h **** __STATIC_INLINE void XMC_SCU_SetCcuTriggerHigh(const uint32_t trigger)
 231:C:/Workspaces/DAVE-4.4.2-64Bit/Blinky_v2/Libraries/XMCLib/inc\xmc_scu.h **** {
 232:C:/Workspaces/DAVE-4.4.2-64Bit/Blinky_v2/Libraries/XMCLib/inc\xmc_scu.h ****   SCU_GENERAL->CCUCON |= (uint32_t)trigger;
 233:C:/Workspaces/DAVE-4.4.2-64Bit/Blinky_v2/Libraries/XMCLib/inc\xmc_scu.h **** }
 234:C:/Workspaces/DAVE-4.4.2-64Bit/Blinky_v2/Libraries/XMCLib/inc\xmc_scu.h **** 
 235:C:/Workspaces/DAVE-4.4.2-64Bit/Blinky_v2/Libraries/XMCLib/inc\xmc_scu.h **** /**
 236:C:/Workspaces/DAVE-4.4.2-64Bit/Blinky_v2/Libraries/XMCLib/inc\xmc_scu.h ****  *
 237:C:/Workspaces/DAVE-4.4.2-64Bit/Blinky_v2/Libraries/XMCLib/inc\xmc_scu.h ****  * @param trigger  CCU slices to be triggered synchronously via software. The value is a bitmask of
 238:C:/Workspaces/DAVE-4.4.2-64Bit/Blinky_v2/Libraries/XMCLib/inc\xmc_scu.h ****  *                    in the register CCUCON. <br>
 239:C:/Workspaces/DAVE-4.4.2-64Bit/Blinky_v2/Libraries/XMCLib/inc\xmc_scu.h ****  *                    \b Range: Use type @ref XMC_SCU_CCU_TRIGGER_t for bitmask of individual CCU s
 240:C:/Workspaces/DAVE-4.4.2-64Bit/Blinky_v2/Libraries/XMCLib/inc\xmc_scu.h ****  *                    combined using \a OR operation.
 241:C:/Workspaces/DAVE-4.4.2-64Bit/Blinky_v2/Libraries/XMCLib/inc\xmc_scu.h ****  *
 242:C:/Workspaces/DAVE-4.4.2-64Bit/Blinky_v2/Libraries/XMCLib/inc\xmc_scu.h ****  * @return None
 243:C:/Workspaces/DAVE-4.4.2-64Bit/Blinky_v2/Libraries/XMCLib/inc\xmc_scu.h ****  *
 244:C:/Workspaces/DAVE-4.4.2-64Bit/Blinky_v2/Libraries/XMCLib/inc\xmc_scu.h ****  * \par<b>Description</b><br>
 245:C:/Workspaces/DAVE-4.4.2-64Bit/Blinky_v2/Libraries/XMCLib/inc\xmc_scu.h ****  * Generates passive edge(high to low) trigger for multiple CCU units at the same time.\n\n
 246:C:/Workspaces/DAVE-4.4.2-64Bit/Blinky_v2/Libraries/XMCLib/inc\xmc_scu.h ****  * Before executing this API, all the required CCU timers should configure external start.
 247:C:/Workspaces/DAVE-4.4.2-64Bit/Blinky_v2/Libraries/XMCLib/inc\xmc_scu.h ****  * The edge of the start signal should be selected as passive edge.
 248:C:/Workspaces/DAVE-4.4.2-64Bit/Blinky_v2/Libraries/XMCLib/inc\xmc_scu.h ****  * The input signal for the CCU slice should be selected as SCU input.
 249:C:/Workspaces/DAVE-4.4.2-64Bit/Blinky_v2/Libraries/XMCLib/inc\xmc_scu.h ****  * The above mentioned configurations can be made using the CCU LLD API XMC_CCU4_SLICE_StartConfig(
 250:C:/Workspaces/DAVE-4.4.2-64Bit/Blinky_v2/Libraries/XMCLib/inc\xmc_scu.h ****  * CCU timer slice should be started using XMC_CCU4_SLICE_StartTimer() before triggering 
 251:C:/Workspaces/DAVE-4.4.2-64Bit/Blinky_v2/Libraries/XMCLib/inc\xmc_scu.h ****  * the timer using this API.<BR>
 252:C:/Workspaces/DAVE-4.4.2-64Bit/Blinky_v2/Libraries/XMCLib/inc\xmc_scu.h ****  * \par<b>Related APIs:</b><BR>
 253:C:/Workspaces/DAVE-4.4.2-64Bit/Blinky_v2/Libraries/XMCLib/inc\xmc_scu.h ****  * XMC_CCU4_SLICE_StartConfig(), XMC_CCU4_SLICE_SetInput(), XMC_SCU_SetCcuTriggerHigh()\n\n\n
 254:C:/Workspaces/DAVE-4.4.2-64Bit/Blinky_v2/Libraries/XMCLib/inc\xmc_scu.h ****  */
 255:C:/Workspaces/DAVE-4.4.2-64Bit/Blinky_v2/Libraries/XMCLib/inc\xmc_scu.h **** __STATIC_INLINE void XMC_SCU_SetCcuTriggerLow(const uint32_t trigger)
 256:C:/Workspaces/DAVE-4.4.2-64Bit/Blinky_v2/Libraries/XMCLib/inc\xmc_scu.h **** {
 257:C:/Workspaces/DAVE-4.4.2-64Bit/Blinky_v2/Libraries/XMCLib/inc\xmc_scu.h ****   SCU_GENERAL->CCUCON &= (uint32_t)~trigger;
 258:C:/Workspaces/DAVE-4.4.2-64Bit/Blinky_v2/Libraries/XMCLib/inc\xmc_scu.h **** }
 259:C:/Workspaces/DAVE-4.4.2-64Bit/Blinky_v2/Libraries/XMCLib/inc\xmc_scu.h **** 
 260:C:/Workspaces/DAVE-4.4.2-64Bit/Blinky_v2/Libraries/XMCLib/inc\xmc_scu.h **** /**
 261:C:/Workspaces/DAVE-4.4.2-64Bit/Blinky_v2/Libraries/XMCLib/inc\xmc_scu.h ****  *
 262:C:/Workspaces/DAVE-4.4.2-64Bit/Blinky_v2/Libraries/XMCLib/inc\xmc_scu.h ****  * @param config Pointer to structure holding the clock prescaler values and divider values for 
 263:C:/Workspaces/DAVE-4.4.2-64Bit/Blinky_v2/Libraries/XMCLib/inc\xmc_scu.h ****  *                configuring clock generators and clock tree.\n
 264:C:/Workspaces/DAVE-4.4.2-64Bit/Blinky_v2/Libraries/XMCLib/inc\xmc_scu.h ****  *                \b Range: Configure the members of structure @ref XMC_SCU_CLOCK_CONFIG_t for vari
 265:C:/Workspaces/DAVE-4.4.2-64Bit/Blinky_v2/Libraries/XMCLib/inc\xmc_scu.h ****  *                parameters of clock setup.
 266:C:/Workspaces/DAVE-4.4.2-64Bit/Blinky_v2/Libraries/XMCLib/inc\xmc_scu.h ****  *
 267:C:/Workspaces/DAVE-4.4.2-64Bit/Blinky_v2/Libraries/XMCLib/inc\xmc_scu.h ****  * @return None
 268:C:/Workspaces/DAVE-4.4.2-64Bit/Blinky_v2/Libraries/XMCLib/inc\xmc_scu.h ****  *
 269:C:/Workspaces/DAVE-4.4.2-64Bit/Blinky_v2/Libraries/XMCLib/inc\xmc_scu.h ****  * \par<b>Description</b><br>
 270:C:/Workspaces/DAVE-4.4.2-64Bit/Blinky_v2/Libraries/XMCLib/inc\xmc_scu.h ****  * Initializes clock generators and clock tree.\n\n
 271:C:/Workspaces/DAVE-4.4.2-64Bit/Blinky_v2/Libraries/XMCLib/inc\xmc_scu.h ****  * \if XMC1
 272:C:/Workspaces/DAVE-4.4.2-64Bit/Blinky_v2/Libraries/XMCLib/inc\xmc_scu.h ****  * Peripheral clock and system clock are configured based on the input configuration \a config.
 273:C:/Workspaces/DAVE-4.4.2-64Bit/Blinky_v2/Libraries/XMCLib/inc\xmc_scu.h ****  * The system clock frequency is tuned by configuring the FDIV and IDIV values of CLKCR register.
 274:C:/Workspaces/DAVE-4.4.2-64Bit/Blinky_v2/Libraries/XMCLib/inc\xmc_scu.h ****  * The values of FDIV and IDIV can be provided as part of input configuration.
 275:C:/Workspaces/DAVE-4.4.2-64Bit/Blinky_v2/Libraries/XMCLib/inc\xmc_scu.h ****  * The PCLK divider determines the ratio of peripheral clock to the system clock. 
 276:C:/Workspaces/DAVE-4.4.2-64Bit/Blinky_v2/Libraries/XMCLib/inc\xmc_scu.h ****  * The source of RTC clock is set based on the input configuration. 
 277:C:/Workspaces/DAVE-4.4.2-64Bit/Blinky_v2/Libraries/XMCLib/inc\xmc_scu.h ****  * \a SystemCoreClock variable will be updated with the value of
 278:C:/Workspaces/DAVE-4.4.2-64Bit/Blinky_v2/Libraries/XMCLib/inc\xmc_scu.h ****  * system clock frequency. Access to protected bit fields are handled internally.
 279:C:/Workspaces/DAVE-4.4.2-64Bit/Blinky_v2/Libraries/XMCLib/inc\xmc_scu.h ****  * \endif
 280:C:/Workspaces/DAVE-4.4.2-64Bit/Blinky_v2/Libraries/XMCLib/inc\xmc_scu.h ****  * \if XMC4
 281:C:/Workspaces/DAVE-4.4.2-64Bit/Blinky_v2/Libraries/XMCLib/inc\xmc_scu.h ****  * Enables the high precision oscillator(fOHP) input and configures the system and peripheral clock
 282:C:/Workspaces/DAVE-4.4.2-64Bit/Blinky_v2/Libraries/XMCLib/inc\xmc_scu.h ****  * Based on the system clock source selected in \a config, either fPLL or fOFI will be chosen as sy
 283:C:/Workspaces/DAVE-4.4.2-64Bit/Blinky_v2/Libraries/XMCLib/inc\xmc_scu.h ****  * Based on PLL mode(normal or prescaler mode) used, PLL ramps up in steps to achieve target freque
 284:C:/Workspaces/DAVE-4.4.2-64Bit/Blinky_v2/Libraries/XMCLib/inc\xmc_scu.h ****  * The clock dividers for CPU, CCU and peripheral clocks will be set based on the input configurati
 285:C:/Workspaces/DAVE-4.4.2-64Bit/Blinky_v2/Libraries/XMCLib/inc\xmc_scu.h ****  * The \a SystemCoreClock variable is set with the value of system clock frequency.
 286:C:/Workspaces/DAVE-4.4.2-64Bit/Blinky_v2/Libraries/XMCLib/inc\xmc_scu.h ****  * \endif
 287:C:/Workspaces/DAVE-4.4.2-64Bit/Blinky_v2/Libraries/XMCLib/inc\xmc_scu.h ****  * \par<b>Related APIs:</b><BR>
 288:C:/Workspaces/DAVE-4.4.2-64Bit/Blinky_v2/Libraries/XMCLib/inc\xmc_scu.h ****  * XMC_SCU_CLOCK_GetPeripheralClockFrequency(), XMC_SCU_CLOCK_GetCpuClockFrequency() \n\n\n
 289:C:/Workspaces/DAVE-4.4.2-64Bit/Blinky_v2/Libraries/XMCLib/inc\xmc_scu.h ****  */
 290:C:/Workspaces/DAVE-4.4.2-64Bit/Blinky_v2/Libraries/XMCLib/inc\xmc_scu.h **** void XMC_SCU_CLOCK_Init(const XMC_SCU_CLOCK_CONFIG_t *const config);
 291:C:/Workspaces/DAVE-4.4.2-64Bit/Blinky_v2/Libraries/XMCLib/inc\xmc_scu.h **** 
 292:C:/Workspaces/DAVE-4.4.2-64Bit/Blinky_v2/Libraries/XMCLib/inc\xmc_scu.h **** /**
 293:C:/Workspaces/DAVE-4.4.2-64Bit/Blinky_v2/Libraries/XMCLib/inc\xmc_scu.h ****  *
 294:C:/Workspaces/DAVE-4.4.2-64Bit/Blinky_v2/Libraries/XMCLib/inc\xmc_scu.h ****  * @param event  Bit mask of the event to enable. \b Range: Use type @ref XMC_SCU_INTERRUPT_EVENT_t
 295:C:/Workspaces/DAVE-4.4.2-64Bit/Blinky_v2/Libraries/XMCLib/inc\xmc_scu.h ****  *                for providing the input value. Multiple events can be combined using the \a OR op
 296:C:/Workspaces/DAVE-4.4.2-64Bit/Blinky_v2/Libraries/XMCLib/inc\xmc_scu.h ****  *
 297:C:/Workspaces/DAVE-4.4.2-64Bit/Blinky_v2/Libraries/XMCLib/inc\xmc_scu.h ****  * @return None
 298:C:/Workspaces/DAVE-4.4.2-64Bit/Blinky_v2/Libraries/XMCLib/inc\xmc_scu.h ****  *
 299:C:/Workspaces/DAVE-4.4.2-64Bit/Blinky_v2/Libraries/XMCLib/inc\xmc_scu.h ****  * \par<b>Description</b><br>
 300:C:/Workspaces/DAVE-4.4.2-64Bit/Blinky_v2/Libraries/XMCLib/inc\xmc_scu.h ****  * Enables the generation of interrupt for the input events.\n\n
 301:C:/Workspaces/DAVE-4.4.2-64Bit/Blinky_v2/Libraries/XMCLib/inc\xmc_scu.h ****  * The events are enabled by setting the respective bit fields in the SRMSK register. \n
 302:C:/Workspaces/DAVE-4.4.2-64Bit/Blinky_v2/Libraries/XMCLib/inc\xmc_scu.h ****  * Note: User should separately enable the NVIC node responsible for handling the SCU interrupt.
 303:C:/Workspaces/DAVE-4.4.2-64Bit/Blinky_v2/Libraries/XMCLib/inc\xmc_scu.h ****  * The interrupt will be generated when the respective event occurs.
 304:C:/Workspaces/DAVE-4.4.2-64Bit/Blinky_v2/Libraries/XMCLib/inc\xmc_scu.h ****  * \par<b>Related APIs:</b><BR>
 305:C:/Workspaces/DAVE-4.4.2-64Bit/Blinky_v2/Libraries/XMCLib/inc\xmc_scu.h ****  * NVIC_EnableIRQ(), XMC_SCU_INTERRUPT_DisableEvent()\n\n\n
 306:C:/Workspaces/DAVE-4.4.2-64Bit/Blinky_v2/Libraries/XMCLib/inc\xmc_scu.h ****  */
 307:C:/Workspaces/DAVE-4.4.2-64Bit/Blinky_v2/Libraries/XMCLib/inc\xmc_scu.h **** void XMC_SCU_INTERRUPT_EnableEvent(const XMC_SCU_INTERRUPT_EVENT_t event);
 308:C:/Workspaces/DAVE-4.4.2-64Bit/Blinky_v2/Libraries/XMCLib/inc\xmc_scu.h **** 
 309:C:/Workspaces/DAVE-4.4.2-64Bit/Blinky_v2/Libraries/XMCLib/inc\xmc_scu.h **** 
 310:C:/Workspaces/DAVE-4.4.2-64Bit/Blinky_v2/Libraries/XMCLib/inc\xmc_scu.h **** /**
 311:C:/Workspaces/DAVE-4.4.2-64Bit/Blinky_v2/Libraries/XMCLib/inc\xmc_scu.h ****  *
 312:C:/Workspaces/DAVE-4.4.2-64Bit/Blinky_v2/Libraries/XMCLib/inc\xmc_scu.h ****  * @param event  Bit mask of the event to disable. \b Range: Use type @ref XMC_SCU_INTERRUPT_EVENT_
 313:C:/Workspaces/DAVE-4.4.2-64Bit/Blinky_v2/Libraries/XMCLib/inc\xmc_scu.h ****  *                for providing the input value. Multiple events can be combined using the \a OR op
 314:C:/Workspaces/DAVE-4.4.2-64Bit/Blinky_v2/Libraries/XMCLib/inc\xmc_scu.h ****  *
 315:C:/Workspaces/DAVE-4.4.2-64Bit/Blinky_v2/Libraries/XMCLib/inc\xmc_scu.h ****  * @return None
 316:C:/Workspaces/DAVE-4.4.2-64Bit/Blinky_v2/Libraries/XMCLib/inc\xmc_scu.h ****  *
 317:C:/Workspaces/DAVE-4.4.2-64Bit/Blinky_v2/Libraries/XMCLib/inc\xmc_scu.h ****  * \par<b>Description</b><br>
 318:C:/Workspaces/DAVE-4.4.2-64Bit/Blinky_v2/Libraries/XMCLib/inc\xmc_scu.h ****  * Disables generation of interrupt on occurrence of the input event.\n\n
 319:C:/Workspaces/DAVE-4.4.2-64Bit/Blinky_v2/Libraries/XMCLib/inc\xmc_scu.h ****  * The events are disabled by resetting the respective bit fields in the SRMSK register. \n
 320:C:/Workspaces/DAVE-4.4.2-64Bit/Blinky_v2/Libraries/XMCLib/inc\xmc_scu.h ****  * \par<b>Related APIs:</b><BR>
 321:C:/Workspaces/DAVE-4.4.2-64Bit/Blinky_v2/Libraries/XMCLib/inc\xmc_scu.h ****  * NVIC_DisableIRQ(), XMC_SCU_INTERRUPT_EnableEvent()\n\n\n
 322:C:/Workspaces/DAVE-4.4.2-64Bit/Blinky_v2/Libraries/XMCLib/inc\xmc_scu.h ****  */
 323:C:/Workspaces/DAVE-4.4.2-64Bit/Blinky_v2/Libraries/XMCLib/inc\xmc_scu.h **** void XMC_SCU_INTERRUPT_DisableEvent(const XMC_SCU_INTERRUPT_EVENT_t event);
 324:C:/Workspaces/DAVE-4.4.2-64Bit/Blinky_v2/Libraries/XMCLib/inc\xmc_scu.h **** 
 325:C:/Workspaces/DAVE-4.4.2-64Bit/Blinky_v2/Libraries/XMCLib/inc\xmc_scu.h **** /**
 326:C:/Workspaces/DAVE-4.4.2-64Bit/Blinky_v2/Libraries/XMCLib/inc\xmc_scu.h ****  *
 327:C:/Workspaces/DAVE-4.4.2-64Bit/Blinky_v2/Libraries/XMCLib/inc\xmc_scu.h ****  * @param event Bit mask of the event to be triggered. \b Range: Use type @ref XMC_SCU_INTERRUPT_EV
 328:C:/Workspaces/DAVE-4.4.2-64Bit/Blinky_v2/Libraries/XMCLib/inc\xmc_scu.h ****  *                for providing the input value. Multiple events can be combined using the \a OR op
 329:C:/Workspaces/DAVE-4.4.2-64Bit/Blinky_v2/Libraries/XMCLib/inc\xmc_scu.h ****  *
 330:C:/Workspaces/DAVE-4.4.2-64Bit/Blinky_v2/Libraries/XMCLib/inc\xmc_scu.h ****  * @return None
 331:C:/Workspaces/DAVE-4.4.2-64Bit/Blinky_v2/Libraries/XMCLib/inc\xmc_scu.h ****  *
 332:C:/Workspaces/DAVE-4.4.2-64Bit/Blinky_v2/Libraries/XMCLib/inc\xmc_scu.h ****  * \par<b>Description</b><br>
 333:C:/Workspaces/DAVE-4.4.2-64Bit/Blinky_v2/Libraries/XMCLib/inc\xmc_scu.h ****  * Triggers the event as if the hardware raised it.\n\n
 334:C:/Workspaces/DAVE-4.4.2-64Bit/Blinky_v2/Libraries/XMCLib/inc\xmc_scu.h ****  * Event will be triggered by setting the respective bitfield in the SRSET register.\n
 335:C:/Workspaces/DAVE-4.4.2-64Bit/Blinky_v2/Libraries/XMCLib/inc\xmc_scu.h ****  * Note: User should enable the NVIC node that handles the respective event for interrupt generatio
 336:C:/Workspaces/DAVE-4.4.2-64Bit/Blinky_v2/Libraries/XMCLib/inc\xmc_scu.h ****  * \par<b>Related APIs:</b><BR>
 337:C:/Workspaces/DAVE-4.4.2-64Bit/Blinky_v2/Libraries/XMCLib/inc\xmc_scu.h ****  * NVIC_EnableIRQ(), XMC_SCU_INTERUPT_GetEventStatus(), XMC_SCU_INTERRUPT_ClearEventStatus() \n\n\n
 338:C:/Workspaces/DAVE-4.4.2-64Bit/Blinky_v2/Libraries/XMCLib/inc\xmc_scu.h ****  */
 339:C:/Workspaces/DAVE-4.4.2-64Bit/Blinky_v2/Libraries/XMCLib/inc\xmc_scu.h **** void XMC_SCU_INTERRUPT_TriggerEvent(const XMC_SCU_INTERRUPT_EVENT_t  event);
 340:C:/Workspaces/DAVE-4.4.2-64Bit/Blinky_v2/Libraries/XMCLib/inc\xmc_scu.h **** 
 341:C:/Workspaces/DAVE-4.4.2-64Bit/Blinky_v2/Libraries/XMCLib/inc\xmc_scu.h **** /**
 342:C:/Workspaces/DAVE-4.4.2-64Bit/Blinky_v2/Libraries/XMCLib/inc\xmc_scu.h ****  * @return uint32_t  Status of the SCU events.
 343:C:/Workspaces/DAVE-4.4.2-64Bit/Blinky_v2/Libraries/XMCLib/inc\xmc_scu.h ****  *
 344:C:/Workspaces/DAVE-4.4.2-64Bit/Blinky_v2/Libraries/XMCLib/inc\xmc_scu.h ****  * \par<b>Description</b><br>
 345:C:/Workspaces/DAVE-4.4.2-64Bit/Blinky_v2/Libraries/XMCLib/inc\xmc_scu.h ****  * Provides the status of all SCU events.\n\n
 346:C:/Workspaces/DAVE-4.4.2-64Bit/Blinky_v2/Libraries/XMCLib/inc\xmc_scu.h ****  * The status is read from the SRRAW register. To check the status of a particular 
 347:C:/Workspaces/DAVE-4.4.2-64Bit/Blinky_v2/Libraries/XMCLib/inc\xmc_scu.h ****  * event, the returned value should be masked with the bit mask of the event. The bitmask
 348:C:/Workspaces/DAVE-4.4.2-64Bit/Blinky_v2/Libraries/XMCLib/inc\xmc_scu.h ****  * of events can be obtained using the type @ref XMC_SCU_INTERRUPT_EVENT_t. Multiple events'
 349:C:/Workspaces/DAVE-4.4.2-64Bit/Blinky_v2/Libraries/XMCLib/inc\xmc_scu.h ****  * status can be checked by combining the bit masks using \a OR operation. 
 350:C:/Workspaces/DAVE-4.4.2-64Bit/Blinky_v2/Libraries/XMCLib/inc\xmc_scu.h ****  * After detecting the event, the event status should be cleared using software to detect the event
 351:C:/Workspaces/DAVE-4.4.2-64Bit/Blinky_v2/Libraries/XMCLib/inc\xmc_scu.h ****  * \par<b>Related APIs:</b><BR>
 352:C:/Workspaces/DAVE-4.4.2-64Bit/Blinky_v2/Libraries/XMCLib/inc\xmc_scu.h ****  * XMC_SCU_INTERRUPT_ClearEventStatus(), XMC_SCU_INTERRUPT_TriggerEvent(), XMC_SCU_INTERRUPT_SetEve
 353:C:/Workspaces/DAVE-4.4.2-64Bit/Blinky_v2/Libraries/XMCLib/inc\xmc_scu.h ****  */
 354:C:/Workspaces/DAVE-4.4.2-64Bit/Blinky_v2/Libraries/XMCLib/inc\xmc_scu.h **** XMC_SCU_INTERRUPT_EVENT_t XMC_SCU_INTERUPT_GetEventStatus(void);
 355:C:/Workspaces/DAVE-4.4.2-64Bit/Blinky_v2/Libraries/XMCLib/inc\xmc_scu.h **** 
 356:C:/Workspaces/DAVE-4.4.2-64Bit/Blinky_v2/Libraries/XMCLib/inc\xmc_scu.h **** /**
 357:C:/Workspaces/DAVE-4.4.2-64Bit/Blinky_v2/Libraries/XMCLib/inc\xmc_scu.h ****  *
 358:C:/Workspaces/DAVE-4.4.2-64Bit/Blinky_v2/Libraries/XMCLib/inc\xmc_scu.h ****  * @param event  Bit mask of the events to clear. \b Range: Use type @ref XMC_SCU_INTERRUPT_EVENT_t
 359:C:/Workspaces/DAVE-4.4.2-64Bit/Blinky_v2/Libraries/XMCLib/inc\xmc_scu.h ****  *                for providing the input value. Multiple events can be combined using the \a OR op
 360:C:/Workspaces/DAVE-4.4.2-64Bit/Blinky_v2/Libraries/XMCLib/inc\xmc_scu.h ****  *
 361:C:/Workspaces/DAVE-4.4.2-64Bit/Blinky_v2/Libraries/XMCLib/inc\xmc_scu.h ****  * @return None
 362:C:/Workspaces/DAVE-4.4.2-64Bit/Blinky_v2/Libraries/XMCLib/inc\xmc_scu.h ****  *
 363:C:/Workspaces/DAVE-4.4.2-64Bit/Blinky_v2/Libraries/XMCLib/inc\xmc_scu.h ****  * \par<b>Description</b><br>
 364:C:/Workspaces/DAVE-4.4.2-64Bit/Blinky_v2/Libraries/XMCLib/inc\xmc_scu.h ****  * Clears the event status bit in SRRAW register.\n\n
 365:C:/Workspaces/DAVE-4.4.2-64Bit/Blinky_v2/Libraries/XMCLib/inc\xmc_scu.h ****  * The events are cleared by writing value 1 to their bit positions in the SRCLR register.
 366:C:/Workspaces/DAVE-4.4.2-64Bit/Blinky_v2/Libraries/XMCLib/inc\xmc_scu.h ****  * The API can be used when polling method is used. After detecting the event, the event status
 367:C:/Workspaces/DAVE-4.4.2-64Bit/Blinky_v2/Libraries/XMCLib/inc\xmc_scu.h ****  * should be cleared using software to detect the event again.
 368:C:/Workspaces/DAVE-4.4.2-64Bit/Blinky_v2/Libraries/XMCLib/inc\xmc_scu.h ****  *
 369:C:/Workspaces/DAVE-4.4.2-64Bit/Blinky_v2/Libraries/XMCLib/inc\xmc_scu.h ****  * \par<b>Related APIs:</b><BR>
 370:C:/Workspaces/DAVE-4.4.2-64Bit/Blinky_v2/Libraries/XMCLib/inc\xmc_scu.h ****  * XMC_SCU_INTERUPT_GetEventStatus(), XMC_SCU_INTERRUPT_TriggerEvent() \n\n\n
 371:C:/Workspaces/DAVE-4.4.2-64Bit/Blinky_v2/Libraries/XMCLib/inc\xmc_scu.h ****  */
 372:C:/Workspaces/DAVE-4.4.2-64Bit/Blinky_v2/Libraries/XMCLib/inc\xmc_scu.h **** void XMC_SCU_INTERRUPT_ClearEventStatus(const XMC_SCU_INTERRUPT_EVENT_t event);
 373:C:/Workspaces/DAVE-4.4.2-64Bit/Blinky_v2/Libraries/XMCLib/inc\xmc_scu.h **** 
 374:C:/Workspaces/DAVE-4.4.2-64Bit/Blinky_v2/Libraries/XMCLib/inc\xmc_scu.h **** /**
 375:C:/Workspaces/DAVE-4.4.2-64Bit/Blinky_v2/Libraries/XMCLib/inc\xmc_scu.h ****  *
 376:C:/Workspaces/DAVE-4.4.2-64Bit/Blinky_v2/Libraries/XMCLib/inc\xmc_scu.h ****  * @return uint32_t  Status representing the reason for device reset.
 377:C:/Workspaces/DAVE-4.4.2-64Bit/Blinky_v2/Libraries/XMCLib/inc\xmc_scu.h ****  *
 378:C:/Workspaces/DAVE-4.4.2-64Bit/Blinky_v2/Libraries/XMCLib/inc\xmc_scu.h ****  * \par<b>Description</b><br>
 379:C:/Workspaces/DAVE-4.4.2-64Bit/Blinky_v2/Libraries/XMCLib/inc\xmc_scu.h ****  * Provides the value representing the reason for device reset.\n\n
 380:C:/Workspaces/DAVE-4.4.2-64Bit/Blinky_v2/Libraries/XMCLib/inc\xmc_scu.h ****  * The return value is an encoded word, which can indicate multiple reasons for the last reset. Eac
 381:C:/Workspaces/DAVE-4.4.2-64Bit/Blinky_v2/Libraries/XMCLib/inc\xmc_scu.h ****  * returned word is representative of a last reset cause. The returned value should be appropriatel
 382:C:/Workspaces/DAVE-4.4.2-64Bit/Blinky_v2/Libraries/XMCLib/inc\xmc_scu.h ****  * the cause of reset. 
 383:C:/Workspaces/DAVE-4.4.2-64Bit/Blinky_v2/Libraries/XMCLib/inc\xmc_scu.h ****  * The cause of the last reset gets automatically stored in 
 384:C:/Workspaces/DAVE-4.4.2-64Bit/Blinky_v2/Libraries/XMCLib/inc\xmc_scu.h ****  * the \a SCU_RSTSTAT register. The reset status shall be reset after each
 385:C:/Workspaces/DAVE-4.4.2-64Bit/Blinky_v2/Libraries/XMCLib/inc\xmc_scu.h ****  * startup in order to ensure consistent source indication after the next reset.
 386:C:/Workspaces/DAVE-4.4.2-64Bit/Blinky_v2/Libraries/XMCLib/inc\xmc_scu.h ****  * \b Range: The type @ref XMC_SCU_RESET_REASON_t can be used to get the bit masks of the reset cau
 387:C:/Workspaces/DAVE-4.4.2-64Bit/Blinky_v2/Libraries/XMCLib/inc\xmc_scu.h ****  *
 388:C:/Workspaces/DAVE-4.4.2-64Bit/Blinky_v2/Libraries/XMCLib/inc\xmc_scu.h ****  * \par<b>Related APIs:</b><BR>
 389:C:/Workspaces/DAVE-4.4.2-64Bit/Blinky_v2/Libraries/XMCLib/inc\xmc_scu.h ****  * XMC_SCU_RESET_ClearDeviceResetReason() \n\n\n
 390:C:/Workspaces/DAVE-4.4.2-64Bit/Blinky_v2/Libraries/XMCLib/inc\xmc_scu.h ****  */
 391:C:/Workspaces/DAVE-4.4.2-64Bit/Blinky_v2/Libraries/XMCLib/inc\xmc_scu.h **** __STATIC_INLINE uint32_t XMC_SCU_RESET_GetDeviceResetReason(void)
 392:C:/Workspaces/DAVE-4.4.2-64Bit/Blinky_v2/Libraries/XMCLib/inc\xmc_scu.h **** {
 393:C:/Workspaces/DAVE-4.4.2-64Bit/Blinky_v2/Libraries/XMCLib/inc\xmc_scu.h ****   return ((SCU_RESET->RSTSTAT) & SCU_RESET_RSTSTAT_RSTSTAT_Msk);
 394:C:/Workspaces/DAVE-4.4.2-64Bit/Blinky_v2/Libraries/XMCLib/inc\xmc_scu.h **** }
 395:C:/Workspaces/DAVE-4.4.2-64Bit/Blinky_v2/Libraries/XMCLib/inc\xmc_scu.h **** /**
 396:C:/Workspaces/DAVE-4.4.2-64Bit/Blinky_v2/Libraries/XMCLib/inc\xmc_scu.h ****  * @return None 
 397:C:/Workspaces/DAVE-4.4.2-64Bit/Blinky_v2/Libraries/XMCLib/inc\xmc_scu.h ****  *
 398:C:/Workspaces/DAVE-4.4.2-64Bit/Blinky_v2/Libraries/XMCLib/inc\xmc_scu.h ****  * \par<b>Description</b><br>
 399:C:/Workspaces/DAVE-4.4.2-64Bit/Blinky_v2/Libraries/XMCLib/inc\xmc_scu.h ****  * Clears the reset reason bits in the reset status register. \n\n
 400:C:/Workspaces/DAVE-4.4.2-64Bit/Blinky_v2/Libraries/XMCLib/inc\xmc_scu.h ****  * Clearing of the reset status information in the \a SCU_RSTSTAT register via register bit \a RSTC
 401:C:/Workspaces/DAVE-4.4.2-64Bit/Blinky_v2/Libraries/XMCLib/inc\xmc_scu.h ****  * recommended to ensure a clear indication of the cause of next reset.
 402:C:/Workspaces/DAVE-4.4.2-64Bit/Blinky_v2/Libraries/XMCLib/inc\xmc_scu.h ****  *
 403:C:/Workspaces/DAVE-4.4.2-64Bit/Blinky_v2/Libraries/XMCLib/inc\xmc_scu.h ****  * \par<b>Related APIs:</b><BR>
 404:C:/Workspaces/DAVE-4.4.2-64Bit/Blinky_v2/Libraries/XMCLib/inc\xmc_scu.h ****  * XMC_SCU_RESET_GetDeviceResetReason() \n\n\n
 405:C:/Workspaces/DAVE-4.4.2-64Bit/Blinky_v2/Libraries/XMCLib/inc\xmc_scu.h ****  */
 406:C:/Workspaces/DAVE-4.4.2-64Bit/Blinky_v2/Libraries/XMCLib/inc\xmc_scu.h **** __STATIC_INLINE void XMC_SCU_RESET_ClearDeviceResetReason(void)
 407:C:/Workspaces/DAVE-4.4.2-64Bit/Blinky_v2/Libraries/XMCLib/inc\xmc_scu.h **** {
 408:C:/Workspaces/DAVE-4.4.2-64Bit/Blinky_v2/Libraries/XMCLib/inc\xmc_scu.h ****   /* Clear RSTSTAT.RSTSTAT bitfield */
 409:C:/Workspaces/DAVE-4.4.2-64Bit/Blinky_v2/Libraries/XMCLib/inc\xmc_scu.h ****   SCU_RESET->RSTCLR = (uint32_t)SCU_RESET_RSTCLR_RSCLR_Msk;
 410:C:/Workspaces/DAVE-4.4.2-64Bit/Blinky_v2/Libraries/XMCLib/inc\xmc_scu.h **** }
 411:C:/Workspaces/DAVE-4.4.2-64Bit/Blinky_v2/Libraries/XMCLib/inc\xmc_scu.h ****  
 412:C:/Workspaces/DAVE-4.4.2-64Bit/Blinky_v2/Libraries/XMCLib/inc\xmc_scu.h **** /**
 413:C:/Workspaces/DAVE-4.4.2-64Bit/Blinky_v2/Libraries/XMCLib/inc\xmc_scu.h ****  * @return uint32_t  Value of CPU clock frequency.
 414:C:/Workspaces/DAVE-4.4.2-64Bit/Blinky_v2/Libraries/XMCLib/inc\xmc_scu.h ****  *
 415:C:/Workspaces/DAVE-4.4.2-64Bit/Blinky_v2/Libraries/XMCLib/inc\xmc_scu.h ****  * \par<b>Description</b><br>
 416:C:/Workspaces/DAVE-4.4.2-64Bit/Blinky_v2/Libraries/XMCLib/inc\xmc_scu.h ****  * Provides the vlaue of CPU clock frequency.\n\n
 417:C:/Workspaces/DAVE-4.4.2-64Bit/Blinky_v2/Libraries/XMCLib/inc\xmc_scu.h ****  * The value is stored in a global variable \a \b SystemCoreClock.
 418:C:/Workspaces/DAVE-4.4.2-64Bit/Blinky_v2/Libraries/XMCLib/inc\xmc_scu.h ****  * It is updated when the clock configuration is done using the SCU LLD APIs.
 419:C:/Workspaces/DAVE-4.4.2-64Bit/Blinky_v2/Libraries/XMCLib/inc\xmc_scu.h ****  * The value represents the frequency of clock used for CPU operation.
 420:C:/Workspaces/DAVE-4.4.2-64Bit/Blinky_v2/Libraries/XMCLib/inc\xmc_scu.h ****  * \b Range: Value is of type uint32_t, and gives the value of frequency in Hertz.
 421:C:/Workspaces/DAVE-4.4.2-64Bit/Blinky_v2/Libraries/XMCLib/inc\xmc_scu.h ****  *
 422:C:/Workspaces/DAVE-4.4.2-64Bit/Blinky_v2/Libraries/XMCLib/inc\xmc_scu.h ****  * \par<b>Related APIs:</b><BR>
 423:C:/Workspaces/DAVE-4.4.2-64Bit/Blinky_v2/Libraries/XMCLib/inc\xmc_scu.h ****  * XMC_SCU_CLOCK_GetPeripheralClockFrequency(), XMC_SCU_CLOCK_GatePeripheralClock() \n\n\n
 424:C:/Workspaces/DAVE-4.4.2-64Bit/Blinky_v2/Libraries/XMCLib/inc\xmc_scu.h ****  */
 425:C:/Workspaces/DAVE-4.4.2-64Bit/Blinky_v2/Libraries/XMCLib/inc\xmc_scu.h **** __STATIC_INLINE uint32_t XMC_SCU_CLOCK_GetCpuClockFrequency(void)
 426:C:/Workspaces/DAVE-4.4.2-64Bit/Blinky_v2/Libraries/XMCLib/inc\xmc_scu.h **** {
 427:C:/Workspaces/DAVE-4.4.2-64Bit/Blinky_v2/Libraries/XMCLib/inc\xmc_scu.h ****   return SystemCoreClock;
 428:C:/Workspaces/DAVE-4.4.2-64Bit/Blinky_v2/Libraries/XMCLib/inc\xmc_scu.h **** }
 429:C:/Workspaces/DAVE-4.4.2-64Bit/Blinky_v2/Libraries/XMCLib/inc\xmc_scu.h **** 
 430:C:/Workspaces/DAVE-4.4.2-64Bit/Blinky_v2/Libraries/XMCLib/inc\xmc_scu.h **** /**
 431:C:/Workspaces/DAVE-4.4.2-64Bit/Blinky_v2/Libraries/XMCLib/inc\xmc_scu.h ****  * @return uint32_t  Value of peripheral clock frequency in Hertz.
 432:C:/Workspaces/DAVE-4.4.2-64Bit/Blinky_v2/Libraries/XMCLib/inc\xmc_scu.h ****  *
 433:C:/Workspaces/DAVE-4.4.2-64Bit/Blinky_v2/Libraries/XMCLib/inc\xmc_scu.h ****  * \par<b>Description</b><br>
 434:C:/Workspaces/DAVE-4.4.2-64Bit/Blinky_v2/Libraries/XMCLib/inc\xmc_scu.h ****  * Provides the vlaue of clock frequency at which the peripherals are working.\n\n
 435:C:/Workspaces/DAVE-4.4.2-64Bit/Blinky_v2/Libraries/XMCLib/inc\xmc_scu.h ****  * The value is derived from the CPU frequency. \b Range: Value is of type uint32_t. It is represen
 436:C:/Workspaces/DAVE-4.4.2-64Bit/Blinky_v2/Libraries/XMCLib/inc\xmc_scu.h ****  * \par<b>Related APIs:</b><BR>
 437:C:/Workspaces/DAVE-4.4.2-64Bit/Blinky_v2/Libraries/XMCLib/inc\xmc_scu.h ****  * XMC_SCU_CLOCK_GetCpuClockFrequency(),XMC_SCU_CLOCK_GatePeripheralClock() \n\n\n
 438:C:/Workspaces/DAVE-4.4.2-64Bit/Blinky_v2/Libraries/XMCLib/inc\xmc_scu.h ****  */
 439:C:/Workspaces/DAVE-4.4.2-64Bit/Blinky_v2/Libraries/XMCLib/inc\xmc_scu.h **** uint32_t XMC_SCU_CLOCK_GetPeripheralClockFrequency(void); 
 440:C:/Workspaces/DAVE-4.4.2-64Bit/Blinky_v2/Libraries/XMCLib/inc\xmc_scu.h **** 
 441:C:/Workspaces/DAVE-4.4.2-64Bit/Blinky_v2/Libraries/XMCLib/inc\xmc_scu.h **** #if(UC_SERIES != XMC45)
 442:C:/Workspaces/DAVE-4.4.2-64Bit/Blinky_v2/Libraries/XMCLib/inc\xmc_scu.h ****  
 443:C:/Workspaces/DAVE-4.4.2-64Bit/Blinky_v2/Libraries/XMCLib/inc\xmc_scu.h **** /**
 444:C:/Workspaces/DAVE-4.4.2-64Bit/Blinky_v2/Libraries/XMCLib/inc\xmc_scu.h ****  *
 445:C:/Workspaces/DAVE-4.4.2-64Bit/Blinky_v2/Libraries/XMCLib/inc\xmc_scu.h ****  * @param  peripheral The peripheral for which the clock has to be gated. \b Range: Use type @ref X
 446:C:/Workspaces/DAVE-4.4.2-64Bit/Blinky_v2/Libraries/XMCLib/inc\xmc_scu.h ****  *                    to identify the peripheral clock to be gated.
 447:C:/Workspaces/DAVE-4.4.2-64Bit/Blinky_v2/Libraries/XMCLib/inc\xmc_scu.h ****  *
 448:C:/Workspaces/DAVE-4.4.2-64Bit/Blinky_v2/Libraries/XMCLib/inc\xmc_scu.h ****  * @return None
 449:C:/Workspaces/DAVE-4.4.2-64Bit/Blinky_v2/Libraries/XMCLib/inc\xmc_scu.h ****  *
 450:C:/Workspaces/DAVE-4.4.2-64Bit/Blinky_v2/Libraries/XMCLib/inc\xmc_scu.h ****  * \par<b>Description</b><br>
 451:C:/Workspaces/DAVE-4.4.2-64Bit/Blinky_v2/Libraries/XMCLib/inc\xmc_scu.h ****  * Blocks the supply of clock to the selected peripheral.\n\n
 452:C:/Workspaces/DAVE-4.4.2-64Bit/Blinky_v2/Libraries/XMCLib/inc\xmc_scu.h ****  * Clock gating helps in reducing the power consumption. User can selectively gate the clocks of un
 453:C:/Workspaces/DAVE-4.4.2-64Bit/Blinky_v2/Libraries/XMCLib/inc\xmc_scu.h ****  * \if XMC1
 454:C:/Workspaces/DAVE-4.4.2-64Bit/Blinky_v2/Libraries/XMCLib/inc\xmc_scu.h ****  * fPCLK is the source of clock to various peripherals. Some peripherals support clock gate. Such a
 455:C:/Workspaces/DAVE-4.4.2-64Bit/Blinky_v2/Libraries/XMCLib/inc\xmc_scu.h ****  * the clock supply for the selected peripheral.
 456:C:/Workspaces/DAVE-4.4.2-64Bit/Blinky_v2/Libraries/XMCLib/inc\xmc_scu.h ****  * Software can request for individual gating of such peripheral clocks by enabling the \a SCU_CGAT
 457:C:/Workspaces/DAVE-4.4.2-64Bit/Blinky_v2/Libraries/XMCLib/inc\xmc_scu.h ****  * register bit field. Every bit in \a SCU_CGATSET0 register is protected by the bit protection sch
 458:C:/Workspaces/DAVE-4.4.2-64Bit/Blinky_v2/Libraries/XMCLib/inc\xmc_scu.h ****  * bit fields are handled internally.
 459:C:/Workspaces/DAVE-4.4.2-64Bit/Blinky_v2/Libraries/XMCLib/inc\xmc_scu.h ****  * \endif
 460:C:/Workspaces/DAVE-4.4.2-64Bit/Blinky_v2/Libraries/XMCLib/inc\xmc_scu.h ****  * \if XMC4
 461:C:/Workspaces/DAVE-4.4.2-64Bit/Blinky_v2/Libraries/XMCLib/inc\xmc_scu.h ****  * fPERI is the source of clock to various peripherals. Some peripherals support clock gate. Such a
 462:C:/Workspaces/DAVE-4.4.2-64Bit/Blinky_v2/Libraries/XMCLib/inc\xmc_scu.h ****  * the clock supply for the selected peripheral.
 463:C:/Workspaces/DAVE-4.4.2-64Bit/Blinky_v2/Libraries/XMCLib/inc\xmc_scu.h ****  * Software can request for individual gating of such peripheral clocks by enabling one of the \a
 464:C:/Workspaces/DAVE-4.4.2-64Bit/Blinky_v2/Libraries/XMCLib/inc\xmc_scu.h ****  * SCU_CGATSET0, \a SCU_CGATSET1 or \a SCU_CGATSET2 register bitfields.
 465:C:/Workspaces/DAVE-4.4.2-64Bit/Blinky_v2/Libraries/XMCLib/inc\xmc_scu.h ****  * 
 466:C:/Workspaces/DAVE-4.4.2-64Bit/Blinky_v2/Libraries/XMCLib/inc\xmc_scu.h ****  * \endif
 467:C:/Workspaces/DAVE-4.4.2-64Bit/Blinky_v2/Libraries/XMCLib/inc\xmc_scu.h ****  * Note: Clock gating shall not be activated unless the module is in reset state. So use \a
 468:C:/Workspaces/DAVE-4.4.2-64Bit/Blinky_v2/Libraries/XMCLib/inc\xmc_scu.h ****  * XMC_SCU_CLOCK_IsPeripheralClockGated() API before enabling the gating of any peripheral.
 469:C:/Workspaces/DAVE-4.4.2-64Bit/Blinky_v2/Libraries/XMCLib/inc\xmc_scu.h ****  * \par<b>Related APIs:</b><BR>
 470:C:/Workspaces/DAVE-4.4.2-64Bit/Blinky_v2/Libraries/XMCLib/inc\xmc_scu.h ****  * XMC_SCU_CLOCK_IsPeripheralClockGated(), XMC_SCU_CLOCK_UngatePeripheralClock() \n\n\n
 471:C:/Workspaces/DAVE-4.4.2-64Bit/Blinky_v2/Libraries/XMCLib/inc\xmc_scu.h ****  */
 472:C:/Workspaces/DAVE-4.4.2-64Bit/Blinky_v2/Libraries/XMCLib/inc\xmc_scu.h **** void XMC_SCU_CLOCK_GatePeripheralClock(const XMC_SCU_PERIPHERAL_CLOCK_t peripheral);
 473:C:/Workspaces/DAVE-4.4.2-64Bit/Blinky_v2/Libraries/XMCLib/inc\xmc_scu.h ****  
 474:C:/Workspaces/DAVE-4.4.2-64Bit/Blinky_v2/Libraries/XMCLib/inc\xmc_scu.h **** /**
 475:C:/Workspaces/DAVE-4.4.2-64Bit/Blinky_v2/Libraries/XMCLib/inc\xmc_scu.h ****  *
 476:C:/Workspaces/DAVE-4.4.2-64Bit/Blinky_v2/Libraries/XMCLib/inc\xmc_scu.h ****  * @param  peripheral  The peripheral for which the clock has to be ungated. \b Range: Use type @re
 477:C:/Workspaces/DAVE-4.4.2-64Bit/Blinky_v2/Libraries/XMCLib/inc\xmc_scu.h ****  *                    to identify the peripheral.
 478:C:/Workspaces/DAVE-4.4.2-64Bit/Blinky_v2/Libraries/XMCLib/inc\xmc_scu.h ****  *
 479:C:/Workspaces/DAVE-4.4.2-64Bit/Blinky_v2/Libraries/XMCLib/inc\xmc_scu.h ****  * @return None
 480:C:/Workspaces/DAVE-4.4.2-64Bit/Blinky_v2/Libraries/XMCLib/inc\xmc_scu.h ****  *
 481:C:/Workspaces/DAVE-4.4.2-64Bit/Blinky_v2/Libraries/XMCLib/inc\xmc_scu.h ****  * \par<b>Description</b><br>
 482:C:/Workspaces/DAVE-4.4.2-64Bit/Blinky_v2/Libraries/XMCLib/inc\xmc_scu.h ****  * Enables the supply of clock to the selected peripheral.\n\n
 483:C:/Workspaces/DAVE-4.4.2-64Bit/Blinky_v2/Libraries/XMCLib/inc\xmc_scu.h ****  * By default when the device powers on, the peripheral clock will be gated for the 
 484:C:/Workspaces/DAVE-4.4.2-64Bit/Blinky_v2/Libraries/XMCLib/inc\xmc_scu.h ****  * peripherals that support clock gating.
 485:C:/Workspaces/DAVE-4.4.2-64Bit/Blinky_v2/Libraries/XMCLib/inc\xmc_scu.h ****  * The peripheral clock should be enabled before using it for any functionality.
 486:C:/Workspaces/DAVE-4.4.2-64Bit/Blinky_v2/Libraries/XMCLib/inc\xmc_scu.h ****  * \if XMC1
 487:C:/Workspaces/DAVE-4.4.2-64Bit/Blinky_v2/Libraries/XMCLib/inc\xmc_scu.h ****  * fPCLK is the source of clock to various peripherals. Some peripherals support clock gate.
 488:C:/Workspaces/DAVE-4.4.2-64Bit/Blinky_v2/Libraries/XMCLib/inc\xmc_scu.h ****  * Software can request for individual ungating of such peripheral clocks by setting respective bit
 489:C:/Workspaces/DAVE-4.4.2-64Bit/Blinky_v2/Libraries/XMCLib/inc\xmc_scu.h ****  * in the \a SCU_CGATCLR0 register.
 490:C:/Workspaces/DAVE-4.4.2-64Bit/Blinky_v2/Libraries/XMCLib/inc\xmc_scu.h ****  * \endif
 491:C:/Workspaces/DAVE-4.4.2-64Bit/Blinky_v2/Libraries/XMCLib/inc\xmc_scu.h ****  * \if XMC4
 492:C:/Workspaces/DAVE-4.4.2-64Bit/Blinky_v2/Libraries/XMCLib/inc\xmc_scu.h ****  * fPERI is the source of clock to various peripherals. Some peripherals support clock gate.
 493:C:/Workspaces/DAVE-4.4.2-64Bit/Blinky_v2/Libraries/XMCLib/inc\xmc_scu.h ****  * Software can request for individual ungating of such peripheral clocks by setting the respective
 494:C:/Workspaces/DAVE-4.4.2-64Bit/Blinky_v2/Libraries/XMCLib/inc\xmc_scu.h ****  * SCU_CGATCLR0, \a SCU_CGATCLR1 or \a SCU_CGATCLR2 registers.
 495:C:/Workspaces/DAVE-4.4.2-64Bit/Blinky_v2/Libraries/XMCLib/inc\xmc_scu.h ****  * \endif
 496:C:/Workspaces/DAVE-4.4.2-64Bit/Blinky_v2/Libraries/XMCLib/inc\xmc_scu.h ****  *
 497:C:/Workspaces/DAVE-4.4.2-64Bit/Blinky_v2/Libraries/XMCLib/inc\xmc_scu.h ****  * \par<b>Related APIs:</b><BR>
 498:C:/Workspaces/DAVE-4.4.2-64Bit/Blinky_v2/Libraries/XMCLib/inc\xmc_scu.h ****  * XMC_SCU_CLOCK_IsPeripheralClockGated(), XMC_SCU_CLOCK_GatePeripheralClock() \n\n\n
 499:C:/Workspaces/DAVE-4.4.2-64Bit/Blinky_v2/Libraries/XMCLib/inc\xmc_scu.h ****  */
 500:C:/Workspaces/DAVE-4.4.2-64Bit/Blinky_v2/Libraries/XMCLib/inc\xmc_scu.h **** void XMC_SCU_CLOCK_UngatePeripheralClock(const XMC_SCU_PERIPHERAL_CLOCK_t peripheral);
 501:C:/Workspaces/DAVE-4.4.2-64Bit/Blinky_v2/Libraries/XMCLib/inc\xmc_scu.h **** 
 502:C:/Workspaces/DAVE-4.4.2-64Bit/Blinky_v2/Libraries/XMCLib/inc\xmc_scu.h **** /**
 503:C:/Workspaces/DAVE-4.4.2-64Bit/Blinky_v2/Libraries/XMCLib/inc\xmc_scu.h ****  *
 504:C:/Workspaces/DAVE-4.4.2-64Bit/Blinky_v2/Libraries/XMCLib/inc\xmc_scu.h ****  * @param  peripheral  The peripheral for which the check for clock gating has to be done. 
 505:C:/Workspaces/DAVE-4.4.2-64Bit/Blinky_v2/Libraries/XMCLib/inc\xmc_scu.h ****  *                    \b Range: Use type @ref XMC_SCU_PERIPHERAL_CLOCK_t to identify the peripheral
 506:C:/Workspaces/DAVE-4.4.2-64Bit/Blinky_v2/Libraries/XMCLib/inc\xmc_scu.h ****  *
 507:C:/Workspaces/DAVE-4.4.2-64Bit/Blinky_v2/Libraries/XMCLib/inc\xmc_scu.h ****  * @return bool Status of the peripheral clock gating. \b Range: true if the peripheral clock is ga
 508:C:/Workspaces/DAVE-4.4.2-64Bit/Blinky_v2/Libraries/XMCLib/inc\xmc_scu.h ****  *              false if the peripheral clock ungated(gate de-asserted).
 509:C:/Workspaces/DAVE-4.4.2-64Bit/Blinky_v2/Libraries/XMCLib/inc\xmc_scu.h ****  *
 510:C:/Workspaces/DAVE-4.4.2-64Bit/Blinky_v2/Libraries/XMCLib/inc\xmc_scu.h ****  * \par<b>Description</b><br>
 511:C:/Workspaces/DAVE-4.4.2-64Bit/Blinky_v2/Libraries/XMCLib/inc\xmc_scu.h ****  * Gives the status of peripheral clock gating.\n\n
 512:C:/Workspaces/DAVE-4.4.2-64Bit/Blinky_v2/Libraries/XMCLib/inc\xmc_scu.h ****  * \if XMC1
 513:C:/Workspaces/DAVE-4.4.2-64Bit/Blinky_v2/Libraries/XMCLib/inc\xmc_scu.h ****  * Checks the status of peripheral clock gating using the register CGATSTAT0.
 514:C:/Workspaces/DAVE-4.4.2-64Bit/Blinky_v2/Libraries/XMCLib/inc\xmc_scu.h ****  * \endif
 515:C:/Workspaces/DAVE-4.4.2-64Bit/Blinky_v2/Libraries/XMCLib/inc\xmc_scu.h ****  * \if XMC4
 516:C:/Workspaces/DAVE-4.4.2-64Bit/Blinky_v2/Libraries/XMCLib/inc\xmc_scu.h ****  * Checks the status of peripheral clock gating using one of CGATSTAT0, CGATSTAT1 or CGATSTAT2 regi
 517:C:/Workspaces/DAVE-4.4.2-64Bit/Blinky_v2/Libraries/XMCLib/inc\xmc_scu.h ****  * \endif
 518:C:/Workspaces/DAVE-4.4.2-64Bit/Blinky_v2/Libraries/XMCLib/inc\xmc_scu.h ****  * It is recommended to use this API before
 519:C:/Workspaces/DAVE-4.4.2-64Bit/Blinky_v2/Libraries/XMCLib/inc\xmc_scu.h ****  * enabling the gating of any peripherals through \a XMC_SCU_CLOCK_GatePeripheralClock() API.
 520:C:/Workspaces/DAVE-4.4.2-64Bit/Blinky_v2/Libraries/XMCLib/inc\xmc_scu.h ****  *
 521:C:/Workspaces/DAVE-4.4.2-64Bit/Blinky_v2/Libraries/XMCLib/inc\xmc_scu.h ****  * \par<b>Related APIs:</b><BR>
 522:C:/Workspaces/DAVE-4.4.2-64Bit/Blinky_v2/Libraries/XMCLib/inc\xmc_scu.h ****  * XMC_SCU_CLOCK_UngatePeripheralClock(), XMC_SCU_CLOCK_GatePeripheralClock() \n\n\n
 523:C:/Workspaces/DAVE-4.4.2-64Bit/Blinky_v2/Libraries/XMCLib/inc\xmc_scu.h ****  */
 524:C:/Workspaces/DAVE-4.4.2-64Bit/Blinky_v2/Libraries/XMCLib/inc\xmc_scu.h **** bool XMC_SCU_CLOCK_IsPeripheralClockGated(const XMC_SCU_PERIPHERAL_CLOCK_t peripheral);
 525:C:/Workspaces/DAVE-4.4.2-64Bit/Blinky_v2/Libraries/XMCLib/inc\xmc_scu.h **** #endif
 526:C:/Workspaces/DAVE-4.4.2-64Bit/Blinky_v2/Libraries/XMCLib/inc\xmc_scu.h **** 
 527:C:/Workspaces/DAVE-4.4.2-64Bit/Blinky_v2/Libraries/XMCLib/inc\xmc_scu.h **** 
 528:C:/Workspaces/DAVE-4.4.2-64Bit/Blinky_v2/Libraries/XMCLib/inc\xmc_scu.h **** /**
 529:C:/Workspaces/DAVE-4.4.2-64Bit/Blinky_v2/Libraries/XMCLib/inc\xmc_scu.h ****  * @return  uint32_t  Status of the register mirror update.\n
 530:C:/Workspaces/DAVE-4.4.2-64Bit/Blinky_v2/Libraries/XMCLib/inc\xmc_scu.h ****  *                    \b Range: Use the bit mask of the SCU_GENERAL_MIRRSTS register for the mirror
 531:C:/Workspaces/DAVE-4.4.2-64Bit/Blinky_v2/Libraries/XMCLib/inc\xmc_scu.h ****  *                    interest. e.g.: SCU_GENERAL_MIRRSTS_RTC_CTR_Msk. Multiple update events can b
 532:C:/Workspaces/DAVE-4.4.2-64Bit/Blinky_v2/Libraries/XMCLib/inc\xmc_scu.h ****  *                    using \a OR operation.
 533:C:/Workspaces/DAVE-4.4.2-64Bit/Blinky_v2/Libraries/XMCLib/inc\xmc_scu.h ****  *
 534:C:/Workspaces/DAVE-4.4.2-64Bit/Blinky_v2/Libraries/XMCLib/inc\xmc_scu.h ****  * \par<b>Description</b><br>
 535:C:/Workspaces/DAVE-4.4.2-64Bit/Blinky_v2/Libraries/XMCLib/inc\xmc_scu.h ****  * Provides the status of hibernate domain register update, when the respective mirror registers ar
 536:C:/Workspaces/DAVE-4.4.2-64Bit/Blinky_v2/Libraries/XMCLib/inc\xmc_scu.h ****  * The hibernate domain is connected to the core domain via SPI serial communication. MIRRSTS is a 
 537:C:/Workspaces/DAVE-4.4.2-64Bit/Blinky_v2/Libraries/XMCLib/inc\xmc_scu.h ****  * representing the communication of changed value of a mirror register to its corresponding regist
 538:C:/Workspaces/DAVE-4.4.2-64Bit/Blinky_v2/Libraries/XMCLib/inc\xmc_scu.h ****  * hibernate domain. The bit fields of the register indicate
 539:C:/Workspaces/DAVE-4.4.2-64Bit/Blinky_v2/Libraries/XMCLib/inc\xmc_scu.h ****  * that a corresponding register of the hibernate domain is ready to accept a write or that the com
 540:C:/Workspaces/DAVE-4.4.2-64Bit/Blinky_v2/Libraries/XMCLib/inc\xmc_scu.h ****  * is busy with executing the previous operation.\n
 541:C:/Workspaces/DAVE-4.4.2-64Bit/Blinky_v2/Libraries/XMCLib/inc\xmc_scu.h ****  * Note: There is no hibernate domain in XMC1x devices. This register is retained for legacy purpos
 542:C:/Workspaces/DAVE-4.4.2-64Bit/Blinky_v2/Libraries/XMCLib/inc\xmc_scu.h ****  */
 543:C:/Workspaces/DAVE-4.4.2-64Bit/Blinky_v2/Libraries/XMCLib/inc\xmc_scu.h **** __STATIC_INLINE uint32_t XMC_SCU_GetMirrorStatus(void)
 544:C:/Workspaces/DAVE-4.4.2-64Bit/Blinky_v2/Libraries/XMCLib/inc\xmc_scu.h **** {
  25              	 .loc 1 544 0
  26              	 .cfi_startproc
  27 0000 80B5     	 push {r7,lr}
  28              	.LCFI0:
  29              	 .cfi_def_cfa_offset 8
  30              	 .cfi_offset 7,-8
  31              	 .cfi_offset 14,-4
  32 0002 00AF     	 add r7,sp,#0
  33              	.LCFI1:
  34              	 .cfi_def_cfa_register 7
 545:C:/Workspaces/DAVE-4.4.2-64Bit/Blinky_v2/Libraries/XMCLib/inc\xmc_scu.h ****   return(SCU_GENERAL->MIRRSTS);
  35              	 .loc 1 545 0
  36 0004 024B     	 ldr r3,.L3
  37 0006 9B6C     	 ldr r3,[r3,#72]
 546:C:/Workspaces/DAVE-4.4.2-64Bit/Blinky_v2/Libraries/XMCLib/inc\xmc_scu.h **** }
  38              	 .loc 1 546 0
  39 0008 181C     	 mov r0,r3
  40 000a BD46     	 mov sp,r7
  41              	 
  42 000c 80BD     	 pop {r7,pc}
  43              	.L4:
  44 000e C046     	 .align 2
  45              	.L3:
  46 0010 00000140 	 .word 1073807360
  47              	 .cfi_endproc
  48              	.LFE58:
  50              	 .section .text.XMC_RTC_Start,"ax",%progbits
  51              	 .align 2
  52              	 .global XMC_RTC_Start
  53              	 .code 16
  54              	 .thumb_func
  56              	XMC_RTC_Start:
  57              	.LFB61:
  58              	 .file 2 "../Libraries/XMCLib/src/xmc_rtc.c"
   1:../Libraries/XMCLib/src/xmc_rtc.c **** /**
   2:../Libraries/XMCLib/src/xmc_rtc.c ****  * @file xmc_rtc.c
   3:../Libraries/XMCLib/src/xmc_rtc.c ****  * @date 2015-05-19
   4:../Libraries/XMCLib/src/xmc_rtc.c ****  *
   5:../Libraries/XMCLib/src/xmc_rtc.c ****  * @cond
   6:../Libraries/XMCLib/src/xmc_rtc.c ****  **************************************************************************************************
   7:../Libraries/XMCLib/src/xmc_rtc.c ****  * XMClib v2.1.18 - XMC Peripheral Driver Library 
   8:../Libraries/XMCLib/src/xmc_rtc.c ****  *
   9:../Libraries/XMCLib/src/xmc_rtc.c ****  * Copyright (c) 2015-2018, Infineon Technologies AG
  10:../Libraries/XMCLib/src/xmc_rtc.c ****  * All rights reserved.                        
  11:../Libraries/XMCLib/src/xmc_rtc.c ****  *                                             
  12:../Libraries/XMCLib/src/xmc_rtc.c ****  * Redistribution and use in source and binary forms, with or without modification,are permitted pr
  13:../Libraries/XMCLib/src/xmc_rtc.c ****  * following conditions are met:   
  14:../Libraries/XMCLib/src/xmc_rtc.c ****  *                                                                              
  15:../Libraries/XMCLib/src/xmc_rtc.c ****  * Redistributions of source code must retain the above copyright notice, this list of conditions a
  16:../Libraries/XMCLib/src/xmc_rtc.c ****  * disclaimer.                        
  17:../Libraries/XMCLib/src/xmc_rtc.c ****  * 
  18:../Libraries/XMCLib/src/xmc_rtc.c ****  * Redistributions in binary form must reproduce the above copyright notice, this list of condition
  19:../Libraries/XMCLib/src/xmc_rtc.c ****  * disclaimer in the documentation and/or other materials provided with the distribution.          
  20:../Libraries/XMCLib/src/xmc_rtc.c ****  * 
  21:../Libraries/XMCLib/src/xmc_rtc.c ****  * Neither the name of the copyright holders nor the names of its contributors may be used to endor
  22:../Libraries/XMCLib/src/xmc_rtc.c ****  * products derived from this software without specific prior written permission.                  
  23:../Libraries/XMCLib/src/xmc_rtc.c ****  *                                                                              
  24:../Libraries/XMCLib/src/xmc_rtc.c ****  * THIS SOFTWARE IS PROVIDED BY THE COPYRIGHT HOLDERS AND CONTRIBUTORS "AS IS" AND ANY EXPRESS OR I
  25:../Libraries/XMCLib/src/xmc_rtc.c ****  * INCLUDING, BUT NOT LIMITED TO, THE IMPLIED WARRANTIES OF MERCHANTABILITY AND FITNESS FOR A PARTI
  26:../Libraries/XMCLib/src/xmc_rtc.c ****  * DISCLAIMED. IN NO EVENT SHALL THE COPYRIGHT HOLDER OR CONTRIBUTORS BE LIABLE  FOR ANY DIRECT, IN
  27:../Libraries/XMCLib/src/xmc_rtc.c ****  * SPECIAL, EXEMPLARY, OR CONSEQUENTIAL DAMAGES (INCLUDING, BUT NOT LIMITED TO, PROCUREMENT OF SUBS
  28:../Libraries/XMCLib/src/xmc_rtc.c ****  * SERVICES; LOSS OF USE, DATA, OR PROFITS; OR BUSINESS INTERRUPTION) HOWEVER CAUSED AND ON ANY THE
  29:../Libraries/XMCLib/src/xmc_rtc.c ****  * WHETHER IN CONTRACT, STRICT LIABILITY,OR TORT (INCLUDING NEGLIGENCE OR OTHERWISE) ARISING IN ANY
  30:../Libraries/XMCLib/src/xmc_rtc.c ****  * OF THIS SOFTWARE, EVEN IF ADVISED OF THE POSSIBILITY OF SUCH DAMAGE.                            
  31:../Libraries/XMCLib/src/xmc_rtc.c ****  *                                                                              
  32:../Libraries/XMCLib/src/xmc_rtc.c ****  * To improve the quality of the software, users are encouraged to share modifications, enhancement
  33:../Libraries/XMCLib/src/xmc_rtc.c ****  * Infineon Technologies AG dave@infineon.com).                                                    
  34:../Libraries/XMCLib/src/xmc_rtc.c ****  **************************************************************************************************
  35:../Libraries/XMCLib/src/xmc_rtc.c ****  *
  36:../Libraries/XMCLib/src/xmc_rtc.c ****  * Change History
  37:../Libraries/XMCLib/src/xmc_rtc.c ****  * --------------
  38:../Libraries/XMCLib/src/xmc_rtc.c ****  *
  39:../Libraries/XMCLib/src/xmc_rtc.c ****  * 2015-02-20:
  40:../Libraries/XMCLib/src/xmc_rtc.c ****  *     - Initial <br>
  41:../Libraries/XMCLib/src/xmc_rtc.c ****  *      
  42:../Libraries/XMCLib/src/xmc_rtc.c ****  * 2015-06-20:
  43:../Libraries/XMCLib/src/xmc_rtc.c ****  *     - Removed GetDriverVersion API
  44:../Libraries/XMCLib/src/xmc_rtc.c ****  * 
  45:../Libraries/XMCLib/src/xmc_rtc.c ****  * 2016-05-19:
  46:../Libraries/XMCLib/src/xmc_rtc.c ****  *     - Added XMC_RTC_SetTimeStdFormat() and XMC_RTC_SetAlarmStdFormat()
  47:../Libraries/XMCLib/src/xmc_rtc.c ****  *
  48:../Libraries/XMCLib/src/xmc_rtc.c ****  * @endcond 
  49:../Libraries/XMCLib/src/xmc_rtc.c ****  *
  50:../Libraries/XMCLib/src/xmc_rtc.c ****  */
  51:../Libraries/XMCLib/src/xmc_rtc.c **** 
  52:../Libraries/XMCLib/src/xmc_rtc.c **** /**
  53:../Libraries/XMCLib/src/xmc_rtc.c ****  *
  54:../Libraries/XMCLib/src/xmc_rtc.c ****  * @brief RTC driver for XMC microcontroller family.
  55:../Libraries/XMCLib/src/xmc_rtc.c ****  *
  56:../Libraries/XMCLib/src/xmc_rtc.c ****  */
  57:../Libraries/XMCLib/src/xmc_rtc.c **** 
  58:../Libraries/XMCLib/src/xmc_rtc.c **** /**************************************************************************************************
  59:../Libraries/XMCLib/src/xmc_rtc.c ****  * HEADER FILES
  60:../Libraries/XMCLib/src/xmc_rtc.c ****  **************************************************************************************************
  61:../Libraries/XMCLib/src/xmc_rtc.c ****  
  62:../Libraries/XMCLib/src/xmc_rtc.c **** #include "xmc_scu.h"
  63:../Libraries/XMCLib/src/xmc_rtc.c **** #include "xmc_rtc.h"
  64:../Libraries/XMCLib/src/xmc_rtc.c **** 
  65:../Libraries/XMCLib/src/xmc_rtc.c **** /**************************************************************************************************
  66:../Libraries/XMCLib/src/xmc_rtc.c ****  * MACROS
  67:../Libraries/XMCLib/src/xmc_rtc.c ****  **************************************************************************************************
  68:../Libraries/XMCLib/src/xmc_rtc.c **** 
  69:../Libraries/XMCLib/src/xmc_rtc.c **** #define XMC_RTC_MAXSECONDS  (59U)   /**< RTC time : Maximum seconds */
  70:../Libraries/XMCLib/src/xmc_rtc.c **** #define XMC_RTC_MAXMINUTES  (59U)   /**< RTC time : Maximum minutes */
  71:../Libraries/XMCLib/src/xmc_rtc.c **** #define XMC_RTC_MAXHOURS    (23U)   /**< RTC time : Maximum hours */
  72:../Libraries/XMCLib/src/xmc_rtc.c **** #define XMC_RTC_MAXDAYS     (31U)   /**< RTC time : Maximum days */
  73:../Libraries/XMCLib/src/xmc_rtc.c **** #define XMC_RTC_MAXDAYSOFWEEK  (7U) /**< RTC time : Maximum days of week */
  74:../Libraries/XMCLib/src/xmc_rtc.c **** #define XMC_RTC_MAXMONTH  (12U)     /**< RTC time : Maximum month */
  75:../Libraries/XMCLib/src/xmc_rtc.c **** #define XMC_RTC_MAXYEAR  (0xFFFFU)  /**< RTC time : Maximum year */
  76:../Libraries/XMCLib/src/xmc_rtc.c **** #define XMC_RTC_MAXPRESCALER  (0xFFFFU)  /**< RTC time : Maximum prescaler */
  77:../Libraries/XMCLib/src/xmc_rtc.c **** #define XMC_RTC_YEAR_OFFSET (1900U)      /**< RTC year offset : Year offset */
  78:../Libraries/XMCLib/src/xmc_rtc.c **** 
  79:../Libraries/XMCLib/src/xmc_rtc.c **** #if (UC_FAMILY == XMC4)
  80:../Libraries/XMCLib/src/xmc_rtc.c **** #define XMC_RTC_INIT_SEQUENCE  (1U)
  81:../Libraries/XMCLib/src/xmc_rtc.c **** #endif
  82:../Libraries/XMCLib/src/xmc_rtc.c **** #if (UC_FAMILY == XMC1)
  83:../Libraries/XMCLib/src/xmc_rtc.c **** #define XMC_RTC_INIT_SEQUENCE  (0U)
  84:../Libraries/XMCLib/src/xmc_rtc.c **** #endif
  85:../Libraries/XMCLib/src/xmc_rtc.c **** 
  86:../Libraries/XMCLib/src/xmc_rtc.c **** /**************************************************************************************************
  87:../Libraries/XMCLib/src/xmc_rtc.c ****  * API IMPLEMENTATION
  88:../Libraries/XMCLib/src/xmc_rtc.c ****  **************************************************************************************************
  89:../Libraries/XMCLib/src/xmc_rtc.c **** 
  90:../Libraries/XMCLib/src/xmc_rtc.c **** /*
  91:../Libraries/XMCLib/src/xmc_rtc.c ****  * Enables RTC peripheral to start counting time
  92:../Libraries/XMCLib/src/xmc_rtc.c ****  */
  93:../Libraries/XMCLib/src/xmc_rtc.c **** void XMC_RTC_Start(void)
  94:../Libraries/XMCLib/src/xmc_rtc.c **** {
  59              	 .loc 2 94 0
  60              	 .cfi_startproc
  61 0000 80B5     	 push {r7,lr}
  62              	.LCFI2:
  63              	 .cfi_def_cfa_offset 8
  64              	 .cfi_offset 7,-8
  65              	 .cfi_offset 14,-4
  66 0002 00AF     	 add r7,sp,#0
  67              	.LCFI3:
  68              	 .cfi_def_cfa_register 7
  95:../Libraries/XMCLib/src/xmc_rtc.c ****   while((XMC_SCU_GetMirrorStatus() & SCU_GENERAL_MIRRSTS_RTC_CTR_Msk) != 0U)
  69              	 .loc 2 95 0
  70 0004 C046     	 mov r8,r8
  71              	.L6:
  72              	 .loc 2 95 0 is_stmt 0 discriminator 1
  73 0006 FFF7FEFF 	 bl XMC_SCU_GetMirrorStatus
  74 000a 021C     	 mov r2,r0
  75 000c 0123     	 mov r3,#1
  76 000e 1340     	 and r3,r2
  77 0010 F9D1     	 bne .L6
  96:../Libraries/XMCLib/src/xmc_rtc.c ****   {
  97:../Libraries/XMCLib/src/xmc_rtc.c ****     /* check SCU_MIRRSTS to ensure that no transfer over serial interface is pending */
  98:../Libraries/XMCLib/src/xmc_rtc.c ****   }
  99:../Libraries/XMCLib/src/xmc_rtc.c ****   RTC->CTR |= (uint32_t)RTC_CTR_ENB_Msk;
  78              	 .loc 2 99 0 is_stmt 1
  79 0012 044B     	 ldr r3,.L7
  80 0014 034A     	 ldr r2,.L7
  81 0016 5268     	 ldr r2,[r2,#4]
  82 0018 0121     	 mov r1,#1
  83 001a 0A43     	 orr r2,r1
  84 001c 5A60     	 str r2,[r3,#4]
 100:../Libraries/XMCLib/src/xmc_rtc.c **** }
  85              	 .loc 2 100 0
  86 001e BD46     	 mov sp,r7
  87              	 
  88 0020 80BD     	 pop {r7,pc}
  89              	.L8:
  90 0022 C046     	 .align 2
  91              	.L7:
  92 0024 000A0140 	 .word 1073809920
  93              	 .cfi_endproc
  94              	.LFE61:
  96              	 .section .text.XMC_RTC_Stop,"ax",%progbits
  97              	 .align 2
  98              	 .global XMC_RTC_Stop
  99              	 .code 16
 100              	 .thumb_func
 102              	XMC_RTC_Stop:
 103              	.LFB62:
 101:../Libraries/XMCLib/src/xmc_rtc.c **** 
 102:../Libraries/XMCLib/src/xmc_rtc.c **** /*
 103:../Libraries/XMCLib/src/xmc_rtc.c ****  * Disables RTC peripheral to start counting time
 104:../Libraries/XMCLib/src/xmc_rtc.c ****  */
 105:../Libraries/XMCLib/src/xmc_rtc.c **** void XMC_RTC_Stop(void)
 106:../Libraries/XMCLib/src/xmc_rtc.c **** {
 104              	 .loc 2 106 0
 105              	 .cfi_startproc
 106 0000 80B5     	 push {r7,lr}
 107              	.LCFI4:
 108              	 .cfi_def_cfa_offset 8
 109              	 .cfi_offset 7,-8
 110              	 .cfi_offset 14,-4
 111 0002 00AF     	 add r7,sp,#0
 112              	.LCFI5:
 113              	 .cfi_def_cfa_register 7
 107:../Libraries/XMCLib/src/xmc_rtc.c ****   while((XMC_SCU_GetMirrorStatus() & SCU_GENERAL_MIRRSTS_RTC_CTR_Msk) != 0U)
 114              	 .loc 2 107 0
 115 0004 C046     	 mov r8,r8
 116              	.L10:
 117              	 .loc 2 107 0 is_stmt 0 discriminator 1
 118 0006 FFF7FEFF 	 bl XMC_SCU_GetMirrorStatus
 119 000a 021C     	 mov r2,r0
 120 000c 0123     	 mov r3,#1
 121 000e 1340     	 and r3,r2
 122 0010 F9D1     	 bne .L10
 108:../Libraries/XMCLib/src/xmc_rtc.c ****   {
 109:../Libraries/XMCLib/src/xmc_rtc.c ****     /* check SCU_MIRRSTS to ensure that no transfer over serial interface is pending */
 110:../Libraries/XMCLib/src/xmc_rtc.c ****   }
 111:../Libraries/XMCLib/src/xmc_rtc.c ****   RTC->CTR &= ~(uint32_t)RTC_CTR_ENB_Msk;
 123              	 .loc 2 111 0 is_stmt 1
 124 0012 044B     	 ldr r3,.L11
 125 0014 034A     	 ldr r2,.L11
 126 0016 5268     	 ldr r2,[r2,#4]
 127 0018 0121     	 mov r1,#1
 128 001a 8A43     	 bic r2,r1
 129 001c 5A60     	 str r2,[r3,#4]
 112:../Libraries/XMCLib/src/xmc_rtc.c **** }
 130              	 .loc 2 112 0
 131 001e BD46     	 mov sp,r7
 132              	 
 133 0020 80BD     	 pop {r7,pc}
 134              	.L12:
 135 0022 C046     	 .align 2
 136              	.L11:
 137 0024 000A0140 	 .word 1073809920
 138              	 .cfi_endproc
 139              	.LFE62:
 141              	 .section .text.XMC_RTC_SetPrescaler,"ax",%progbits
 142              	 .align 2
 143              	 .global XMC_RTC_SetPrescaler
 144              	 .code 16
 145              	 .thumb_func
 147              	XMC_RTC_SetPrescaler:
 148              	.LFB63:
 113:../Libraries/XMCLib/src/xmc_rtc.c **** 
 114:../Libraries/XMCLib/src/xmc_rtc.c **** /*
 115:../Libraries/XMCLib/src/xmc_rtc.c ****  * Sets the RTC module prescaler value
 116:../Libraries/XMCLib/src/xmc_rtc.c ****  */
 117:../Libraries/XMCLib/src/xmc_rtc.c **** void XMC_RTC_SetPrescaler(uint16_t prescaler)
 118:../Libraries/XMCLib/src/xmc_rtc.c **** {
 149              	 .loc 2 118 0
 150              	 .cfi_startproc
 151 0000 80B5     	 push {r7,lr}
 152              	.LCFI6:
 153              	 .cfi_def_cfa_offset 8
 154              	 .cfi_offset 7,-8
 155              	 .cfi_offset 14,-4
 156 0002 82B0     	 sub sp,sp,#8
 157              	.LCFI7:
 158              	 .cfi_def_cfa_offset 16
 159 0004 00AF     	 add r7,sp,#0
 160              	.LCFI8:
 161              	 .cfi_def_cfa_register 7
 162 0006 021C     	 mov r2,r0
 163 0008 BB1D     	 add r3,r7,#6
 164 000a 1A80     	 strh r2,[r3]
 119:../Libraries/XMCLib/src/xmc_rtc.c ****   XMC_ASSERT("XMC_RTC_SetPrescaler:Wrong prescaler value", (prescaler < XMC_RTC_MAXPRESCALER));
 120:../Libraries/XMCLib/src/xmc_rtc.c ****   
 121:../Libraries/XMCLib/src/xmc_rtc.c ****   while((XMC_SCU_GetMirrorStatus() & SCU_GENERAL_MIRRSTS_RTC_CTR_Msk) != 0U)
 165              	 .loc 2 121 0
 166 000c C046     	 mov r8,r8
 167              	.L14:
 168              	 .loc 2 121 0 is_stmt 0 discriminator 1
 169 000e FFF7FEFF 	 bl XMC_SCU_GetMirrorStatus
 170 0012 021C     	 mov r2,r0
 171 0014 0123     	 mov r3,#1
 172 0016 1340     	 and r3,r2
 173 0018 F9D1     	 bne .L14
 122:../Libraries/XMCLib/src/xmc_rtc.c ****   {
 123:../Libraries/XMCLib/src/xmc_rtc.c ****     /* check SCU_MIRRSTS to ensure that no transfer over serial interface is pending */
 124:../Libraries/XMCLib/src/xmc_rtc.c ****   }
 125:../Libraries/XMCLib/src/xmc_rtc.c ****   RTC->CTR = (RTC->CTR & ~(uint32_t)RTC_CTR_DIV_Msk) |
 174              	 .loc 2 125 0 is_stmt 1
 175 001a 064B     	 ldr r3,.L15
 176 001c 054A     	 ldr r2,.L15
 177 001e 5268     	 ldr r2,[r2,#4]
 178 0020 1204     	 lsl r2,r2,#16
 179 0022 110C     	 lsr r1,r2,#16
 126:../Libraries/XMCLib/src/xmc_rtc.c ****              ((uint32_t)prescaler << (uint32_t)RTC_CTR_DIV_Pos);
 180              	 .loc 2 126 0
 181 0024 BA1D     	 add r2,r7,#6
 182 0026 1288     	 ldrh r2,[r2]
 183 0028 1204     	 lsl r2,r2,#16
 125:../Libraries/XMCLib/src/xmc_rtc.c ****              ((uint32_t)prescaler << (uint32_t)RTC_CTR_DIV_Pos);
 184              	 .loc 2 125 0
 185 002a 0A43     	 orr r2,r1
 186 002c 5A60     	 str r2,[r3,#4]
 127:../Libraries/XMCLib/src/xmc_rtc.c **** }
 187              	 .loc 2 127 0
 188 002e BD46     	 mov sp,r7
 189 0030 02B0     	 add sp,sp,#8
 190              	 
 191 0032 80BD     	 pop {r7,pc}
 192              	.L16:
 193              	 .align 2
 194              	.L15:
 195 0034 000A0140 	 .word 1073809920
 196              	 .cfi_endproc
 197              	.LFE63:
 199              	 .section .text.XMC_RTC_SetTime,"ax",%progbits
 200              	 .align 2
 201              	 .global XMC_RTC_SetTime
 202              	 .code 16
 203              	 .thumb_func
 205              	XMC_RTC_SetTime:
 206              	.LFB64:
 128:../Libraries/XMCLib/src/xmc_rtc.c **** 
 129:../Libraries/XMCLib/src/xmc_rtc.c **** /*
 130:../Libraries/XMCLib/src/xmc_rtc.c ****  * Sets the RTC_TIM0, RTC_TIM1 registers with time values
 131:../Libraries/XMCLib/src/xmc_rtc.c ****  */
 132:../Libraries/XMCLib/src/xmc_rtc.c **** void XMC_RTC_SetTime(const XMC_RTC_TIME_t *const time)
 133:../Libraries/XMCLib/src/xmc_rtc.c **** {
 207              	 .loc 2 133 0
 208              	 .cfi_startproc
 209 0000 80B5     	 push {r7,lr}
 210              	.LCFI9:
 211              	 .cfi_def_cfa_offset 8
 212              	 .cfi_offset 7,-8
 213              	 .cfi_offset 14,-4
 214 0002 82B0     	 sub sp,sp,#8
 215              	.LCFI10:
 216              	 .cfi_def_cfa_offset 16
 217 0004 00AF     	 add r7,sp,#0
 218              	.LCFI11:
 219              	 .cfi_def_cfa_register 7
 220 0006 7860     	 str r0,[r7,#4]
 134:../Libraries/XMCLib/src/xmc_rtc.c ****   XMC_ASSERT("XMC_RTC_SetTime:Wrong seconds value", ((uint32_t)time->seconds < XMC_RTC_MAXSECONDS))
 135:../Libraries/XMCLib/src/xmc_rtc.c ****   XMC_ASSERT("XMC_RTC_SetTime:Wrong minutes value", ((uint32_t)time->minutes < XMC_RTC_MAXMINUTES))
 136:../Libraries/XMCLib/src/xmc_rtc.c ****   XMC_ASSERT("XMC_RTC_SetTime:Wrong hours value", ((uint32_t)time->hours < XMC_RTC_MAXHOURS));
 137:../Libraries/XMCLib/src/xmc_rtc.c ****   XMC_ASSERT("XMC_RTC_SetTime:Wrong month day value", ((uint32_t)time->days < XMC_RTC_MAXDAYS));
 138:../Libraries/XMCLib/src/xmc_rtc.c ****   XMC_ASSERT("XMC_RTC_SetTime:Wrong week day value", ((uint32_t)time->daysofweek < XMC_RTC_MAXDAYSO
 139:../Libraries/XMCLib/src/xmc_rtc.c ****   XMC_ASSERT("XMC_RTC_SetTime:Wrong month value", ((uint32_t)time->month < XMC_RTC_MAXMONTH));
 140:../Libraries/XMCLib/src/xmc_rtc.c ****   XMC_ASSERT("XMC_RTC_SetTime:Wrong year value", ((uint32_t)time->year < XMC_RTC_MAXYEAR));
 141:../Libraries/XMCLib/src/xmc_rtc.c **** 
 142:../Libraries/XMCLib/src/xmc_rtc.c ****   #if (XMC_RTC_INIT_SEQUENCE == 1U)
 143:../Libraries/XMCLib/src/xmc_rtc.c ****       while ((XMC_SCU_GetMirrorStatus() & SCU_GENERAL_MIRRSTS_RTC_TIM0_Msk) != 0U)
 144:../Libraries/XMCLib/src/xmc_rtc.c ****       { 
 145:../Libraries/XMCLib/src/xmc_rtc.c ****          /* check SCU_MIRRSTS to ensure that no transfer over serial interface is pending */
 146:../Libraries/XMCLib/src/xmc_rtc.c ****       }
 147:../Libraries/XMCLib/src/xmc_rtc.c ****       RTC->TIM0 = time->raw0;
 148:../Libraries/XMCLib/src/xmc_rtc.c ****       
 149:../Libraries/XMCLib/src/xmc_rtc.c ****       while ((XMC_SCU_GetMirrorStatus() & SCU_GENERAL_MIRRSTS_RTC_TIM1_Msk) != 0U)
 150:../Libraries/XMCLib/src/xmc_rtc.c ****       {
 151:../Libraries/XMCLib/src/xmc_rtc.c ****         /* check SCU_MIRRSTS to ensure that no transfer over serial interface is pending */
 152:../Libraries/XMCLib/src/xmc_rtc.c ****       }
 153:../Libraries/XMCLib/src/xmc_rtc.c ****       RTC->TIM1 = time->raw1;	     
 154:../Libraries/XMCLib/src/xmc_rtc.c ****   #endif
 155:../Libraries/XMCLib/src/xmc_rtc.c ****   #if (XMC_RTC_INIT_SEQUENCE == 0U)
 156:../Libraries/XMCLib/src/xmc_rtc.c ****       while ((XMC_SCU_GetMirrorStatus() & (SCU_GENERAL_MIRRSTS_RTC_TIM0_Msk | SCU_GENERAL_MIRRSTS_R
 221              	 .loc 2 156 0
 222 0008 C046     	 mov r8,r8
 223              	.L18:
 224              	 .loc 2 156 0 is_stmt 0 discriminator 1
 225 000a FFF7FEFF 	 bl XMC_SCU_GetMirrorStatus
 226 000e 021C     	 mov r2,r0
 227 0010 1823     	 mov r3,#24
 228 0012 1340     	 and r3,r2
 229 0014 F9D1     	 bne .L18
 157:../Libraries/XMCLib/src/xmc_rtc.c ****       {
 158:../Libraries/XMCLib/src/xmc_rtc.c ****         /* check SCU_MIRRSTS to ensure that no transfer over serial interface is pending */
 159:../Libraries/XMCLib/src/xmc_rtc.c ****       }
 160:../Libraries/XMCLib/src/xmc_rtc.c ****       RTC->TIM0 = time->raw0;
 230              	 .loc 2 160 0 is_stmt 1
 231 0016 054A     	 ldr r2,.L19
 232 0018 7B68     	 ldr r3,[r7,#4]
 233 001a 1B68     	 ldr r3,[r3]
 234 001c 1362     	 str r3,[r2,#32]
 161:../Libraries/XMCLib/src/xmc_rtc.c ****       RTC->TIM1 = time->raw1;	; 
 235              	 .loc 2 161 0
 236 001e 034A     	 ldr r2,.L19
 237 0020 7B68     	 ldr r3,[r7,#4]
 238 0022 5B68     	 ldr r3,[r3,#4]
 239 0024 5362     	 str r3,[r2,#36]
 162:../Libraries/XMCLib/src/xmc_rtc.c ****   #endif  
 163:../Libraries/XMCLib/src/xmc_rtc.c **** }
 240              	 .loc 2 163 0
 241 0026 BD46     	 mov sp,r7
 242 0028 02B0     	 add sp,sp,#8
 243              	 
 244 002a 80BD     	 pop {r7,pc}
 245              	.L20:
 246              	 .align 2
 247              	.L19:
 248 002c 000A0140 	 .word 1073809920
 249              	 .cfi_endproc
 250              	.LFE64:
 252              	 .section .text.XMC_RTC_GetTime,"ax",%progbits
 253              	 .align 2
 254              	 .global XMC_RTC_GetTime
 255              	 .code 16
 256              	 .thumb_func
 258              	XMC_RTC_GetTime:
 259              	.LFB65:
 164:../Libraries/XMCLib/src/xmc_rtc.c **** 
 165:../Libraries/XMCLib/src/xmc_rtc.c **** /*
 166:../Libraries/XMCLib/src/xmc_rtc.c ****  * Gets the RTC module time value
 167:../Libraries/XMCLib/src/xmc_rtc.c ****  */
 168:../Libraries/XMCLib/src/xmc_rtc.c **** void XMC_RTC_GetTime(XMC_RTC_TIME_t *const time)
 169:../Libraries/XMCLib/src/xmc_rtc.c **** {
 260              	 .loc 2 169 0
 261              	 .cfi_startproc
 262 0000 80B5     	 push {r7,lr}
 263              	.LCFI12:
 264              	 .cfi_def_cfa_offset 8
 265              	 .cfi_offset 7,-8
 266              	 .cfi_offset 14,-4
 267 0002 82B0     	 sub sp,sp,#8
 268              	.LCFI13:
 269              	 .cfi_def_cfa_offset 16
 270 0004 00AF     	 add r7,sp,#0
 271              	.LCFI14:
 272              	 .cfi_def_cfa_register 7
 273 0006 7860     	 str r0,[r7,#4]
 170:../Libraries/XMCLib/src/xmc_rtc.c ****   time->raw0 = RTC->TIM0;
 274              	 .loc 2 170 0
 275 0008 054B     	 ldr r3,.L22
 276 000a 1A6A     	 ldr r2,[r3,#32]
 277 000c 7B68     	 ldr r3,[r7,#4]
 278 000e 1A60     	 str r2,[r3]
 171:../Libraries/XMCLib/src/xmc_rtc.c ****   time->raw1 = RTC->TIM1;
 279              	 .loc 2 171 0
 280 0010 034B     	 ldr r3,.L22
 281 0012 5A6A     	 ldr r2,[r3,#36]
 282 0014 7B68     	 ldr r3,[r7,#4]
 283 0016 5A60     	 str r2,[r3,#4]
 172:../Libraries/XMCLib/src/xmc_rtc.c **** }
 284              	 .loc 2 172 0
 285 0018 BD46     	 mov sp,r7
 286 001a 02B0     	 add sp,sp,#8
 287              	 
 288 001c 80BD     	 pop {r7,pc}
 289              	.L23:
 290 001e C046     	 .align 2
 291              	.L22:
 292 0020 000A0140 	 .word 1073809920
 293              	 .cfi_endproc
 294              	.LFE65:
 296              	 .section .text.XMC_RTC_SetTimeStdFormat,"ax",%progbits
 297              	 .align 2
 298              	 .global XMC_RTC_SetTimeStdFormat
 299              	 .code 16
 300              	 .thumb_func
 302              	XMC_RTC_SetTimeStdFormat:
 303              	.LFB66:
 173:../Libraries/XMCLib/src/xmc_rtc.c **** 
 174:../Libraries/XMCLib/src/xmc_rtc.c **** /*
 175:../Libraries/XMCLib/src/xmc_rtc.c ****  * Sets the RTC module time values in standard format
 176:../Libraries/XMCLib/src/xmc_rtc.c ****  */
 177:../Libraries/XMCLib/src/xmc_rtc.c **** void XMC_RTC_SetTimeStdFormat(const struct tm *const stdtime)
 178:../Libraries/XMCLib/src/xmc_rtc.c **** {
 304              	 .loc 2 178 0
 305              	 .cfi_startproc
 306 0000 80B5     	 push {r7,lr}
 307              	.LCFI15:
 308              	 .cfi_def_cfa_offset 8
 309              	 .cfi_offset 7,-8
 310              	 .cfi_offset 14,-4
 311 0002 84B0     	 sub sp,sp,#16
 312              	.LCFI16:
 313              	 .cfi_def_cfa_offset 24
 314 0004 00AF     	 add r7,sp,#0
 315              	.LCFI17:
 316              	 .cfi_def_cfa_register 7
 317 0006 7860     	 str r0,[r7,#4]
 179:../Libraries/XMCLib/src/xmc_rtc.c **** 
 180:../Libraries/XMCLib/src/xmc_rtc.c ****   XMC_RTC_TIME_t time;
 181:../Libraries/XMCLib/src/xmc_rtc.c **** 
 182:../Libraries/XMCLib/src/xmc_rtc.c ****   time.seconds = stdtime->tm_sec;
 318              	 .loc 2 182 0
 319 0008 7B68     	 ldr r3,[r7,#4]
 320 000a 1B68     	 ldr r3,[r3]
 321 000c DBB2     	 uxtb r3,r3
 322 000e 1A1C     	 add r2,r3,#0
 323 0010 3F23     	 mov r3,#63
 324 0012 1340     	 and r3,r2
 325 0014 DAB2     	 uxtb r2,r3
 326 0016 0823     	 mov r3,#8
 327 0018 FB18     	 add r3,r7,r3
 328 001a 3F21     	 mov r1,#63
 329 001c 0A40     	 and r2,r1
 330 001e 101C     	 mov r0,r2
 331 0020 1A78     	 ldrb r2,[r3]
 332 0022 3F21     	 mov r1,#63
 333 0024 8A43     	 bic r2,r1
 334 0026 111C     	 add r1,r2,#0
 335 0028 021C     	 add r2,r0,#0
 336 002a 0A43     	 orr r2,r1
 337 002c 1A70     	 strb r2,[r3]
 183:../Libraries/XMCLib/src/xmc_rtc.c ****   time.minutes = stdtime->tm_min;
 338              	 .loc 2 183 0
 339 002e 7B68     	 ldr r3,[r7,#4]
 340 0030 5B68     	 ldr r3,[r3,#4]
 341 0032 DBB2     	 uxtb r3,r3
 342 0034 1A1C     	 add r2,r3,#0
 343 0036 3F23     	 mov r3,#63
 344 0038 1340     	 and r3,r2
 345 003a DAB2     	 uxtb r2,r3
 346 003c 0823     	 mov r3,#8
 347 003e FB18     	 add r3,r7,r3
 348 0040 3F21     	 mov r1,#63
 349 0042 0A40     	 and r2,r1
 350 0044 101C     	 mov r0,r2
 351 0046 5A78     	 ldrb r2,[r3,#1]
 352 0048 3F21     	 mov r1,#63
 353 004a 8A43     	 bic r2,r1
 354 004c 111C     	 add r1,r2,#0
 355 004e 021C     	 add r2,r0,#0
 356 0050 0A43     	 orr r2,r1
 357 0052 5A70     	 strb r2,[r3,#1]
 184:../Libraries/XMCLib/src/xmc_rtc.c ****   time.hours = stdtime->tm_hour;
 358              	 .loc 2 184 0
 359 0054 7B68     	 ldr r3,[r7,#4]
 360 0056 9B68     	 ldr r3,[r3,#8]
 361 0058 DBB2     	 uxtb r3,r3
 362 005a 1A1C     	 add r2,r3,#0
 363 005c 1F23     	 mov r3,#31
 364 005e 1340     	 and r3,r2
 365 0060 DAB2     	 uxtb r2,r3
 366 0062 0823     	 mov r3,#8
 367 0064 FB18     	 add r3,r7,r3
 368 0066 1F21     	 mov r1,#31
 369 0068 0A40     	 and r2,r1
 370 006a 101C     	 mov r0,r2
 371 006c 9A78     	 ldrb r2,[r3,#2]
 372 006e 1F21     	 mov r1,#31
 373 0070 8A43     	 bic r2,r1
 374 0072 111C     	 add r1,r2,#0
 375 0074 021C     	 add r2,r0,#0
 376 0076 0A43     	 orr r2,r1
 377 0078 9A70     	 strb r2,[r3,#2]
 185:../Libraries/XMCLib/src/xmc_rtc.c ****   time.days = stdtime->tm_mday - 1;
 378              	 .loc 2 185 0
 379 007a 7B68     	 ldr r3,[r7,#4]
 380 007c DB68     	 ldr r3,[r3,#12]
 381 007e DBB2     	 uxtb r3,r3
 382 0080 013B     	 sub r3,r3,#1
 383 0082 DBB2     	 uxtb r3,r3
 384 0084 1A1C     	 add r2,r3,#0
 385 0086 1F23     	 mov r3,#31
 386 0088 1340     	 and r3,r2
 387 008a DAB2     	 uxtb r2,r3
 388 008c 0823     	 mov r3,#8
 389 008e FB18     	 add r3,r7,r3
 390 0090 1F21     	 mov r1,#31
 391 0092 0A40     	 and r2,r1
 392 0094 101C     	 mov r0,r2
 393 0096 DA78     	 ldrb r2,[r3,#3]
 394 0098 1F21     	 mov r1,#31
 395 009a 8A43     	 bic r2,r1
 396 009c 111C     	 add r1,r2,#0
 397 009e 021C     	 add r2,r0,#0
 398 00a0 0A43     	 orr r2,r1
 399 00a2 DA70     	 strb r2,[r3,#3]
 186:../Libraries/XMCLib/src/xmc_rtc.c ****   time.month = stdtime->tm_mon;
 400              	 .loc 2 186 0
 401 00a4 7B68     	 ldr r3,[r7,#4]
 402 00a6 1B69     	 ldr r3,[r3,#16]
 403 00a8 DBB2     	 uxtb r3,r3
 404 00aa 1A1C     	 add r2,r3,#0
 405 00ac 0F23     	 mov r3,#15
 406 00ae 1340     	 and r3,r2
 407 00b0 DAB2     	 uxtb r2,r3
 408 00b2 0823     	 mov r3,#8
 409 00b4 FB18     	 add r3,r7,r3
 410 00b6 0F21     	 mov r1,#15
 411 00b8 0A40     	 and r2,r1
 412 00ba 101C     	 mov r0,r2
 413 00bc 5A79     	 ldrb r2,[r3,#5]
 414 00be 0F21     	 mov r1,#15
 415 00c0 8A43     	 bic r2,r1
 416 00c2 111C     	 add r1,r2,#0
 417 00c4 021C     	 add r2,r0,#0
 418 00c6 0A43     	 orr r2,r1
 419 00c8 5A71     	 strb r2,[r3,#5]
 187:../Libraries/XMCLib/src/xmc_rtc.c ****   time.year = stdtime->tm_year + XMC_RTC_YEAR_OFFSET;
 420              	 .loc 2 187 0
 421 00ca 7B68     	 ldr r3,[r7,#4]
 422 00cc 5B69     	 ldr r3,[r3,#20]
 423 00ce 9BB2     	 uxth r3,r3
 424 00d0 104A     	 ldr r2,.L25
 425 00d2 9446     	 mov ip,r2
 426 00d4 6344     	 add r3,r3,ip
 427 00d6 9AB2     	 uxth r2,r3
 428 00d8 0823     	 mov r3,#8
 429 00da FB18     	 add r3,r7,r3
 430 00dc DA80     	 strh r2,[r3,#6]
 188:../Libraries/XMCLib/src/xmc_rtc.c ****   time.daysofweek = stdtime->tm_wday;
 431              	 .loc 2 188 0
 432 00de 7B68     	 ldr r3,[r7,#4]
 433 00e0 9B69     	 ldr r3,[r3,#24]
 434 00e2 DBB2     	 uxtb r3,r3
 435 00e4 1A1C     	 add r2,r3,#0
 436 00e6 0723     	 mov r3,#7
 437 00e8 1340     	 and r3,r2
 438 00ea DAB2     	 uxtb r2,r3
 439 00ec 0823     	 mov r3,#8
 440 00ee FB18     	 add r3,r7,r3
 441 00f0 0721     	 mov r1,#7
 442 00f2 0A40     	 and r2,r1
 443 00f4 101C     	 mov r0,r2
 444 00f6 1A79     	 ldrb r2,[r3,#4]
 445 00f8 0721     	 mov r1,#7
 446 00fa 8A43     	 bic r2,r1
 447 00fc 111C     	 add r1,r2,#0
 448 00fe 021C     	 add r2,r0,#0
 449 0100 0A43     	 orr r2,r1
 450 0102 1A71     	 strb r2,[r3,#4]
 189:../Libraries/XMCLib/src/xmc_rtc.c **** 
 190:../Libraries/XMCLib/src/xmc_rtc.c ****   XMC_RTC_SetTime(&time);
 451              	 .loc 2 190 0
 452 0104 0823     	 mov r3,#8
 453 0106 FB18     	 add r3,r7,r3
 454 0108 181C     	 mov r0,r3
 455 010a FFF7FEFF 	 bl XMC_RTC_SetTime
 191:../Libraries/XMCLib/src/xmc_rtc.c **** }
 456              	 .loc 2 191 0
 457 010e BD46     	 mov sp,r7
 458 0110 04B0     	 add sp,sp,#16
 459              	 
 460 0112 80BD     	 pop {r7,pc}
 461              	.L26:
 462              	 .align 2
 463              	.L25:
 464 0114 6C070000 	 .word 1900
 465              	 .cfi_endproc
 466              	.LFE66:
 468              	 .section .text.XMC_RTC_GetTimeStdFormat,"ax",%progbits
 469              	 .align 2
 470              	 .global XMC_RTC_GetTimeStdFormat
 471              	 .code 16
 472              	 .thumb_func
 474              	XMC_RTC_GetTimeStdFormat:
 475              	.LFB67:
 192:../Libraries/XMCLib/src/xmc_rtc.c **** 
 193:../Libraries/XMCLib/src/xmc_rtc.c **** /*
 194:../Libraries/XMCLib/src/xmc_rtc.c ****  * Gets the RTC module time values in standard format
 195:../Libraries/XMCLib/src/xmc_rtc.c ****  */
 196:../Libraries/XMCLib/src/xmc_rtc.c **** void XMC_RTC_GetTimeStdFormat(struct tm *const stdtime)
 197:../Libraries/XMCLib/src/xmc_rtc.c **** {
 476              	 .loc 2 197 0
 477              	 .cfi_startproc
 478 0000 80B5     	 push {r7,lr}
 479              	.LCFI18:
 480              	 .cfi_def_cfa_offset 8
 481              	 .cfi_offset 7,-8
 482              	 .cfi_offset 14,-4
 483 0002 84B0     	 sub sp,sp,#16
 484              	.LCFI19:
 485              	 .cfi_def_cfa_offset 24
 486 0004 00AF     	 add r7,sp,#0
 487              	.LCFI20:
 488              	 .cfi_def_cfa_register 7
 489 0006 7860     	 str r0,[r7,#4]
 198:../Libraries/XMCLib/src/xmc_rtc.c ****   XMC_RTC_TIME_t time;
 199:../Libraries/XMCLib/src/xmc_rtc.c ****   time.raw0 = RTC->TIM0;
 490              	 .loc 2 199 0
 491 0008 244B     	 ldr r3,.L28
 492 000a 1A6A     	 ldr r2,[r3,#32]
 493 000c 0823     	 mov r3,#8
 494 000e FB18     	 add r3,r7,r3
 495 0010 1A60     	 str r2,[r3]
 200:../Libraries/XMCLib/src/xmc_rtc.c ****   time.raw1 = RTC->TIM1;
 496              	 .loc 2 200 0
 497 0012 224B     	 ldr r3,.L28
 498 0014 5A6A     	 ldr r2,[r3,#36]
 499 0016 0823     	 mov r3,#8
 500 0018 FB18     	 add r3,r7,r3
 501 001a 5A60     	 str r2,[r3,#4]
 201:../Libraries/XMCLib/src/xmc_rtc.c ****   
 202:../Libraries/XMCLib/src/xmc_rtc.c ****   stdtime->tm_sec = (int8_t)time.seconds;
 502              	 .loc 2 202 0
 503 001c 0823     	 mov r3,#8
 504 001e FB18     	 add r3,r7,r3
 505 0020 1B78     	 ldrb r3,[r3]
 506 0022 9B06     	 lsl r3,r3,#26
 507 0024 9B0E     	 lsr r3,r3,#26
 508 0026 DBB2     	 uxtb r3,r3
 509 0028 1A1C     	 mov r2,r3
 510 002a 7B68     	 ldr r3,[r7,#4]
 511 002c 1A60     	 str r2,[r3]
 203:../Libraries/XMCLib/src/xmc_rtc.c ****   stdtime->tm_min = (int8_t)time.minutes;
 512              	 .loc 2 203 0
 513 002e 0823     	 mov r3,#8
 514 0030 FB18     	 add r3,r7,r3
 515 0032 5B78     	 ldrb r3,[r3,#1]
 516 0034 9B06     	 lsl r3,r3,#26
 517 0036 9B0E     	 lsr r3,r3,#26
 518 0038 DBB2     	 uxtb r3,r3
 519 003a 1A1C     	 mov r2,r3
 520 003c 7B68     	 ldr r3,[r7,#4]
 521 003e 5A60     	 str r2,[r3,#4]
 204:../Libraries/XMCLib/src/xmc_rtc.c ****   stdtime->tm_hour = (int8_t)time.hours;
 522              	 .loc 2 204 0
 523 0040 0823     	 mov r3,#8
 524 0042 FB18     	 add r3,r7,r3
 525 0044 9B78     	 ldrb r3,[r3,#2]
 526 0046 DB06     	 lsl r3,r3,#27
 527 0048 DB0E     	 lsr r3,r3,#27
 528 004a DBB2     	 uxtb r3,r3
 529 004c 1A1C     	 mov r2,r3
 530 004e 7B68     	 ldr r3,[r7,#4]
 531 0050 9A60     	 str r2,[r3,#8]
 205:../Libraries/XMCLib/src/xmc_rtc.c ****   stdtime->tm_mday = ((int8_t)time.days + (int8_t)1);
 532              	 .loc 2 205 0
 533 0052 0823     	 mov r3,#8
 534 0054 FB18     	 add r3,r7,r3
 535 0056 DB78     	 ldrb r3,[r3,#3]
 536 0058 DB06     	 lsl r3,r3,#27
 537 005a DB0E     	 lsr r3,r3,#27
 538 005c DBB2     	 uxtb r3,r3
 539 005e 5A1C     	 add r2,r3,#1
 540 0060 7B68     	 ldr r3,[r7,#4]
 541 0062 DA60     	 str r2,[r3,#12]
 206:../Libraries/XMCLib/src/xmc_rtc.c ****   stdtime->tm_mon = (int8_t)time.month;
 542              	 .loc 2 206 0
 543 0064 0823     	 mov r3,#8
 544 0066 FB18     	 add r3,r7,r3
 545 0068 5B79     	 ldrb r3,[r3,#5]
 546 006a 1B07     	 lsl r3,r3,#28
 547 006c 1B0F     	 lsr r3,r3,#28
 548 006e DBB2     	 uxtb r3,r3
 549 0070 1A1C     	 mov r2,r3
 550 0072 7B68     	 ldr r3,[r7,#4]
 551 0074 1A61     	 str r2,[r3,#16]
 207:../Libraries/XMCLib/src/xmc_rtc.c ****   stdtime->tm_year = (int32_t)time.year - (int32_t)XMC_RTC_YEAR_OFFSET;
 552              	 .loc 2 207 0
 553 0076 0823     	 mov r3,#8
 554 0078 FB18     	 add r3,r7,r3
 555 007a DB88     	 ldrh r3,[r3,#6]
 556 007c 084A     	 ldr r2,.L28+4
 557 007e 9A18     	 add r2,r3,r2
 558 0080 7B68     	 ldr r3,[r7,#4]
 559 0082 5A61     	 str r2,[r3,#20]
 208:../Libraries/XMCLib/src/xmc_rtc.c ****   stdtime->tm_wday = (int8_t)time.daysofweek;
 560              	 .loc 2 208 0
 561 0084 0823     	 mov r3,#8
 562 0086 FB18     	 add r3,r7,r3
 563 0088 1B79     	 ldrb r3,[r3,#4]
 564 008a 5B07     	 lsl r3,r3,#29
 565 008c 5B0F     	 lsr r3,r3,#29
 566 008e DBB2     	 uxtb r3,r3
 567 0090 1A1C     	 mov r2,r3
 568 0092 7B68     	 ldr r3,[r7,#4]
 569 0094 9A61     	 str r2,[r3,#24]
 209:../Libraries/XMCLib/src/xmc_rtc.c **** }
 570              	 .loc 2 209 0
 571 0096 BD46     	 mov sp,r7
 572 0098 04B0     	 add sp,sp,#16
 573              	 
 574 009a 80BD     	 pop {r7,pc}
 575              	.L29:
 576              	 .align 2
 577              	.L28:
 578 009c 000A0140 	 .word 1073809920
 579 00a0 94F8FFFF 	 .word -1900
 580              	 .cfi_endproc
 581              	.LFE67:
 583              	 .section .text.XMC_RTC_SetAlarm,"ax",%progbits
 584              	 .align 2
 585              	 .global XMC_RTC_SetAlarm
 586              	 .code 16
 587              	 .thumb_func
 589              	XMC_RTC_SetAlarm:
 590              	.LFB68:
 210:../Libraries/XMCLib/src/xmc_rtc.c **** 
 211:../Libraries/XMCLib/src/xmc_rtc.c **** /*
 212:../Libraries/XMCLib/src/xmc_rtc.c ****  * Sets the RTC module alarm time value
 213:../Libraries/XMCLib/src/xmc_rtc.c ****  */
 214:../Libraries/XMCLib/src/xmc_rtc.c **** void XMC_RTC_SetAlarm(const XMC_RTC_ALARM_t *const alarm)
 215:../Libraries/XMCLib/src/xmc_rtc.c **** {
 591              	 .loc 2 215 0
 592              	 .cfi_startproc
 593 0000 80B5     	 push {r7,lr}
 594              	.LCFI21:
 595              	 .cfi_def_cfa_offset 8
 596              	 .cfi_offset 7,-8
 597              	 .cfi_offset 14,-4
 598 0002 82B0     	 sub sp,sp,#8
 599              	.LCFI22:
 600              	 .cfi_def_cfa_offset 16
 601 0004 00AF     	 add r7,sp,#0
 602              	.LCFI23:
 603              	 .cfi_def_cfa_register 7
 604 0006 7860     	 str r0,[r7,#4]
 216:../Libraries/XMCLib/src/xmc_rtc.c ****   XMC_ASSERT("XMC_RTC_SetAlarm:Wrong seconds value", ((uint32_t)alarm->seconds < XMC_RTC_MAXSECONDS
 217:../Libraries/XMCLib/src/xmc_rtc.c ****   XMC_ASSERT("XMC_RTC_SetAlarm:Wrong minutes value", ((uint32_t)alarm->minutes < XMC_RTC_MAXMINUTES
 218:../Libraries/XMCLib/src/xmc_rtc.c ****   XMC_ASSERT("XMC_RTC_SetAlarm:Wrong hours value", ((uint32_t)alarm->hours < XMC_RTC_MAXHOURS));
 219:../Libraries/XMCLib/src/xmc_rtc.c ****   XMC_ASSERT("XMC_RTC_SetAlarm:Wrong days value", ((uint32_t)alarm->days < XMC_RTC_MAXDAYS));
 220:../Libraries/XMCLib/src/xmc_rtc.c ****   XMC_ASSERT("XMC_RTC_SetAlarm:Wrong month value", ((uint32_t)alarm->month < XMC_RTC_MAXMONTH));
 221:../Libraries/XMCLib/src/xmc_rtc.c ****   XMC_ASSERT("XMC_RTC_SetAlarm:Wrong year value", ((uint32_t)alarm->year < XMC_RTC_MAXYEAR));
 222:../Libraries/XMCLib/src/xmc_rtc.c **** 
 223:../Libraries/XMCLib/src/xmc_rtc.c ****   #if (XMC_RTC_INIT_SEQUENCE == 1U)
 224:../Libraries/XMCLib/src/xmc_rtc.c ****       while ((XMC_SCU_GetMirrorStatus() & SCU_GENERAL_MIRRSTS_RTC_ATIM0_Msk) != 0U)
 225:../Libraries/XMCLib/src/xmc_rtc.c ****       {
 226:../Libraries/XMCLib/src/xmc_rtc.c ****         /* check SCU_MIRRSTS to ensure that no transfer over serial interface is pending */
 227:../Libraries/XMCLib/src/xmc_rtc.c ****       }
 228:../Libraries/XMCLib/src/xmc_rtc.c ****       RTC->ATIM0 = alarm->raw0;
 229:../Libraries/XMCLib/src/xmc_rtc.c ****       
 230:../Libraries/XMCLib/src/xmc_rtc.c ****       while ((XMC_SCU_GetMirrorStatus() & SCU_GENERAL_MIRRSTS_RTC_ATIM1_Msk) != 0U)
 231:../Libraries/XMCLib/src/xmc_rtc.c ****       {
 232:../Libraries/XMCLib/src/xmc_rtc.c ****         /* check SCU_MIRRSTS to ensure that no transfer over serial interface is pending */
 233:../Libraries/XMCLib/src/xmc_rtc.c ****       }
 234:../Libraries/XMCLib/src/xmc_rtc.c ****       RTC->ATIM1 = alarm->raw1; 
 235:../Libraries/XMCLib/src/xmc_rtc.c ****   #endif
 236:../Libraries/XMCLib/src/xmc_rtc.c ****   #if (XMC_RTC_INIT_SEQUENCE == 0U)
 237:../Libraries/XMCLib/src/xmc_rtc.c ****       while ((XMC_SCU_GetMirrorStatus() & (SCU_GENERAL_MIRRSTS_RTC_ATIM0_Msk | SCU_GENERAL_MIRRSTS_
 605              	 .loc 2 237 0
 606 0008 C046     	 mov r8,r8
 607              	.L31:
 608              	 .loc 2 237 0 is_stmt 0 discriminator 1
 609 000a FFF7FEFF 	 bl XMC_SCU_GetMirrorStatus
 610 000e 021C     	 mov r2,r0
 611 0010 0623     	 mov r3,#6
 612 0012 1340     	 and r3,r2
 613 0014 F9D1     	 bne .L31
 238:../Libraries/XMCLib/src/xmc_rtc.c ****       {
 239:../Libraries/XMCLib/src/xmc_rtc.c ****         /* check SCU_MIRRSTS to ensure that no transfer over serial interface is pending */
 240:../Libraries/XMCLib/src/xmc_rtc.c ****       }
 241:../Libraries/XMCLib/src/xmc_rtc.c ****       RTC->ATIM0 = alarm->raw0;
 614              	 .loc 2 241 0 is_stmt 1
 615 0016 054A     	 ldr r2,.L32
 616 0018 7B68     	 ldr r3,[r7,#4]
 617 001a 1B68     	 ldr r3,[r3]
 618 001c 9361     	 str r3,[r2,#24]
 242:../Libraries/XMCLib/src/xmc_rtc.c ****       RTC->ATIM1 = alarm->raw1; 
 619              	 .loc 2 242 0
 620 001e 034A     	 ldr r2,.L32
 621 0020 7B68     	 ldr r3,[r7,#4]
 622 0022 5B68     	 ldr r3,[r3,#4]
 623 0024 D361     	 str r3,[r2,#28]
 243:../Libraries/XMCLib/src/xmc_rtc.c ****   #endif  
 244:../Libraries/XMCLib/src/xmc_rtc.c **** }
 624              	 .loc 2 244 0
 625 0026 BD46     	 mov sp,r7
 626 0028 02B0     	 add sp,sp,#8
 627              	 
 628 002a 80BD     	 pop {r7,pc}
 629              	.L33:
 630              	 .align 2
 631              	.L32:
 632 002c 000A0140 	 .word 1073809920
 633              	 .cfi_endproc
 634              	.LFE68:
 636              	 .section .text.XMC_RTC_GetAlarm,"ax",%progbits
 637              	 .align 2
 638              	 .global XMC_RTC_GetAlarm
 639              	 .code 16
 640              	 .thumb_func
 642              	XMC_RTC_GetAlarm:
 643              	.LFB69:
 245:../Libraries/XMCLib/src/xmc_rtc.c **** 
 246:../Libraries/XMCLib/src/xmc_rtc.c **** /*
 247:../Libraries/XMCLib/src/xmc_rtc.c ****  * Gets the RTC module alarm time value
 248:../Libraries/XMCLib/src/xmc_rtc.c ****  */
 249:../Libraries/XMCLib/src/xmc_rtc.c **** void XMC_RTC_GetAlarm(XMC_RTC_ALARM_t *const alarm)
 250:../Libraries/XMCLib/src/xmc_rtc.c **** {
 644              	 .loc 2 250 0
 645              	 .cfi_startproc
 646 0000 80B5     	 push {r7,lr}
 647              	.LCFI24:
 648              	 .cfi_def_cfa_offset 8
 649              	 .cfi_offset 7,-8
 650              	 .cfi_offset 14,-4
 651 0002 82B0     	 sub sp,sp,#8
 652              	.LCFI25:
 653              	 .cfi_def_cfa_offset 16
 654 0004 00AF     	 add r7,sp,#0
 655              	.LCFI26:
 656              	 .cfi_def_cfa_register 7
 657 0006 7860     	 str r0,[r7,#4]
 251:../Libraries/XMCLib/src/xmc_rtc.c ****   alarm->raw0 = RTC->ATIM0;
 658              	 .loc 2 251 0
 659 0008 054B     	 ldr r3,.L35
 660 000a 9A69     	 ldr r2,[r3,#24]
 661 000c 7B68     	 ldr r3,[r7,#4]
 662 000e 1A60     	 str r2,[r3]
 252:../Libraries/XMCLib/src/xmc_rtc.c ****   alarm->raw1 = RTC->ATIM1;
 663              	 .loc 2 252 0
 664 0010 034B     	 ldr r3,.L35
 665 0012 DA69     	 ldr r2,[r3,#28]
 666 0014 7B68     	 ldr r3,[r7,#4]
 667 0016 5A60     	 str r2,[r3,#4]
 253:../Libraries/XMCLib/src/xmc_rtc.c **** }
 668              	 .loc 2 253 0
 669 0018 BD46     	 mov sp,r7
 670 001a 02B0     	 add sp,sp,#8
 671              	 
 672 001c 80BD     	 pop {r7,pc}
 673              	.L36:
 674 001e C046     	 .align 2
 675              	.L35:
 676 0020 000A0140 	 .word 1073809920
 677              	 .cfi_endproc
 678              	.LFE69:
 680              	 .section .text.XMC_RTC_SetAlarmStdFormat,"ax",%progbits
 681              	 .align 2
 682              	 .global XMC_RTC_SetAlarmStdFormat
 683              	 .code 16
 684              	 .thumb_func
 686              	XMC_RTC_SetAlarmStdFormat:
 687              	.LFB70:
 254:../Libraries/XMCLib/src/xmc_rtc.c **** 
 255:../Libraries/XMCLib/src/xmc_rtc.c **** 
 256:../Libraries/XMCLib/src/xmc_rtc.c **** /*
 257:../Libraries/XMCLib/src/xmc_rtc.c ****  * Sets the RTC module alarm time value in standard format
 258:../Libraries/XMCLib/src/xmc_rtc.c ****  */
 259:../Libraries/XMCLib/src/xmc_rtc.c **** void XMC_RTC_SetAlarmStdFormat(const struct tm *const stdtime)
 260:../Libraries/XMCLib/src/xmc_rtc.c **** {
 688              	 .loc 2 260 0
 689              	 .cfi_startproc
 690 0000 80B5     	 push {r7,lr}
 691              	.LCFI27:
 692              	 .cfi_def_cfa_offset 8
 693              	 .cfi_offset 7,-8
 694              	 .cfi_offset 14,-4
 695 0002 84B0     	 sub sp,sp,#16
 696              	.LCFI28:
 697              	 .cfi_def_cfa_offset 24
 698 0004 00AF     	 add r7,sp,#0
 699              	.LCFI29:
 700              	 .cfi_def_cfa_register 7
 701 0006 7860     	 str r0,[r7,#4]
 261:../Libraries/XMCLib/src/xmc_rtc.c ****   XMC_RTC_ALARM_t alarm;
 262:../Libraries/XMCLib/src/xmc_rtc.c ****   
 263:../Libraries/XMCLib/src/xmc_rtc.c **** 
 264:../Libraries/XMCLib/src/xmc_rtc.c ****   alarm.seconds = stdtime->tm_sec;
 702              	 .loc 2 264 0
 703 0008 7B68     	 ldr r3,[r7,#4]
 704 000a 1B68     	 ldr r3,[r3]
 705 000c DBB2     	 uxtb r3,r3
 706 000e 1A1C     	 add r2,r3,#0
 707 0010 3F23     	 mov r3,#63
 708 0012 1340     	 and r3,r2
 709 0014 DAB2     	 uxtb r2,r3
 710 0016 0823     	 mov r3,#8
 711 0018 FB18     	 add r3,r7,r3
 712 001a 3F21     	 mov r1,#63
 713 001c 0A40     	 and r2,r1
 714 001e 101C     	 mov r0,r2
 715 0020 1A78     	 ldrb r2,[r3]
 716 0022 3F21     	 mov r1,#63
 717 0024 8A43     	 bic r2,r1
 718 0026 111C     	 add r1,r2,#0
 719 0028 021C     	 add r2,r0,#0
 720 002a 0A43     	 orr r2,r1
 721 002c 1A70     	 strb r2,[r3]
 265:../Libraries/XMCLib/src/xmc_rtc.c ****   alarm.minutes = stdtime->tm_min;
 722              	 .loc 2 265 0
 723 002e 7B68     	 ldr r3,[r7,#4]
 724 0030 5B68     	 ldr r3,[r3,#4]
 725 0032 DBB2     	 uxtb r3,r3
 726 0034 1A1C     	 add r2,r3,#0
 727 0036 3F23     	 mov r3,#63
 728 0038 1340     	 and r3,r2
 729 003a DAB2     	 uxtb r2,r3
 730 003c 0823     	 mov r3,#8
 731 003e FB18     	 add r3,r7,r3
 732 0040 3F21     	 mov r1,#63
 733 0042 0A40     	 and r2,r1
 734 0044 101C     	 mov r0,r2
 735 0046 5A78     	 ldrb r2,[r3,#1]
 736 0048 3F21     	 mov r1,#63
 737 004a 8A43     	 bic r2,r1
 738 004c 111C     	 add r1,r2,#0
 739 004e 021C     	 add r2,r0,#0
 740 0050 0A43     	 orr r2,r1
 741 0052 5A70     	 strb r2,[r3,#1]
 266:../Libraries/XMCLib/src/xmc_rtc.c ****   alarm.hours = stdtime->tm_hour;
 742              	 .loc 2 266 0
 743 0054 7B68     	 ldr r3,[r7,#4]
 744 0056 9B68     	 ldr r3,[r3,#8]
 745 0058 DBB2     	 uxtb r3,r3
 746 005a 1A1C     	 add r2,r3,#0
 747 005c 1F23     	 mov r3,#31
 748 005e 1340     	 and r3,r2
 749 0060 DAB2     	 uxtb r2,r3
 750 0062 0823     	 mov r3,#8
 751 0064 FB18     	 add r3,r7,r3
 752 0066 1F21     	 mov r1,#31
 753 0068 0A40     	 and r2,r1
 754 006a 101C     	 mov r0,r2
 755 006c 9A78     	 ldrb r2,[r3,#2]
 756 006e 1F21     	 mov r1,#31
 757 0070 8A43     	 bic r2,r1
 758 0072 111C     	 add r1,r2,#0
 759 0074 021C     	 add r2,r0,#0
 760 0076 0A43     	 orr r2,r1
 761 0078 9A70     	 strb r2,[r3,#2]
 267:../Libraries/XMCLib/src/xmc_rtc.c ****   alarm.days = stdtime->tm_mday - 1;
 762              	 .loc 2 267 0
 763 007a 7B68     	 ldr r3,[r7,#4]
 764 007c DB68     	 ldr r3,[r3,#12]
 765 007e DBB2     	 uxtb r3,r3
 766 0080 013B     	 sub r3,r3,#1
 767 0082 DBB2     	 uxtb r3,r3
 768 0084 1A1C     	 add r2,r3,#0
 769 0086 1F23     	 mov r3,#31
 770 0088 1340     	 and r3,r2
 771 008a DAB2     	 uxtb r2,r3
 772 008c 0823     	 mov r3,#8
 773 008e FB18     	 add r3,r7,r3
 774 0090 1F21     	 mov r1,#31
 775 0092 0A40     	 and r2,r1
 776 0094 101C     	 mov r0,r2
 777 0096 DA78     	 ldrb r2,[r3,#3]
 778 0098 1F21     	 mov r1,#31
 779 009a 8A43     	 bic r2,r1
 780 009c 111C     	 add r1,r2,#0
 781 009e 021C     	 add r2,r0,#0
 782 00a0 0A43     	 orr r2,r1
 783 00a2 DA70     	 strb r2,[r3,#3]
 268:../Libraries/XMCLib/src/xmc_rtc.c ****   alarm.month = stdtime->tm_mon;
 784              	 .loc 2 268 0
 785 00a4 7B68     	 ldr r3,[r7,#4]
 786 00a6 1B69     	 ldr r3,[r3,#16]
 787 00a8 DBB2     	 uxtb r3,r3
 788 00aa 1A1C     	 add r2,r3,#0
 789 00ac 0F23     	 mov r3,#15
 790 00ae 1340     	 and r3,r2
 791 00b0 DAB2     	 uxtb r2,r3
 792 00b2 0823     	 mov r3,#8
 793 00b4 FB18     	 add r3,r7,r3
 794 00b6 0F21     	 mov r1,#15
 795 00b8 0A40     	 and r2,r1
 796 00ba 101C     	 mov r0,r2
 797 00bc 5A79     	 ldrb r2,[r3,#5]
 798 00be 0F21     	 mov r1,#15
 799 00c0 8A43     	 bic r2,r1
 800 00c2 111C     	 add r1,r2,#0
 801 00c4 021C     	 add r2,r0,#0
 802 00c6 0A43     	 orr r2,r1
 803 00c8 5A71     	 strb r2,[r3,#5]
 269:../Libraries/XMCLib/src/xmc_rtc.c ****   alarm.year = stdtime->tm_year + XMC_RTC_YEAR_OFFSET;
 804              	 .loc 2 269 0
 805 00ca 7B68     	 ldr r3,[r7,#4]
 806 00cc 5B69     	 ldr r3,[r3,#20]
 807 00ce 9BB2     	 uxth r3,r3
 808 00d0 074A     	 ldr r2,.L38
 809 00d2 9446     	 mov ip,r2
 810 00d4 6344     	 add r3,r3,ip
 811 00d6 9AB2     	 uxth r2,r3
 812 00d8 0823     	 mov r3,#8
 813 00da FB18     	 add r3,r7,r3
 814 00dc DA80     	 strh r2,[r3,#6]
 270:../Libraries/XMCLib/src/xmc_rtc.c **** 
 271:../Libraries/XMCLib/src/xmc_rtc.c ****   XMC_RTC_SetAlarm(&alarm);
 815              	 .loc 2 271 0
 816 00de 0823     	 mov r3,#8
 817 00e0 FB18     	 add r3,r7,r3
 818 00e2 181C     	 mov r0,r3
 819 00e4 FFF7FEFF 	 bl XMC_RTC_SetAlarm
 272:../Libraries/XMCLib/src/xmc_rtc.c **** }
 820              	 .loc 2 272 0
 821 00e8 BD46     	 mov sp,r7
 822 00ea 04B0     	 add sp,sp,#16
 823              	 
 824 00ec 80BD     	 pop {r7,pc}
 825              	.L39:
 826 00ee C046     	 .align 2
 827              	.L38:
 828 00f0 6C070000 	 .word 1900
 829              	 .cfi_endproc
 830              	.LFE70:
 832              	 .section .text.XMC_RTC_GetAlarmStdFormat,"ax",%progbits
 833              	 .align 2
 834              	 .global XMC_RTC_GetAlarmStdFormat
 835              	 .code 16
 836              	 .thumb_func
 838              	XMC_RTC_GetAlarmStdFormat:
 839              	.LFB71:
 273:../Libraries/XMCLib/src/xmc_rtc.c **** 
 274:../Libraries/XMCLib/src/xmc_rtc.c **** /*
 275:../Libraries/XMCLib/src/xmc_rtc.c ****  * Gets the RTC module alarm time value in standard format
 276:../Libraries/XMCLib/src/xmc_rtc.c ****  */
 277:../Libraries/XMCLib/src/xmc_rtc.c **** void XMC_RTC_GetAlarmStdFormat(struct tm *const stdtime)
 278:../Libraries/XMCLib/src/xmc_rtc.c **** {
 840              	 .loc 2 278 0
 841              	 .cfi_startproc
 842 0000 80B5     	 push {r7,lr}
 843              	.LCFI30:
 844              	 .cfi_def_cfa_offset 8
 845              	 .cfi_offset 7,-8
 846              	 .cfi_offset 14,-4
 847 0002 84B0     	 sub sp,sp,#16
 848              	.LCFI31:
 849              	 .cfi_def_cfa_offset 24
 850 0004 00AF     	 add r7,sp,#0
 851              	.LCFI32:
 852              	 .cfi_def_cfa_register 7
 853 0006 7860     	 str r0,[r7,#4]
 279:../Libraries/XMCLib/src/xmc_rtc.c ****   XMC_RTC_ALARM_t alarm;
 280:../Libraries/XMCLib/src/xmc_rtc.c ****   
 281:../Libraries/XMCLib/src/xmc_rtc.c ****   alarm.raw0 = RTC->ATIM0;
 854              	 .loc 2 281 0
 855 0008 204B     	 ldr r3,.L41
 856 000a 9A69     	 ldr r2,[r3,#24]
 857 000c 0823     	 mov r3,#8
 858 000e FB18     	 add r3,r7,r3
 859 0010 1A60     	 str r2,[r3]
 282:../Libraries/XMCLib/src/xmc_rtc.c ****   alarm.raw1 = RTC->ATIM1;
 860              	 .loc 2 282 0
 861 0012 1E4B     	 ldr r3,.L41
 862 0014 DA69     	 ldr r2,[r3,#28]
 863 0016 0823     	 mov r3,#8
 864 0018 FB18     	 add r3,r7,r3
 865 001a 5A60     	 str r2,[r3,#4]
 283:../Libraries/XMCLib/src/xmc_rtc.c **** 
 284:../Libraries/XMCLib/src/xmc_rtc.c ****   stdtime->tm_sec = (int8_t)alarm.seconds;
 866              	 .loc 2 284 0
 867 001c 0823     	 mov r3,#8
 868 001e FB18     	 add r3,r7,r3
 869 0020 1B78     	 ldrb r3,[r3]
 870 0022 9B06     	 lsl r3,r3,#26
 871 0024 9B0E     	 lsr r3,r3,#26
 872 0026 DBB2     	 uxtb r3,r3
 873 0028 1A1C     	 mov r2,r3
 874 002a 7B68     	 ldr r3,[r7,#4]
 875 002c 1A60     	 str r2,[r3]
 285:../Libraries/XMCLib/src/xmc_rtc.c ****   stdtime->tm_min = (int8_t)alarm.minutes;
 876              	 .loc 2 285 0
 877 002e 0823     	 mov r3,#8
 878 0030 FB18     	 add r3,r7,r3
 879 0032 5B78     	 ldrb r3,[r3,#1]
 880 0034 9B06     	 lsl r3,r3,#26
 881 0036 9B0E     	 lsr r3,r3,#26
 882 0038 DBB2     	 uxtb r3,r3
 883 003a 1A1C     	 mov r2,r3
 884 003c 7B68     	 ldr r3,[r7,#4]
 885 003e 5A60     	 str r2,[r3,#4]
 286:../Libraries/XMCLib/src/xmc_rtc.c ****   stdtime->tm_hour = (int8_t)alarm.hours;
 886              	 .loc 2 286 0
 887 0040 0823     	 mov r3,#8
 888 0042 FB18     	 add r3,r7,r3
 889 0044 9B78     	 ldrb r3,[r3,#2]
 890 0046 DB06     	 lsl r3,r3,#27
 891 0048 DB0E     	 lsr r3,r3,#27
 892 004a DBB2     	 uxtb r3,r3
 893 004c 1A1C     	 mov r2,r3
 894 004e 7B68     	 ldr r3,[r7,#4]
 895 0050 9A60     	 str r2,[r3,#8]
 287:../Libraries/XMCLib/src/xmc_rtc.c ****   stdtime->tm_mday = ((int8_t)alarm.days + (int8_t)1);
 896              	 .loc 2 287 0
 897 0052 0823     	 mov r3,#8
 898 0054 FB18     	 add r3,r7,r3
 899 0056 DB78     	 ldrb r3,[r3,#3]
 900 0058 DB06     	 lsl r3,r3,#27
 901 005a DB0E     	 lsr r3,r3,#27
 902 005c DBB2     	 uxtb r3,r3
 903 005e 5A1C     	 add r2,r3,#1
 904 0060 7B68     	 ldr r3,[r7,#4]
 905 0062 DA60     	 str r2,[r3,#12]
 288:../Libraries/XMCLib/src/xmc_rtc.c ****   stdtime->tm_mon = (int8_t)alarm.month;
 906              	 .loc 2 288 0
 907 0064 0823     	 mov r3,#8
 908 0066 FB18     	 add r3,r7,r3
 909 0068 5B79     	 ldrb r3,[r3,#5]
 910 006a 1B07     	 lsl r3,r3,#28
 911 006c 1B0F     	 lsr r3,r3,#28
 912 006e DBB2     	 uxtb r3,r3
 913 0070 1A1C     	 mov r2,r3
 914 0072 7B68     	 ldr r3,[r7,#4]
 915 0074 1A61     	 str r2,[r3,#16]
 289:../Libraries/XMCLib/src/xmc_rtc.c ****   stdtime->tm_year = (int32_t)alarm.year - (int32_t)XMC_RTC_YEAR_OFFSET;
 916              	 .loc 2 289 0
 917 0076 0823     	 mov r3,#8
 918 0078 FB18     	 add r3,r7,r3
 919 007a DB88     	 ldrh r3,[r3,#6]
 920 007c 044A     	 ldr r2,.L41+4
 921 007e 9A18     	 add r2,r3,r2
 922 0080 7B68     	 ldr r3,[r7,#4]
 923 0082 5A61     	 str r2,[r3,#20]
 290:../Libraries/XMCLib/src/xmc_rtc.c **** }
 924              	 .loc 2 290 0
 925 0084 BD46     	 mov sp,r7
 926 0086 04B0     	 add sp,sp,#16
 927              	 
 928 0088 80BD     	 pop {r7,pc}
 929              	.L42:
 930 008a C046     	 .align 2
 931              	.L41:
 932 008c 000A0140 	 .word 1073809920
 933 0090 94F8FFFF 	 .word -1900
 934              	 .cfi_endproc
 935              	.LFE71:
 937              	 .section .text.XMC_RTC_GetEventStatus,"ax",%progbits
 938              	 .align 2
 939              	 .global XMC_RTC_GetEventStatus
 940              	 .code 16
 941              	 .thumb_func
 943              	XMC_RTC_GetEventStatus:
 944              	.LFB72:
 291:../Libraries/XMCLib/src/xmc_rtc.c **** 
 292:../Libraries/XMCLib/src/xmc_rtc.c **** /*
 293:../Libraries/XMCLib/src/xmc_rtc.c ****  * Gets the RTC periodic and alarm event(s) status
 294:../Libraries/XMCLib/src/xmc_rtc.c ****  */
 295:../Libraries/XMCLib/src/xmc_rtc.c **** uint32_t XMC_RTC_GetEventStatus(void)
 296:../Libraries/XMCLib/src/xmc_rtc.c **** {
 945              	 .loc 2 296 0
 946              	 .cfi_startproc
 947 0000 80B5     	 push {r7,lr}
 948              	.LCFI33:
 949              	 .cfi_def_cfa_offset 8
 950              	 .cfi_offset 7,-8
 951              	 .cfi_offset 14,-4
 952 0002 00AF     	 add r7,sp,#0
 953              	.LCFI34:
 954              	 .cfi_def_cfa_register 7
 297:../Libraries/XMCLib/src/xmc_rtc.c ****   return RTC->STSSR;
 955              	 .loc 2 297 0
 956 0004 024B     	 ldr r3,.L45
 957 0006 DB68     	 ldr r3,[r3,#12]
 298:../Libraries/XMCLib/src/xmc_rtc.c **** }
 958              	 .loc 2 298 0
 959 0008 181C     	 mov r0,r3
 960 000a BD46     	 mov sp,r7
 961              	 
 962 000c 80BD     	 pop {r7,pc}
 963              	.L46:
 964 000e C046     	 .align 2
 965              	.L45:
 966 0010 000A0140 	 .word 1073809920
 967              	 .cfi_endproc
 968              	.LFE72:
 970              	 .text
 971              	.Letext0:
 972              	 .file 3 "c:\\dave\\dave-ide-4.4.2-64bit\\eclipse\\arm-gcc-49\\arm-none-eabi\\include\\machine\\_default_types.h"
 973              	 .file 4 "c:\\dave\\dave-ide-4.4.2-64bit\\eclipse\\arm-gcc-49\\arm-none-eabi\\include\\stdint.h"
 974              	 .file 5 "C:/Workspaces/DAVE-4.4.2-64Bit/Blinky_v2/Libraries/CMSIS/Infineon/XMC1100_series/Include/XMC1100.h"
 975              	 .file 6 "c:\\dave\\dave-ide-4.4.2-64bit\\eclipse\\arm-gcc-49\\arm-none-eabi\\include\\time.h"
 976              	 .file 7 "C:/Workspaces/DAVE-4.4.2-64Bit/Blinky_v2/Libraries/XMCLib/inc/xmc_rtc.h"
 977              	 .file 8 "C:/Workspaces/DAVE-4.4.2-64Bit/Blinky_v2/Libraries/CMSIS/Infineon/XMC1100_series/Include/system_XMC1100.h"