   1              	 .cpu cortex-m0
   2              	 .fpu softvfp
   3              	 .eabi_attribute 20,1
   4              	 .eabi_attribute 21,1
   5              	 .eabi_attribute 23,3
   6              	 .eabi_attribute 24,1
   7              	 .eabi_attribute 25,1
   8              	 .eabi_attribute 26,1
   9              	 .eabi_attribute 30,6
  10              	 .eabi_attribute 34,0
  11              	 .eabi_attribute 18,4
  12              	 .code 16
  13              	 .file "xmc_gpio.c"
  14              	 .text
  15              	.Ltext0:
  16              	 .cfi_sections .debug_frame
  17              	 .section .text.XMC_GPIO_SetMode,"ax",%progbits
  18              	 .align 2
  19              	 .global XMC_GPIO_SetMode
  20              	 .code 16
  21              	 .thumb_func
  23              	XMC_GPIO_SetMode:
  24              	.LFB51:
  25              	 .file 1 "../Libraries/XMCLib/src/xmc_gpio.c"
   1:../Libraries/XMCLib/src/xmc_gpio.c **** /**
   2:../Libraries/XMCLib/src/xmc_gpio.c ****  * @file xmc_gpio.c
   3:../Libraries/XMCLib/src/xmc_gpio.c ****  * @date 2015-06-20
   4:../Libraries/XMCLib/src/xmc_gpio.c ****  *
   5:../Libraries/XMCLib/src/xmc_gpio.c ****  * @cond
   6:../Libraries/XMCLib/src/xmc_gpio.c ****  **************************************************************************************************
   7:../Libraries/XMCLib/src/xmc_gpio.c ****  * XMClib v2.1.18 - XMC Peripheral Driver Library 
   8:../Libraries/XMCLib/src/xmc_gpio.c ****  *
   9:../Libraries/XMCLib/src/xmc_gpio.c ****  * Copyright (c) 2015-2018, Infineon Technologies AG
  10:../Libraries/XMCLib/src/xmc_gpio.c ****  * All rights reserved.                        
  11:../Libraries/XMCLib/src/xmc_gpio.c ****  *                                             
  12:../Libraries/XMCLib/src/xmc_gpio.c ****  * Redistribution and use in source and binary forms, with or without modification,are permitted pr
  13:../Libraries/XMCLib/src/xmc_gpio.c ****  * following conditions are met:   
  14:../Libraries/XMCLib/src/xmc_gpio.c ****  *                                                                              
  15:../Libraries/XMCLib/src/xmc_gpio.c ****  * Redistributions of source code must retain the above copyright notice, this list of conditions a
  16:../Libraries/XMCLib/src/xmc_gpio.c ****  * disclaimer.                        
  17:../Libraries/XMCLib/src/xmc_gpio.c ****  * 
  18:../Libraries/XMCLib/src/xmc_gpio.c ****  * Redistributions in binary form must reproduce the above copyright notice, this list of condition
  19:../Libraries/XMCLib/src/xmc_gpio.c ****  * disclaimer in the documentation and/or other materials provided with the distribution.          
  20:../Libraries/XMCLib/src/xmc_gpio.c ****  * 
  21:../Libraries/XMCLib/src/xmc_gpio.c ****  * Neither the name of the copyright holders nor the names of its contributors may be used to endor
  22:../Libraries/XMCLib/src/xmc_gpio.c ****  * products derived from this software without specific prior written permission.                  
  23:../Libraries/XMCLib/src/xmc_gpio.c ****  *                                                                              
  24:../Libraries/XMCLib/src/xmc_gpio.c ****  * THIS SOFTWARE IS PROVIDED BY THE COPYRIGHT HOLDERS AND CONTRIBUTORS "AS IS" AND ANY EXPRESS OR I
  25:../Libraries/XMCLib/src/xmc_gpio.c ****  * INCLUDING, BUT NOT LIMITED TO, THE IMPLIED WARRANTIES OF MERCHANTABILITY AND FITNESS FOR A PARTI
  26:../Libraries/XMCLib/src/xmc_gpio.c ****  * DISCLAIMED. IN NO EVENT SHALL THE COPYRIGHT HOLDER OR CONTRIBUTORS BE LIABLE  FOR ANY DIRECT, IN
  27:../Libraries/XMCLib/src/xmc_gpio.c ****  * SPECIAL, EXEMPLARY, OR CONSEQUENTIAL DAMAGES (INCLUDING, BUT NOT LIMITED TO, PROCUREMENT OF SUBS
  28:../Libraries/XMCLib/src/xmc_gpio.c ****  * SERVICES; LOSS OF USE, DATA, OR PROFITS; OR BUSINESS INTERRUPTION) HOWEVER CAUSED AND ON ANY THE
  29:../Libraries/XMCLib/src/xmc_gpio.c ****  * WHETHER IN CONTRACT, STRICT LIABILITY,OR TORT (INCLUDING NEGLIGENCE OR OTHERWISE) ARISING IN ANY
  30:../Libraries/XMCLib/src/xmc_gpio.c ****  * OF THIS SOFTWARE, EVEN IF ADVISED OF THE POSSIBILITY OF SUCH DAMAGE.                            
  31:../Libraries/XMCLib/src/xmc_gpio.c ****  *                                                                              
  32:../Libraries/XMCLib/src/xmc_gpio.c ****  * To improve the quality of the software, users are encouraged to share modifications, enhancement
  33:../Libraries/XMCLib/src/xmc_gpio.c ****  * Infineon Technologies AG dave@infineon.com).                                                    
  34:../Libraries/XMCLib/src/xmc_gpio.c ****  **************************************************************************************************
  35:../Libraries/XMCLib/src/xmc_gpio.c ****  *
  36:../Libraries/XMCLib/src/xmc_gpio.c ****  * Change History
  37:../Libraries/XMCLib/src/xmc_gpio.c ****  * --------------
  38:../Libraries/XMCLib/src/xmc_gpio.c ****  *
  39:../Libraries/XMCLib/src/xmc_gpio.c ****  * 2015-02-20:
  40:../Libraries/XMCLib/src/xmc_gpio.c ****  *     - Initial draft <br>
  41:../Libraries/XMCLib/src/xmc_gpio.c ****  *      
  42:../Libraries/XMCLib/src/xmc_gpio.c ****  * 2015-06-20:
  43:../Libraries/XMCLib/src/xmc_gpio.c ****  *     - Removed version macros and declaration of GetDriverVersion API
  44:../Libraries/XMCLib/src/xmc_gpio.c ****  *
  45:../Libraries/XMCLib/src/xmc_gpio.c ****  * @endcond
  46:../Libraries/XMCLib/src/xmc_gpio.c ****  *
  47:../Libraries/XMCLib/src/xmc_gpio.c ****  */
  48:../Libraries/XMCLib/src/xmc_gpio.c **** 
  49:../Libraries/XMCLib/src/xmc_gpio.c **** /*******************************************************************************
  50:../Libraries/XMCLib/src/xmc_gpio.c ****  * HEADER FILES
  51:../Libraries/XMCLib/src/xmc_gpio.c ****  *******************************************************************************/
  52:../Libraries/XMCLib/src/xmc_gpio.c **** 
  53:../Libraries/XMCLib/src/xmc_gpio.c **** #include <xmc_gpio.h>
  54:../Libraries/XMCLib/src/xmc_gpio.c **** 
  55:../Libraries/XMCLib/src/xmc_gpio.c **** /*******************************************************************************
  56:../Libraries/XMCLib/src/xmc_gpio.c ****  * MACROS
  57:../Libraries/XMCLib/src/xmc_gpio.c ****  *******************************************************************************/
  58:../Libraries/XMCLib/src/xmc_gpio.c **** 
  59:../Libraries/XMCLib/src/xmc_gpio.c **** #define PORT_HWSEL_Msk PORT0_HWSEL_HW0_Msk
  60:../Libraries/XMCLib/src/xmc_gpio.c **** 
  61:../Libraries/XMCLib/src/xmc_gpio.c **** /*******************************************************************************
  62:../Libraries/XMCLib/src/xmc_gpio.c ****  * API IMPLEMENTATION
  63:../Libraries/XMCLib/src/xmc_gpio.c ****  *******************************************************************************/
  64:../Libraries/XMCLib/src/xmc_gpio.c **** 
  65:../Libraries/XMCLib/src/xmc_gpio.c **** void XMC_GPIO_SetMode(XMC_GPIO_PORT_t *const port, const uint8_t pin, const XMC_GPIO_MODE_t mode)
  66:../Libraries/XMCLib/src/xmc_gpio.c **** {
  26              	 .loc 1 66 0
  27              	 .cfi_startproc
  28 0000 90B5     	 push {r4,r7,lr}
  29              	.LCFI0:
  30              	 .cfi_def_cfa_offset 12
  31              	 .cfi_offset 4,-12
  32              	 .cfi_offset 7,-8
  33              	 .cfi_offset 14,-4
  34 0002 83B0     	 sub sp,sp,#12
  35              	.LCFI1:
  36              	 .cfi_def_cfa_offset 24
  37 0004 00AF     	 add r7,sp,#0
  38              	.LCFI2:
  39              	 .cfi_def_cfa_register 7
  40 0006 7860     	 str r0,[r7,#4]
  41 0008 081C     	 mov r0,r1
  42 000a 111C     	 mov r1,r2
  43 000c FB1C     	 add r3,r7,#3
  44 000e 021C     	 add r2,r0,#0
  45 0010 1A70     	 strb r2,[r3]
  46 0012 BB1C     	 add r3,r7,#2
  47 0014 0A1C     	 add r2,r1,#0
  48 0016 1A70     	 strb r2,[r3]
  67:../Libraries/XMCLib/src/xmc_gpio.c ****   XMC_ASSERT("XMC_GPIO_SetMode: Invalid port", XMC_GPIO_CHECK_PORT(port));
  68:../Libraries/XMCLib/src/xmc_gpio.c ****   XMC_ASSERT("XMC_GPIO_SetMode: Invalid mode", XMC_GPIO_IsModeValid(mode));
  69:../Libraries/XMCLib/src/xmc_gpio.c **** 
  70:../Libraries/XMCLib/src/xmc_gpio.c ****   port->IOCR[(uint32_t)pin >> 2U] &= ~(uint32_t)((uint32_t)PORT_IOCR_PC_Msk << ((uint32_t)PORT_IOCR
  49              	 .loc 1 70 0
  50 0018 FB1C     	 add r3,r7,#3
  51 001a 1B78     	 ldrb r3,[r3]
  52 001c 9B08     	 lsr r3,r3,#2
  53 001e DBB2     	 uxtb r3,r3
  54 0020 181C     	 mov r0,r3
  55 0022 FB1C     	 add r3,r7,#3
  56 0024 1B78     	 ldrb r3,[r3]
  57 0026 9B08     	 lsr r3,r3,#2
  58 0028 DBB2     	 uxtb r3,r3
  59 002a 1A1C     	 mov r2,r3
  60 002c 7B68     	 ldr r3,[r7,#4]
  61 002e 0432     	 add r2,r2,#4
  62 0030 9200     	 lsl r2,r2,#2
  63 0032 D358     	 ldr r3,[r2,r3]
  64 0034 FA1C     	 add r2,r7,#3
  65 0036 1278     	 ldrb r2,[r2]
  66 0038 0321     	 mov r1,#3
  67 003a 0A40     	 and r2,r1
  68 003c D200     	 lsl r2,r2,#3
  69 003e 111C     	 mov r1,r2
  70 0040 F822     	 mov r2,#248
  71 0042 8A40     	 lsl r2,r2,r1
  72 0044 D243     	 mvn r2,r2
  73 0046 1A40     	 and r2,r3
  74 0048 111C     	 mov r1,r2
  75 004a 7B68     	 ldr r3,[r7,#4]
  76 004c 021D     	 add r2,r0,#4
  77 004e 9200     	 lsl r2,r2,#2
  78 0050 D150     	 str r1,[r2,r3]
  71:../Libraries/XMCLib/src/xmc_gpio.c ****   port->IOCR[(uint32_t)pin >> 2U] |= (uint32_t)mode << ((uint32_t)PORT_IOCR_PC_Size * ((uint32_t)pi
  79              	 .loc 1 71 0
  80 0052 FB1C     	 add r3,r7,#3
  81 0054 1B78     	 ldrb r3,[r3]
  82 0056 9B08     	 lsr r3,r3,#2
  83 0058 DBB2     	 uxtb r3,r3
  84 005a 1C1C     	 mov r4,r3
  85 005c FB1C     	 add r3,r7,#3
  86 005e 1B78     	 ldrb r3,[r3]
  87 0060 9B08     	 lsr r3,r3,#2
  88 0062 DBB2     	 uxtb r3,r3
  89 0064 1A1C     	 mov r2,r3
  90 0066 7B68     	 ldr r3,[r7,#4]
  91 0068 0432     	 add r2,r2,#4
  92 006a 9200     	 lsl r2,r2,#2
  93 006c D258     	 ldr r2,[r2,r3]
  94 006e BB1C     	 add r3,r7,#2
  95 0070 1B78     	 ldrb r3,[r3]
  96 0072 F91C     	 add r1,r7,#3
  97 0074 0978     	 ldrb r1,[r1]
  98 0076 0320     	 mov r0,#3
  99 0078 0140     	 and r1,r0
 100 007a C900     	 lsl r1,r1,#3
 101 007c 8B40     	 lsl r3,r3,r1
 102 007e 1A43     	 orr r2,r3
 103 0080 111C     	 mov r1,r2
 104 0082 7B68     	 ldr r3,[r7,#4]
 105 0084 221D     	 add r2,r4,#4
 106 0086 9200     	 lsl r2,r2,#2
 107 0088 D150     	 str r1,[r2,r3]
  72:../Libraries/XMCLib/src/xmc_gpio.c **** }
 108              	 .loc 1 72 0
 109 008a BD46     	 mov sp,r7
 110 008c 03B0     	 add sp,sp,#12
 111              	 
 112 008e 90BD     	 pop {r4,r7,pc}
 113              	 .cfi_endproc
 114              	.LFE51:
 116              	 .section .text.XMC_GPIO_SetHardwareControl,"ax",%progbits
 117              	 .align 2
 118              	 .global XMC_GPIO_SetHardwareControl
 119              	 .code 16
 120              	 .thumb_func
 122              	XMC_GPIO_SetHardwareControl:
 123              	.LFB52:
  73:../Libraries/XMCLib/src/xmc_gpio.c **** 
  74:../Libraries/XMCLib/src/xmc_gpio.c **** void XMC_GPIO_SetHardwareControl(XMC_GPIO_PORT_t *const port, const uint8_t pin, const XMC_GPIO_HWC
  75:../Libraries/XMCLib/src/xmc_gpio.c **** {
 124              	 .loc 1 75 0
 125              	 .cfi_startproc
 126 0000 80B5     	 push {r7,lr}
 127              	.LCFI3:
 128              	 .cfi_def_cfa_offset 8
 129              	 .cfi_offset 7,-8
 130              	 .cfi_offset 14,-4
 131 0002 82B0     	 sub sp,sp,#8
 132              	.LCFI4:
 133              	 .cfi_def_cfa_offset 16
 134 0004 00AF     	 add r7,sp,#0
 135              	.LCFI5:
 136              	 .cfi_def_cfa_register 7
 137 0006 7860     	 str r0,[r7,#4]
 138 0008 081C     	 mov r0,r1
 139 000a 111C     	 mov r1,r2
 140 000c FB1C     	 add r3,r7,#3
 141 000e 021C     	 add r2,r0,#0
 142 0010 1A70     	 strb r2,[r3]
 143 0012 BB1C     	 add r3,r7,#2
 144 0014 0A1C     	 add r2,r1,#0
 145 0016 1A70     	 strb r2,[r3]
  76:../Libraries/XMCLib/src/xmc_gpio.c ****   XMC_ASSERT("XMC_GPIO_SetHardwareControl: Invalid port", XMC_GPIO_CHECK_PORT(port));
  77:../Libraries/XMCLib/src/xmc_gpio.c ****   XMC_ASSERT("XMC_GPIO_SetHardwareControl: Invalid hwctrl", XMC_GPIO_CHECK_HWCTRL(hwctrl));
  78:../Libraries/XMCLib/src/xmc_gpio.c **** 
  79:../Libraries/XMCLib/src/xmc_gpio.c ****   port->HWSEL &= ~(uint32_t)((uint32_t)PORT_HWSEL_Msk << ((uint32_t)pin << 1U));
 146              	 .loc 1 79 0
 147 0018 7B68     	 ldr r3,[r7,#4]
 148 001a 5B6F     	 ldr r3,[r3,#116]
 149 001c FA1C     	 add r2,r7,#3
 150 001e 1278     	 ldrb r2,[r2]
 151 0020 5200     	 lsl r2,r2,#1
 152 0022 111C     	 mov r1,r2
 153 0024 0322     	 mov r2,#3
 154 0026 8A40     	 lsl r2,r2,r1
 155 0028 D243     	 mvn r2,r2
 156 002a 1A40     	 and r2,r3
 157 002c 7B68     	 ldr r3,[r7,#4]
 158 002e 5A67     	 str r2,[r3,#116]
  80:../Libraries/XMCLib/src/xmc_gpio.c ****   port->HWSEL |= (uint32_t)hwctrl << ((uint32_t)pin << 1U);
 159              	 .loc 1 80 0
 160 0030 7B68     	 ldr r3,[r7,#4]
 161 0032 5A6F     	 ldr r2,[r3,#116]
 162 0034 BB1C     	 add r3,r7,#2
 163 0036 1B78     	 ldrb r3,[r3]
 164 0038 F91C     	 add r1,r7,#3
 165 003a 0978     	 ldrb r1,[r1]
 166 003c 4900     	 lsl r1,r1,#1
 167 003e 8B40     	 lsl r3,r3,r1
 168 0040 1A43     	 orr r2,r3
 169 0042 7B68     	 ldr r3,[r7,#4]
 170 0044 5A67     	 str r2,[r3,#116]
  81:../Libraries/XMCLib/src/xmc_gpio.c **** }
 171              	 .loc 1 81 0
 172 0046 BD46     	 mov sp,r7
 173 0048 02B0     	 add sp,sp,#8
 174              	 
 175 004a 80BD     	 pop {r7,pc}
 176              	 .cfi_endproc
 177              	.LFE52:
 179              	 .text
 180              	.Letext0:
 181              	 .file 2 "c:\\dave\\dave-ide-4.4.2-64bit\\eclipse\\arm-gcc-49\\arm-none-eabi\\include\\machine\\_default_types.h"
 182              	 .file 3 "c:\\dave\\dave-ide-4.4.2-64bit\\eclipse\\arm-gcc-49\\arm-none-eabi\\include\\stdint.h"
 183              	 .file 4 "C:/Workspaces/DAVE-4.4.2-64Bit/Blinky_v2/Libraries/XMCLib/inc/xmc_gpio.h"
 184              	 .file 5 "C:/Workspaces/DAVE-4.4.2-64Bit/Blinky_v2/Libraries/XMCLib/inc/xmc1_gpio.h"