
Blinky_STM32G0.elf:     file format elf32-littlearm

Sections:
Idx Name          Size      VMA       LMA       File off  Algn
  0 .isr_vector   000000bc  08000000  08000000  00010000  2**0
                  CONTENTS, ALLOC, LOAD, READONLY, DATA
  1 .text         000013a4  080000bc  080000bc  000100bc  2**2
                  CONTENTS, ALLOC, LOAD, READONLY, CODE
  2 .rodata       00000040  08001460  08001460  00011460  2**2
                  CONTENTS, ALLOC, LOAD, READONLY, DATA
  3 .ARM.extab    00000000  080014a0  080014a0  0002000c  2**0
                  CONTENTS
  4 .ARM          00000000  080014a0  080014a0  0002000c  2**0
                  CONTENTS
  5 .preinit_array 00000000  080014a0  080014a0  0002000c  2**0
                  CONTENTS, ALLOC, LOAD, DATA
  6 .init_array   00000004  080014a0  080014a0  000114a0  2**2
                  CONTENTS, ALLOC, LOAD, DATA
  7 .fini_array   00000004  080014a4  080014a4  000114a4  2**2
                  CONTENTS, ALLOC, LOAD, DATA
  8 .data         0000000c  20000000  080014a8  00020000  2**2
                  CONTENTS, ALLOC, LOAD, DATA
  9 .bss          00000020  2000000c  080014b4  0002000c  2**2
                  ALLOC
 10 ._user_heap_stack 00000604  2000002c  080014b4  0002002c  2**0
                  ALLOC
 11 .ARM.attributes 00000028  00000000  00000000  0002000c  2**0
                  CONTENTS, READONLY
 12 .debug_info   00003a25  00000000  00000000  00020034  2**0
                  CONTENTS, READONLY, DEBUGGING
 13 .debug_abbrev 00000f60  00000000  00000000  00023a59  2**0
                  CONTENTS, READONLY, DEBUGGING
 14 .debug_aranges 000004a0  00000000  00000000  000249c0  2**3
                  CONTENTS, READONLY, DEBUGGING
 15 .debug_ranges 00000408  00000000  00000000  00024e60  2**3
                  CONTENTS, READONLY, DEBUGGING
 16 .debug_macro  00013411  00000000  00000000  00025268  2**0
                  CONTENTS, READONLY, DEBUGGING
 17 .debug_line   000044e2  00000000  00000000  00038679  2**0
                  CONTENTS, READONLY, DEBUGGING
 18 .debug_str    00079506  00000000  00000000  0003cb5b  2**0
                  CONTENTS, READONLY, DEBUGGING
 19 .comment      0000007b  00000000  00000000  000b6061  2**0
                  CONTENTS, READONLY
 20 .debug_frame  00000eac  00000000  00000000  000b60dc  2**2
                  CONTENTS, READONLY, DEBUGGING

Disassembly of section .text:

080000bc <__do_global_dtors_aux>:
 80000bc:	b510      	push	{r4, lr}
 80000be:	4c06      	ldr	r4, [pc, #24]	; (80000d8 <__do_global_dtors_aux+0x1c>)
 80000c0:	7823      	ldrb	r3, [r4, #0]
 80000c2:	2b00      	cmp	r3, #0
 80000c4:	d107      	bne.n	80000d6 <__do_global_dtors_aux+0x1a>
 80000c6:	4b05      	ldr	r3, [pc, #20]	; (80000dc <__do_global_dtors_aux+0x20>)
 80000c8:	2b00      	cmp	r3, #0
 80000ca:	d002      	beq.n	80000d2 <__do_global_dtors_aux+0x16>
 80000cc:	4804      	ldr	r0, [pc, #16]	; (80000e0 <__do_global_dtors_aux+0x24>)
 80000ce:	e000      	b.n	80000d2 <__do_global_dtors_aux+0x16>
 80000d0:	bf00      	nop
 80000d2:	2301      	movs	r3, #1
 80000d4:	7023      	strb	r3, [r4, #0]
 80000d6:	bd10      	pop	{r4, pc}
 80000d8:	2000000c 	.word	0x2000000c
 80000dc:	00000000 	.word	0x00000000
 80000e0:	08001448 	.word	0x08001448

080000e4 <frame_dummy>:
 80000e4:	4b04      	ldr	r3, [pc, #16]	; (80000f8 <frame_dummy+0x14>)
 80000e6:	b510      	push	{r4, lr}
 80000e8:	2b00      	cmp	r3, #0
 80000ea:	d003      	beq.n	80000f4 <frame_dummy+0x10>
 80000ec:	4903      	ldr	r1, [pc, #12]	; (80000fc <frame_dummy+0x18>)
 80000ee:	4804      	ldr	r0, [pc, #16]	; (8000100 <frame_dummy+0x1c>)
 80000f0:	e000      	b.n	80000f4 <frame_dummy+0x10>
 80000f2:	bf00      	nop
 80000f4:	bd10      	pop	{r4, pc}
 80000f6:	46c0      	nop			; (mov r8, r8)
 80000f8:	00000000 	.word	0x00000000
 80000fc:	20000010 	.word	0x20000010
 8000100:	08001448 	.word	0x08001448

08000104 <__udivsi3>:
 8000104:	2200      	movs	r2, #0
 8000106:	0843      	lsrs	r3, r0, #1
 8000108:	428b      	cmp	r3, r1
 800010a:	d374      	bcc.n	80001f6 <__udivsi3+0xf2>
 800010c:	0903      	lsrs	r3, r0, #4
 800010e:	428b      	cmp	r3, r1
 8000110:	d35f      	bcc.n	80001d2 <__udivsi3+0xce>
 8000112:	0a03      	lsrs	r3, r0, #8
 8000114:	428b      	cmp	r3, r1
 8000116:	d344      	bcc.n	80001a2 <__udivsi3+0x9e>
 8000118:	0b03      	lsrs	r3, r0, #12
 800011a:	428b      	cmp	r3, r1
 800011c:	d328      	bcc.n	8000170 <__udivsi3+0x6c>
 800011e:	0c03      	lsrs	r3, r0, #16
 8000120:	428b      	cmp	r3, r1
 8000122:	d30d      	bcc.n	8000140 <__udivsi3+0x3c>
 8000124:	22ff      	movs	r2, #255	; 0xff
 8000126:	0209      	lsls	r1, r1, #8
 8000128:	ba12      	rev	r2, r2
 800012a:	0c03      	lsrs	r3, r0, #16
 800012c:	428b      	cmp	r3, r1
 800012e:	d302      	bcc.n	8000136 <__udivsi3+0x32>
 8000130:	1212      	asrs	r2, r2, #8
 8000132:	0209      	lsls	r1, r1, #8
 8000134:	d065      	beq.n	8000202 <__udivsi3+0xfe>
 8000136:	0b03      	lsrs	r3, r0, #12
 8000138:	428b      	cmp	r3, r1
 800013a:	d319      	bcc.n	8000170 <__udivsi3+0x6c>
 800013c:	e000      	b.n	8000140 <__udivsi3+0x3c>
 800013e:	0a09      	lsrs	r1, r1, #8
 8000140:	0bc3      	lsrs	r3, r0, #15
 8000142:	428b      	cmp	r3, r1
 8000144:	d301      	bcc.n	800014a <__udivsi3+0x46>
 8000146:	03cb      	lsls	r3, r1, #15
 8000148:	1ac0      	subs	r0, r0, r3
 800014a:	4152      	adcs	r2, r2
 800014c:	0b83      	lsrs	r3, r0, #14
 800014e:	428b      	cmp	r3, r1
 8000150:	d301      	bcc.n	8000156 <__udivsi3+0x52>
 8000152:	038b      	lsls	r3, r1, #14
 8000154:	1ac0      	subs	r0, r0, r3
 8000156:	4152      	adcs	r2, r2
 8000158:	0b43      	lsrs	r3, r0, #13
 800015a:	428b      	cmp	r3, r1
 800015c:	d301      	bcc.n	8000162 <__udivsi3+0x5e>
 800015e:	034b      	lsls	r3, r1, #13
 8000160:	1ac0      	subs	r0, r0, r3
 8000162:	4152      	adcs	r2, r2
 8000164:	0b03      	lsrs	r3, r0, #12
 8000166:	428b      	cmp	r3, r1
 8000168:	d301      	bcc.n	800016e <__udivsi3+0x6a>
 800016a:	030b      	lsls	r3, r1, #12
 800016c:	1ac0      	subs	r0, r0, r3
 800016e:	4152      	adcs	r2, r2
 8000170:	0ac3      	lsrs	r3, r0, #11
 8000172:	428b      	cmp	r3, r1
 8000174:	d301      	bcc.n	800017a <__udivsi3+0x76>
 8000176:	02cb      	lsls	r3, r1, #11
 8000178:	1ac0      	subs	r0, r0, r3
 800017a:	4152      	adcs	r2, r2
 800017c:	0a83      	lsrs	r3, r0, #10
 800017e:	428b      	cmp	r3, r1
 8000180:	d301      	bcc.n	8000186 <__udivsi3+0x82>
 8000182:	028b      	lsls	r3, r1, #10
 8000184:	1ac0      	subs	r0, r0, r3
 8000186:	4152      	adcs	r2, r2
 8000188:	0a43      	lsrs	r3, r0, #9
 800018a:	428b      	cmp	r3, r1
 800018c:	d301      	bcc.n	8000192 <__udivsi3+0x8e>
 800018e:	024b      	lsls	r3, r1, #9
 8000190:	1ac0      	subs	r0, r0, r3
 8000192:	4152      	adcs	r2, r2
 8000194:	0a03      	lsrs	r3, r0, #8
 8000196:	428b      	cmp	r3, r1
 8000198:	d301      	bcc.n	800019e <__udivsi3+0x9a>
 800019a:	020b      	lsls	r3, r1, #8
 800019c:	1ac0      	subs	r0, r0, r3
 800019e:	4152      	adcs	r2, r2
 80001a0:	d2cd      	bcs.n	800013e <__udivsi3+0x3a>
 80001a2:	09c3      	lsrs	r3, r0, #7
 80001a4:	428b      	cmp	r3, r1
 80001a6:	d301      	bcc.n	80001ac <__udivsi3+0xa8>
 80001a8:	01cb      	lsls	r3, r1, #7
 80001aa:	1ac0      	subs	r0, r0, r3
 80001ac:	4152      	adcs	r2, r2
 80001ae:	0983      	lsrs	r3, r0, #6
 80001b0:	428b      	cmp	r3, r1
 80001b2:	d301      	bcc.n	80001b8 <__udivsi3+0xb4>
 80001b4:	018b      	lsls	r3, r1, #6
 80001b6:	1ac0      	subs	r0, r0, r3
 80001b8:	4152      	adcs	r2, r2
 80001ba:	0943      	lsrs	r3, r0, #5
 80001bc:	428b      	cmp	r3, r1
 80001be:	d301      	bcc.n	80001c4 <__udivsi3+0xc0>
 80001c0:	014b      	lsls	r3, r1, #5
 80001c2:	1ac0      	subs	r0, r0, r3
 80001c4:	4152      	adcs	r2, r2
 80001c6:	0903      	lsrs	r3, r0, #4
 80001c8:	428b      	cmp	r3, r1
 80001ca:	d301      	bcc.n	80001d0 <__udivsi3+0xcc>
 80001cc:	010b      	lsls	r3, r1, #4
 80001ce:	1ac0      	subs	r0, r0, r3
 80001d0:	4152      	adcs	r2, r2
 80001d2:	08c3      	lsrs	r3, r0, #3
 80001d4:	428b      	cmp	r3, r1
 80001d6:	d301      	bcc.n	80001dc <__udivsi3+0xd8>
 80001d8:	00cb      	lsls	r3, r1, #3
 80001da:	1ac0      	subs	r0, r0, r3
 80001dc:	4152      	adcs	r2, r2
 80001de:	0883      	lsrs	r3, r0, #2
 80001e0:	428b      	cmp	r3, r1
 80001e2:	d301      	bcc.n	80001e8 <__udivsi3+0xe4>
 80001e4:	008b      	lsls	r3, r1, #2
 80001e6:	1ac0      	subs	r0, r0, r3
 80001e8:	4152      	adcs	r2, r2
 80001ea:	0843      	lsrs	r3, r0, #1
 80001ec:	428b      	cmp	r3, r1
 80001ee:	d301      	bcc.n	80001f4 <__udivsi3+0xf0>
 80001f0:	004b      	lsls	r3, r1, #1
 80001f2:	1ac0      	subs	r0, r0, r3
 80001f4:	4152      	adcs	r2, r2
 80001f6:	1a41      	subs	r1, r0, r1
 80001f8:	d200      	bcs.n	80001fc <__udivsi3+0xf8>
 80001fa:	4601      	mov	r1, r0
 80001fc:	4152      	adcs	r2, r2
 80001fe:	4610      	mov	r0, r2
 8000200:	4770      	bx	lr
 8000202:	e7ff      	b.n	8000204 <__udivsi3+0x100>
 8000204:	b501      	push	{r0, lr}
 8000206:	2000      	movs	r0, #0
 8000208:	f000 f806 	bl	8000218 <__aeabi_idiv0>
 800020c:	bd02      	pop	{r1, pc}
 800020e:	46c0      	nop			; (mov r8, r8)

08000210 <__aeabi_uidivmod>:
 8000210:	2900      	cmp	r1, #0
 8000212:	d0f7      	beq.n	8000204 <__udivsi3+0x100>
 8000214:	e776      	b.n	8000104 <__udivsi3>
 8000216:	4770      	bx	lr

08000218 <__aeabi_idiv0>:
 8000218:	4770      	bx	lr
 800021a:	46c0      	nop			; (mov r8, r8)

0800021c <HAL_Init>:
 800021c:	b580      	push	{r7, lr}
 800021e:	b082      	sub	sp, #8
 8000220:	af00      	add	r7, sp, #0
 8000222:	1dfb      	adds	r3, r7, #7
 8000224:	2200      	movs	r2, #0
 8000226:	701a      	strb	r2, [r3, #0]
 8000228:	4b0b      	ldr	r3, [pc, #44]	; (8000258 <HAL_Init+0x3c>)
 800022a:	681a      	ldr	r2, [r3, #0]
 800022c:	4b0a      	ldr	r3, [pc, #40]	; (8000258 <HAL_Init+0x3c>)
 800022e:	2180      	movs	r1, #128	; 0x80
 8000230:	0049      	lsls	r1, r1, #1
 8000232:	430a      	orrs	r2, r1
 8000234:	601a      	str	r2, [r3, #0]
 8000236:	2000      	movs	r0, #0
 8000238:	f000 f810 	bl	800025c <HAL_InitTick>
 800023c:	1e03      	subs	r3, r0, #0
 800023e:	d003      	beq.n	8000248 <HAL_Init+0x2c>
 8000240:	1dfb      	adds	r3, r7, #7
 8000242:	2201      	movs	r2, #1
 8000244:	701a      	strb	r2, [r3, #0]
 8000246:	e001      	b.n	800024c <HAL_Init+0x30>
 8000248:	f001 f85e 	bl	8001308 <HAL_MspInit>
 800024c:	1dfb      	adds	r3, r7, #7
 800024e:	781b      	ldrb	r3, [r3, #0]
 8000250:	0018      	movs	r0, r3
 8000252:	46bd      	mov	sp, r7
 8000254:	b002      	add	sp, #8
 8000256:	bd80      	pop	{r7, pc}
 8000258:	40022000 	.word	0x40022000

0800025c <HAL_InitTick>:
 800025c:	b590      	push	{r4, r7, lr}
 800025e:	b085      	sub	sp, #20
 8000260:	af00      	add	r7, sp, #0
 8000262:	6078      	str	r0, [r7, #4]
 8000264:	230f      	movs	r3, #15
 8000266:	18fb      	adds	r3, r7, r3
 8000268:	2200      	movs	r2, #0
 800026a:	701a      	strb	r2, [r3, #0]
 800026c:	4b1d      	ldr	r3, [pc, #116]	; (80002e4 <HAL_InitTick+0x88>)
 800026e:	681b      	ldr	r3, [r3, #0]
 8000270:	2b00      	cmp	r3, #0
 8000272:	d02b      	beq.n	80002cc <HAL_InitTick+0x70>
 8000274:	4b1c      	ldr	r3, [pc, #112]	; (80002e8 <HAL_InitTick+0x8c>)
 8000276:	681c      	ldr	r4, [r3, #0]
 8000278:	4b1a      	ldr	r3, [pc, #104]	; (80002e4 <HAL_InitTick+0x88>)
 800027a:	681b      	ldr	r3, [r3, #0]
 800027c:	0019      	movs	r1, r3
 800027e:	23fa      	movs	r3, #250	; 0xfa
 8000280:	0098      	lsls	r0, r3, #2
 8000282:	f7ff ff3f 	bl	8000104 <__udivsi3>
 8000286:	0003      	movs	r3, r0
 8000288:	0019      	movs	r1, r3
 800028a:	0020      	movs	r0, r4
 800028c:	f7ff ff3a 	bl	8000104 <__udivsi3>
 8000290:	0003      	movs	r3, r0
 8000292:	0018      	movs	r0, r3
 8000294:	f000 f8ed 	bl	8000472 <HAL_SYSTICK_Config>
 8000298:	1e03      	subs	r3, r0, #0
 800029a:	d112      	bne.n	80002c2 <HAL_InitTick+0x66>
 800029c:	687b      	ldr	r3, [r7, #4]
 800029e:	2b03      	cmp	r3, #3
 80002a0:	d80a      	bhi.n	80002b8 <HAL_InitTick+0x5c>
 80002a2:	6879      	ldr	r1, [r7, #4]
 80002a4:	2301      	movs	r3, #1
 80002a6:	425b      	negs	r3, r3
 80002a8:	2200      	movs	r2, #0
 80002aa:	0018      	movs	r0, r3
 80002ac:	f000 f8cc 	bl	8000448 <HAL_NVIC_SetPriority>
 80002b0:	4b0e      	ldr	r3, [pc, #56]	; (80002ec <HAL_InitTick+0x90>)
 80002b2:	687a      	ldr	r2, [r7, #4]
 80002b4:	601a      	str	r2, [r3, #0]
 80002b6:	e00d      	b.n	80002d4 <HAL_InitTick+0x78>
 80002b8:	230f      	movs	r3, #15
 80002ba:	18fb      	adds	r3, r7, r3
 80002bc:	2201      	movs	r2, #1
 80002be:	701a      	strb	r2, [r3, #0]
 80002c0:	e008      	b.n	80002d4 <HAL_InitTick+0x78>
 80002c2:	230f      	movs	r3, #15
 80002c4:	18fb      	adds	r3, r7, r3
 80002c6:	2201      	movs	r2, #1
 80002c8:	701a      	strb	r2, [r3, #0]
 80002ca:	e003      	b.n	80002d4 <HAL_InitTick+0x78>
 80002cc:	230f      	movs	r3, #15
 80002ce:	18fb      	adds	r3, r7, r3
 80002d0:	2201      	movs	r2, #1
 80002d2:	701a      	strb	r2, [r3, #0]
 80002d4:	230f      	movs	r3, #15
 80002d6:	18fb      	adds	r3, r7, r3
 80002d8:	781b      	ldrb	r3, [r3, #0]
 80002da:	0018      	movs	r0, r3
 80002dc:	46bd      	mov	sp, r7
 80002de:	b005      	add	sp, #20
 80002e0:	bd90      	pop	{r4, r7, pc}
 80002e2:	46c0      	nop			; (mov r8, r8)
 80002e4:	20000004 	.word	0x20000004
 80002e8:	20000008 	.word	0x20000008
 80002ec:	20000000 	.word	0x20000000

080002f0 <HAL_IncTick>:
 80002f0:	b580      	push	{r7, lr}
 80002f2:	af00      	add	r7, sp, #0
 80002f4:	4b04      	ldr	r3, [pc, #16]	; (8000308 <HAL_IncTick+0x18>)
 80002f6:	681a      	ldr	r2, [r3, #0]
 80002f8:	4b04      	ldr	r3, [pc, #16]	; (800030c <HAL_IncTick+0x1c>)
 80002fa:	681b      	ldr	r3, [r3, #0]
 80002fc:	18d2      	adds	r2, r2, r3
 80002fe:	4b02      	ldr	r3, [pc, #8]	; (8000308 <HAL_IncTick+0x18>)
 8000300:	601a      	str	r2, [r3, #0]
 8000302:	46c0      	nop			; (mov r8, r8)
 8000304:	46bd      	mov	sp, r7
 8000306:	bd80      	pop	{r7, pc}
 8000308:	20000028 	.word	0x20000028
 800030c:	20000004 	.word	0x20000004

08000310 <HAL_GetTick>:
 8000310:	b580      	push	{r7, lr}
 8000312:	af00      	add	r7, sp, #0
 8000314:	4b02      	ldr	r3, [pc, #8]	; (8000320 <HAL_GetTick+0x10>)
 8000316:	681b      	ldr	r3, [r3, #0]
 8000318:	0018      	movs	r0, r3
 800031a:	46bd      	mov	sp, r7
 800031c:	bd80      	pop	{r7, pc}
 800031e:	46c0      	nop			; (mov r8, r8)
 8000320:	20000028 	.word	0x20000028

08000324 <__NVIC_SetPriority>:
 8000324:	b590      	push	{r4, r7, lr}
 8000326:	b083      	sub	sp, #12
 8000328:	af00      	add	r7, sp, #0
 800032a:	0002      	movs	r2, r0
 800032c:	6039      	str	r1, [r7, #0]
 800032e:	1dfb      	adds	r3, r7, #7
 8000330:	701a      	strb	r2, [r3, #0]
 8000332:	1dfb      	adds	r3, r7, #7
 8000334:	781b      	ldrb	r3, [r3, #0]
 8000336:	2b7f      	cmp	r3, #127	; 0x7f
 8000338:	d828      	bhi.n	800038c <__NVIC_SetPriority+0x68>
 800033a:	4a2f      	ldr	r2, [pc, #188]	; (80003f8 <__NVIC_SetPriority+0xd4>)
 800033c:	1dfb      	adds	r3, r7, #7
 800033e:	781b      	ldrb	r3, [r3, #0]
 8000340:	b25b      	sxtb	r3, r3
 8000342:	089b      	lsrs	r3, r3, #2
 8000344:	33c0      	adds	r3, #192	; 0xc0
 8000346:	009b      	lsls	r3, r3, #2
 8000348:	589b      	ldr	r3, [r3, r2]
 800034a:	1dfa      	adds	r2, r7, #7
 800034c:	7812      	ldrb	r2, [r2, #0]
 800034e:	0011      	movs	r1, r2
 8000350:	2203      	movs	r2, #3
 8000352:	400a      	ands	r2, r1
 8000354:	00d2      	lsls	r2, r2, #3
 8000356:	21ff      	movs	r1, #255	; 0xff
 8000358:	4091      	lsls	r1, r2
 800035a:	000a      	movs	r2, r1
 800035c:	43d2      	mvns	r2, r2
 800035e:	401a      	ands	r2, r3
 8000360:	0011      	movs	r1, r2
 8000362:	683b      	ldr	r3, [r7, #0]
 8000364:	019b      	lsls	r3, r3, #6
 8000366:	22ff      	movs	r2, #255	; 0xff
 8000368:	401a      	ands	r2, r3
 800036a:	1dfb      	adds	r3, r7, #7
 800036c:	781b      	ldrb	r3, [r3, #0]
 800036e:	0018      	movs	r0, r3
 8000370:	2303      	movs	r3, #3
 8000372:	4003      	ands	r3, r0
 8000374:	00db      	lsls	r3, r3, #3
 8000376:	409a      	lsls	r2, r3
 8000378:	481f      	ldr	r0, [pc, #124]	; (80003f8 <__NVIC_SetPriority+0xd4>)
 800037a:	1dfb      	adds	r3, r7, #7
 800037c:	781b      	ldrb	r3, [r3, #0]
 800037e:	b25b      	sxtb	r3, r3
 8000380:	089b      	lsrs	r3, r3, #2
 8000382:	430a      	orrs	r2, r1
 8000384:	33c0      	adds	r3, #192	; 0xc0
 8000386:	009b      	lsls	r3, r3, #2
 8000388:	501a      	str	r2, [r3, r0]
 800038a:	e031      	b.n	80003f0 <__NVIC_SetPriority+0xcc>
 800038c:	4a1b      	ldr	r2, [pc, #108]	; (80003fc <__NVIC_SetPriority+0xd8>)
 800038e:	1dfb      	adds	r3, r7, #7
 8000390:	781b      	ldrb	r3, [r3, #0]
 8000392:	0019      	movs	r1, r3
 8000394:	230f      	movs	r3, #15
 8000396:	400b      	ands	r3, r1
 8000398:	3b08      	subs	r3, #8
 800039a:	089b      	lsrs	r3, r3, #2
 800039c:	3306      	adds	r3, #6
 800039e:	009b      	lsls	r3, r3, #2
 80003a0:	18d3      	adds	r3, r2, r3
 80003a2:	3304      	adds	r3, #4
 80003a4:	681b      	ldr	r3, [r3, #0]
 80003a6:	1dfa      	adds	r2, r7, #7
 80003a8:	7812      	ldrb	r2, [r2, #0]
 80003aa:	0011      	movs	r1, r2
 80003ac:	2203      	movs	r2, #3
 80003ae:	400a      	ands	r2, r1
 80003b0:	00d2      	lsls	r2, r2, #3
 80003b2:	21ff      	movs	r1, #255	; 0xff
 80003b4:	4091      	lsls	r1, r2
 80003b6:	000a      	movs	r2, r1
 80003b8:	43d2      	mvns	r2, r2
 80003ba:	401a      	ands	r2, r3
 80003bc:	0011      	movs	r1, r2
 80003be:	683b      	ldr	r3, [r7, #0]
 80003c0:	019b      	lsls	r3, r3, #6
 80003c2:	22ff      	movs	r2, #255	; 0xff
 80003c4:	401a      	ands	r2, r3
 80003c6:	1dfb      	adds	r3, r7, #7
 80003c8:	781b      	ldrb	r3, [r3, #0]
 80003ca:	0018      	movs	r0, r3
 80003cc:	2303      	movs	r3, #3
 80003ce:	4003      	ands	r3, r0
 80003d0:	00db      	lsls	r3, r3, #3
 80003d2:	409a      	lsls	r2, r3
 80003d4:	4809      	ldr	r0, [pc, #36]	; (80003fc <__NVIC_SetPriority+0xd8>)
 80003d6:	1dfb      	adds	r3, r7, #7
 80003d8:	781b      	ldrb	r3, [r3, #0]
 80003da:	001c      	movs	r4, r3
 80003dc:	230f      	movs	r3, #15
 80003de:	4023      	ands	r3, r4
 80003e0:	3b08      	subs	r3, #8
 80003e2:	089b      	lsrs	r3, r3, #2
 80003e4:	430a      	orrs	r2, r1
 80003e6:	3306      	adds	r3, #6
 80003e8:	009b      	lsls	r3, r3, #2
 80003ea:	18c3      	adds	r3, r0, r3
 80003ec:	3304      	adds	r3, #4
 80003ee:	601a      	str	r2, [r3, #0]
 80003f0:	46c0      	nop			; (mov r8, r8)
 80003f2:	46bd      	mov	sp, r7
 80003f4:	b003      	add	sp, #12
 80003f6:	bd90      	pop	{r4, r7, pc}
 80003f8:	e000e100 	.word	0xe000e100
 80003fc:	e000ed00 	.word	0xe000ed00

08000400 <SysTick_Config>:
 8000400:	b580      	push	{r7, lr}
 8000402:	b082      	sub	sp, #8
 8000404:	af00      	add	r7, sp, #0
 8000406:	6078      	str	r0, [r7, #4]
 8000408:	687b      	ldr	r3, [r7, #4]
 800040a:	3b01      	subs	r3, #1
 800040c:	4a0c      	ldr	r2, [pc, #48]	; (8000440 <SysTick_Config+0x40>)
 800040e:	4293      	cmp	r3, r2
 8000410:	d901      	bls.n	8000416 <SysTick_Config+0x16>
 8000412:	2301      	movs	r3, #1
 8000414:	e010      	b.n	8000438 <SysTick_Config+0x38>
 8000416:	4b0b      	ldr	r3, [pc, #44]	; (8000444 <SysTick_Config+0x44>)
 8000418:	687a      	ldr	r2, [r7, #4]
 800041a:	3a01      	subs	r2, #1
 800041c:	605a      	str	r2, [r3, #4]
 800041e:	2301      	movs	r3, #1
 8000420:	425b      	negs	r3, r3
 8000422:	2103      	movs	r1, #3
 8000424:	0018      	movs	r0, r3
 8000426:	f7ff ff7d 	bl	8000324 <__NVIC_SetPriority>
 800042a:	4b06      	ldr	r3, [pc, #24]	; (8000444 <SysTick_Config+0x44>)
 800042c:	2200      	movs	r2, #0
 800042e:	609a      	str	r2, [r3, #8]
 8000430:	4b04      	ldr	r3, [pc, #16]	; (8000444 <SysTick_Config+0x44>)
 8000432:	2207      	movs	r2, #7
 8000434:	601a      	str	r2, [r3, #0]
 8000436:	2300      	movs	r3, #0
 8000438:	0018      	movs	r0, r3
 800043a:	46bd      	mov	sp, r7
 800043c:	b002      	add	sp, #8
 800043e:	bd80      	pop	{r7, pc}
 8000440:	00ffffff 	.word	0x00ffffff
 8000444:	e000e010 	.word	0xe000e010

08000448 <HAL_NVIC_SetPriority>:
 8000448:	b580      	push	{r7, lr}
 800044a:	b084      	sub	sp, #16
 800044c:	af00      	add	r7, sp, #0
 800044e:	60b9      	str	r1, [r7, #8]
 8000450:	607a      	str	r2, [r7, #4]
 8000452:	210f      	movs	r1, #15
 8000454:	187b      	adds	r3, r7, r1
 8000456:	1c02      	adds	r2, r0, #0
 8000458:	701a      	strb	r2, [r3, #0]
 800045a:	68ba      	ldr	r2, [r7, #8]
 800045c:	187b      	adds	r3, r7, r1
 800045e:	781b      	ldrb	r3, [r3, #0]
 8000460:	b25b      	sxtb	r3, r3
 8000462:	0011      	movs	r1, r2
 8000464:	0018      	movs	r0, r3
 8000466:	f7ff ff5d 	bl	8000324 <__NVIC_SetPriority>
 800046a:	46c0      	nop			; (mov r8, r8)
 800046c:	46bd      	mov	sp, r7
 800046e:	b004      	add	sp, #16
 8000470:	bd80      	pop	{r7, pc}

08000472 <HAL_SYSTICK_Config>:
 8000472:	b580      	push	{r7, lr}
 8000474:	b082      	sub	sp, #8
 8000476:	af00      	add	r7, sp, #0
 8000478:	6078      	str	r0, [r7, #4]
 800047a:	687b      	ldr	r3, [r7, #4]
 800047c:	0018      	movs	r0, r3
 800047e:	f7ff ffbf 	bl	8000400 <SysTick_Config>
 8000482:	0003      	movs	r3, r0
 8000484:	0018      	movs	r0, r3
 8000486:	46bd      	mov	sp, r7
 8000488:	b002      	add	sp, #8
 800048a:	bd80      	pop	{r7, pc}

0800048c <HAL_GPIO_Init>:
 800048c:	b580      	push	{r7, lr}
 800048e:	b086      	sub	sp, #24
 8000490:	af00      	add	r7, sp, #0
 8000492:	6078      	str	r0, [r7, #4]
 8000494:	6039      	str	r1, [r7, #0]
 8000496:	2300      	movs	r3, #0
 8000498:	617b      	str	r3, [r7, #20]
 800049a:	e147      	b.n	800072c <HAL_GPIO_Init+0x2a0>
 800049c:	683b      	ldr	r3, [r7, #0]
 800049e:	681b      	ldr	r3, [r3, #0]
 80004a0:	2101      	movs	r1, #1
 80004a2:	697a      	ldr	r2, [r7, #20]
 80004a4:	4091      	lsls	r1, r2
 80004a6:	000a      	movs	r2, r1
 80004a8:	4013      	ands	r3, r2
 80004aa:	60fb      	str	r3, [r7, #12]
 80004ac:	68fb      	ldr	r3, [r7, #12]
 80004ae:	2b00      	cmp	r3, #0
 80004b0:	d100      	bne.n	80004b4 <HAL_GPIO_Init+0x28>
 80004b2:	e138      	b.n	8000726 <HAL_GPIO_Init+0x29a>
 80004b4:	683b      	ldr	r3, [r7, #0]
 80004b6:	685b      	ldr	r3, [r3, #4]
 80004b8:	2b02      	cmp	r3, #2
 80004ba:	d003      	beq.n	80004c4 <HAL_GPIO_Init+0x38>
 80004bc:	683b      	ldr	r3, [r7, #0]
 80004be:	685b      	ldr	r3, [r3, #4]
 80004c0:	2b12      	cmp	r3, #18
 80004c2:	d123      	bne.n	800050c <HAL_GPIO_Init+0x80>
 80004c4:	697b      	ldr	r3, [r7, #20]
 80004c6:	08da      	lsrs	r2, r3, #3
 80004c8:	687b      	ldr	r3, [r7, #4]
 80004ca:	3208      	adds	r2, #8
 80004cc:	0092      	lsls	r2, r2, #2
 80004ce:	58d3      	ldr	r3, [r2, r3]
 80004d0:	613b      	str	r3, [r7, #16]
 80004d2:	697b      	ldr	r3, [r7, #20]
 80004d4:	2207      	movs	r2, #7
 80004d6:	4013      	ands	r3, r2
 80004d8:	009b      	lsls	r3, r3, #2
 80004da:	220f      	movs	r2, #15
 80004dc:	409a      	lsls	r2, r3
 80004de:	0013      	movs	r3, r2
 80004e0:	43da      	mvns	r2, r3
 80004e2:	693b      	ldr	r3, [r7, #16]
 80004e4:	4013      	ands	r3, r2
 80004e6:	613b      	str	r3, [r7, #16]
 80004e8:	683b      	ldr	r3, [r7, #0]
 80004ea:	691a      	ldr	r2, [r3, #16]
 80004ec:	697b      	ldr	r3, [r7, #20]
 80004ee:	2107      	movs	r1, #7
 80004f0:	400b      	ands	r3, r1
 80004f2:	009b      	lsls	r3, r3, #2
 80004f4:	409a      	lsls	r2, r3
 80004f6:	0013      	movs	r3, r2
 80004f8:	693a      	ldr	r2, [r7, #16]
 80004fa:	4313      	orrs	r3, r2
 80004fc:	613b      	str	r3, [r7, #16]
 80004fe:	697b      	ldr	r3, [r7, #20]
 8000500:	08da      	lsrs	r2, r3, #3
 8000502:	687b      	ldr	r3, [r7, #4]
 8000504:	3208      	adds	r2, #8
 8000506:	0092      	lsls	r2, r2, #2
 8000508:	6939      	ldr	r1, [r7, #16]
 800050a:	50d1      	str	r1, [r2, r3]
 800050c:	687b      	ldr	r3, [r7, #4]
 800050e:	681b      	ldr	r3, [r3, #0]
 8000510:	613b      	str	r3, [r7, #16]
 8000512:	697b      	ldr	r3, [r7, #20]
 8000514:	005b      	lsls	r3, r3, #1
 8000516:	2203      	movs	r2, #3
 8000518:	409a      	lsls	r2, r3
 800051a:	0013      	movs	r3, r2
 800051c:	43da      	mvns	r2, r3
 800051e:	693b      	ldr	r3, [r7, #16]
 8000520:	4013      	ands	r3, r2
 8000522:	613b      	str	r3, [r7, #16]
 8000524:	683b      	ldr	r3, [r7, #0]
 8000526:	685b      	ldr	r3, [r3, #4]
 8000528:	2203      	movs	r2, #3
 800052a:	401a      	ands	r2, r3
 800052c:	697b      	ldr	r3, [r7, #20]
 800052e:	005b      	lsls	r3, r3, #1
 8000530:	409a      	lsls	r2, r3
 8000532:	0013      	movs	r3, r2
 8000534:	693a      	ldr	r2, [r7, #16]
 8000536:	4313      	orrs	r3, r2
 8000538:	613b      	str	r3, [r7, #16]
 800053a:	687b      	ldr	r3, [r7, #4]
 800053c:	693a      	ldr	r2, [r7, #16]
 800053e:	601a      	str	r2, [r3, #0]
 8000540:	683b      	ldr	r3, [r7, #0]
 8000542:	685b      	ldr	r3, [r3, #4]
 8000544:	2b01      	cmp	r3, #1
 8000546:	d00b      	beq.n	8000560 <HAL_GPIO_Init+0xd4>
 8000548:	683b      	ldr	r3, [r7, #0]
 800054a:	685b      	ldr	r3, [r3, #4]
 800054c:	2b02      	cmp	r3, #2
 800054e:	d007      	beq.n	8000560 <HAL_GPIO_Init+0xd4>
 8000550:	683b      	ldr	r3, [r7, #0]
 8000552:	685b      	ldr	r3, [r3, #4]
 8000554:	2b11      	cmp	r3, #17
 8000556:	d003      	beq.n	8000560 <HAL_GPIO_Init+0xd4>
 8000558:	683b      	ldr	r3, [r7, #0]
 800055a:	685b      	ldr	r3, [r3, #4]
 800055c:	2b12      	cmp	r3, #18
 800055e:	d130      	bne.n	80005c2 <HAL_GPIO_Init+0x136>
 8000560:	687b      	ldr	r3, [r7, #4]
 8000562:	689b      	ldr	r3, [r3, #8]
 8000564:	613b      	str	r3, [r7, #16]
 8000566:	697b      	ldr	r3, [r7, #20]
 8000568:	005b      	lsls	r3, r3, #1
 800056a:	2203      	movs	r2, #3
 800056c:	409a      	lsls	r2, r3
 800056e:	0013      	movs	r3, r2
 8000570:	43da      	mvns	r2, r3
 8000572:	693b      	ldr	r3, [r7, #16]
 8000574:	4013      	ands	r3, r2
 8000576:	613b      	str	r3, [r7, #16]
 8000578:	683b      	ldr	r3, [r7, #0]
 800057a:	68da      	ldr	r2, [r3, #12]
 800057c:	697b      	ldr	r3, [r7, #20]
 800057e:	005b      	lsls	r3, r3, #1
 8000580:	409a      	lsls	r2, r3
 8000582:	0013      	movs	r3, r2
 8000584:	693a      	ldr	r2, [r7, #16]
 8000586:	4313      	orrs	r3, r2
 8000588:	613b      	str	r3, [r7, #16]
 800058a:	687b      	ldr	r3, [r7, #4]
 800058c:	693a      	ldr	r2, [r7, #16]
 800058e:	609a      	str	r2, [r3, #8]
 8000590:	687b      	ldr	r3, [r7, #4]
 8000592:	685b      	ldr	r3, [r3, #4]
 8000594:	613b      	str	r3, [r7, #16]
 8000596:	2201      	movs	r2, #1
 8000598:	697b      	ldr	r3, [r7, #20]
 800059a:	409a      	lsls	r2, r3
 800059c:	0013      	movs	r3, r2
 800059e:	43da      	mvns	r2, r3
 80005a0:	693b      	ldr	r3, [r7, #16]
 80005a2:	4013      	ands	r3, r2
 80005a4:	613b      	str	r3, [r7, #16]
 80005a6:	683b      	ldr	r3, [r7, #0]
 80005a8:	685b      	ldr	r3, [r3, #4]
 80005aa:	091b      	lsrs	r3, r3, #4
 80005ac:	2201      	movs	r2, #1
 80005ae:	401a      	ands	r2, r3
 80005b0:	697b      	ldr	r3, [r7, #20]
 80005b2:	409a      	lsls	r2, r3
 80005b4:	0013      	movs	r3, r2
 80005b6:	693a      	ldr	r2, [r7, #16]
 80005b8:	4313      	orrs	r3, r2
 80005ba:	613b      	str	r3, [r7, #16]
 80005bc:	687b      	ldr	r3, [r7, #4]
 80005be:	693a      	ldr	r2, [r7, #16]
 80005c0:	605a      	str	r2, [r3, #4]
 80005c2:	687b      	ldr	r3, [r7, #4]
 80005c4:	68db      	ldr	r3, [r3, #12]
 80005c6:	613b      	str	r3, [r7, #16]
 80005c8:	697b      	ldr	r3, [r7, #20]
 80005ca:	005b      	lsls	r3, r3, #1
 80005cc:	2203      	movs	r2, #3
 80005ce:	409a      	lsls	r2, r3
 80005d0:	0013      	movs	r3, r2
 80005d2:	43da      	mvns	r2, r3
 80005d4:	693b      	ldr	r3, [r7, #16]
 80005d6:	4013      	ands	r3, r2
 80005d8:	613b      	str	r3, [r7, #16]
 80005da:	683b      	ldr	r3, [r7, #0]
 80005dc:	689a      	ldr	r2, [r3, #8]
 80005de:	697b      	ldr	r3, [r7, #20]
 80005e0:	005b      	lsls	r3, r3, #1
 80005e2:	409a      	lsls	r2, r3
 80005e4:	0013      	movs	r3, r2
 80005e6:	693a      	ldr	r2, [r7, #16]
 80005e8:	4313      	orrs	r3, r2
 80005ea:	613b      	str	r3, [r7, #16]
 80005ec:	687b      	ldr	r3, [r7, #4]
 80005ee:	693a      	ldr	r2, [r7, #16]
 80005f0:	60da      	str	r2, [r3, #12]
 80005f2:	683b      	ldr	r3, [r7, #0]
 80005f4:	685a      	ldr	r2, [r3, #4]
 80005f6:	2380      	movs	r3, #128	; 0x80
 80005f8:	055b      	lsls	r3, r3, #21
 80005fa:	4013      	ands	r3, r2
 80005fc:	d100      	bne.n	8000600 <HAL_GPIO_Init+0x174>
 80005fe:	e092      	b.n	8000726 <HAL_GPIO_Init+0x29a>
 8000600:	4a50      	ldr	r2, [pc, #320]	; (8000744 <HAL_GPIO_Init+0x2b8>)
 8000602:	697b      	ldr	r3, [r7, #20]
 8000604:	089b      	lsrs	r3, r3, #2
 8000606:	3318      	adds	r3, #24
 8000608:	009b      	lsls	r3, r3, #2
 800060a:	589b      	ldr	r3, [r3, r2]
 800060c:	613b      	str	r3, [r7, #16]
 800060e:	697b      	ldr	r3, [r7, #20]
 8000610:	2203      	movs	r2, #3
 8000612:	4013      	ands	r3, r2
 8000614:	00db      	lsls	r3, r3, #3
 8000616:	220f      	movs	r2, #15
 8000618:	409a      	lsls	r2, r3
 800061a:	0013      	movs	r3, r2
 800061c:	43da      	mvns	r2, r3
 800061e:	693b      	ldr	r3, [r7, #16]
 8000620:	4013      	ands	r3, r2
 8000622:	613b      	str	r3, [r7, #16]
 8000624:	687a      	ldr	r2, [r7, #4]
 8000626:	23a0      	movs	r3, #160	; 0xa0
 8000628:	05db      	lsls	r3, r3, #23
 800062a:	429a      	cmp	r2, r3
 800062c:	d013      	beq.n	8000656 <HAL_GPIO_Init+0x1ca>
 800062e:	687b      	ldr	r3, [r7, #4]
 8000630:	4a45      	ldr	r2, [pc, #276]	; (8000748 <HAL_GPIO_Init+0x2bc>)
 8000632:	4293      	cmp	r3, r2
 8000634:	d00d      	beq.n	8000652 <HAL_GPIO_Init+0x1c6>
 8000636:	687b      	ldr	r3, [r7, #4]
 8000638:	4a44      	ldr	r2, [pc, #272]	; (800074c <HAL_GPIO_Init+0x2c0>)
 800063a:	4293      	cmp	r3, r2
 800063c:	d007      	beq.n	800064e <HAL_GPIO_Init+0x1c2>
 800063e:	687b      	ldr	r3, [r7, #4]
 8000640:	4a43      	ldr	r2, [pc, #268]	; (8000750 <HAL_GPIO_Init+0x2c4>)
 8000642:	4293      	cmp	r3, r2
 8000644:	d101      	bne.n	800064a <HAL_GPIO_Init+0x1be>
 8000646:	2303      	movs	r3, #3
 8000648:	e006      	b.n	8000658 <HAL_GPIO_Init+0x1cc>
 800064a:	2305      	movs	r3, #5
 800064c:	e004      	b.n	8000658 <HAL_GPIO_Init+0x1cc>
 800064e:	2302      	movs	r3, #2
 8000650:	e002      	b.n	8000658 <HAL_GPIO_Init+0x1cc>
 8000652:	2301      	movs	r3, #1
 8000654:	e000      	b.n	8000658 <HAL_GPIO_Init+0x1cc>
 8000656:	2300      	movs	r3, #0
 8000658:	697a      	ldr	r2, [r7, #20]
 800065a:	2103      	movs	r1, #3
 800065c:	400a      	ands	r2, r1
 800065e:	00d2      	lsls	r2, r2, #3
 8000660:	4093      	lsls	r3, r2
 8000662:	693a      	ldr	r2, [r7, #16]
 8000664:	4313      	orrs	r3, r2
 8000666:	613b      	str	r3, [r7, #16]
 8000668:	4936      	ldr	r1, [pc, #216]	; (8000744 <HAL_GPIO_Init+0x2b8>)
 800066a:	697b      	ldr	r3, [r7, #20]
 800066c:	089b      	lsrs	r3, r3, #2
 800066e:	3318      	adds	r3, #24
 8000670:	009b      	lsls	r3, r3, #2
 8000672:	693a      	ldr	r2, [r7, #16]
 8000674:	505a      	str	r2, [r3, r1]
 8000676:	4a33      	ldr	r2, [pc, #204]	; (8000744 <HAL_GPIO_Init+0x2b8>)
 8000678:	2380      	movs	r3, #128	; 0x80
 800067a:	58d3      	ldr	r3, [r2, r3]
 800067c:	613b      	str	r3, [r7, #16]
 800067e:	68fb      	ldr	r3, [r7, #12]
 8000680:	43da      	mvns	r2, r3
 8000682:	693b      	ldr	r3, [r7, #16]
 8000684:	4013      	ands	r3, r2
 8000686:	613b      	str	r3, [r7, #16]
 8000688:	683b      	ldr	r3, [r7, #0]
 800068a:	685a      	ldr	r2, [r3, #4]
 800068c:	2380      	movs	r3, #128	; 0x80
 800068e:	025b      	lsls	r3, r3, #9
 8000690:	4013      	ands	r3, r2
 8000692:	d003      	beq.n	800069c <HAL_GPIO_Init+0x210>
 8000694:	693a      	ldr	r2, [r7, #16]
 8000696:	68fb      	ldr	r3, [r7, #12]
 8000698:	4313      	orrs	r3, r2
 800069a:	613b      	str	r3, [r7, #16]
 800069c:	4929      	ldr	r1, [pc, #164]	; (8000744 <HAL_GPIO_Init+0x2b8>)
 800069e:	2280      	movs	r2, #128	; 0x80
 80006a0:	693b      	ldr	r3, [r7, #16]
 80006a2:	508b      	str	r3, [r1, r2]
 80006a4:	4a27      	ldr	r2, [pc, #156]	; (8000744 <HAL_GPIO_Init+0x2b8>)
 80006a6:	2384      	movs	r3, #132	; 0x84
 80006a8:	58d3      	ldr	r3, [r2, r3]
 80006aa:	613b      	str	r3, [r7, #16]
 80006ac:	68fb      	ldr	r3, [r7, #12]
 80006ae:	43da      	mvns	r2, r3
 80006b0:	693b      	ldr	r3, [r7, #16]
 80006b2:	4013      	ands	r3, r2
 80006b4:	613b      	str	r3, [r7, #16]
 80006b6:	683b      	ldr	r3, [r7, #0]
 80006b8:	685a      	ldr	r2, [r3, #4]
 80006ba:	2380      	movs	r3, #128	; 0x80
 80006bc:	029b      	lsls	r3, r3, #10
 80006be:	4013      	ands	r3, r2
 80006c0:	d003      	beq.n	80006ca <HAL_GPIO_Init+0x23e>
 80006c2:	693a      	ldr	r2, [r7, #16]
 80006c4:	68fb      	ldr	r3, [r7, #12]
 80006c6:	4313      	orrs	r3, r2
 80006c8:	613b      	str	r3, [r7, #16]
 80006ca:	491e      	ldr	r1, [pc, #120]	; (8000744 <HAL_GPIO_Init+0x2b8>)
 80006cc:	2284      	movs	r2, #132	; 0x84
 80006ce:	693b      	ldr	r3, [r7, #16]
 80006d0:	508b      	str	r3, [r1, r2]
 80006d2:	4b1c      	ldr	r3, [pc, #112]	; (8000744 <HAL_GPIO_Init+0x2b8>)
 80006d4:	681b      	ldr	r3, [r3, #0]
 80006d6:	613b      	str	r3, [r7, #16]
 80006d8:	68fb      	ldr	r3, [r7, #12]
 80006da:	43da      	mvns	r2, r3
 80006dc:	693b      	ldr	r3, [r7, #16]
 80006de:	4013      	ands	r3, r2
 80006e0:	613b      	str	r3, [r7, #16]
 80006e2:	683b      	ldr	r3, [r7, #0]
 80006e4:	685a      	ldr	r2, [r3, #4]
 80006e6:	2380      	movs	r3, #128	; 0x80
 80006e8:	035b      	lsls	r3, r3, #13
 80006ea:	4013      	ands	r3, r2
 80006ec:	d003      	beq.n	80006f6 <HAL_GPIO_Init+0x26a>
 80006ee:	693a      	ldr	r2, [r7, #16]
 80006f0:	68fb      	ldr	r3, [r7, #12]
 80006f2:	4313      	orrs	r3, r2
 80006f4:	613b      	str	r3, [r7, #16]
 80006f6:	4b13      	ldr	r3, [pc, #76]	; (8000744 <HAL_GPIO_Init+0x2b8>)
 80006f8:	693a      	ldr	r2, [r7, #16]
 80006fa:	601a      	str	r2, [r3, #0]
 80006fc:	4b11      	ldr	r3, [pc, #68]	; (8000744 <HAL_GPIO_Init+0x2b8>)
 80006fe:	685b      	ldr	r3, [r3, #4]
 8000700:	613b      	str	r3, [r7, #16]
 8000702:	68fb      	ldr	r3, [r7, #12]
 8000704:	43da      	mvns	r2, r3
 8000706:	693b      	ldr	r3, [r7, #16]
 8000708:	4013      	ands	r3, r2
 800070a:	613b      	str	r3, [r7, #16]
 800070c:	683b      	ldr	r3, [r7, #0]
 800070e:	685a      	ldr	r2, [r3, #4]
 8000710:	2380      	movs	r3, #128	; 0x80
 8000712:	039b      	lsls	r3, r3, #14
 8000714:	4013      	ands	r3, r2
 8000716:	d003      	beq.n	8000720 <HAL_GPIO_Init+0x294>
 8000718:	693a      	ldr	r2, [r7, #16]
 800071a:	68fb      	ldr	r3, [r7, #12]
 800071c:	4313      	orrs	r3, r2
 800071e:	613b      	str	r3, [r7, #16]
 8000720:	4b08      	ldr	r3, [pc, #32]	; (8000744 <HAL_GPIO_Init+0x2b8>)
 8000722:	693a      	ldr	r2, [r7, #16]
 8000724:	605a      	str	r2, [r3, #4]
 8000726:	697b      	ldr	r3, [r7, #20]
 8000728:	3301      	adds	r3, #1
 800072a:	617b      	str	r3, [r7, #20]
 800072c:	683b      	ldr	r3, [r7, #0]
 800072e:	681a      	ldr	r2, [r3, #0]
 8000730:	697b      	ldr	r3, [r7, #20]
 8000732:	40da      	lsrs	r2, r3
 8000734:	1e13      	subs	r3, r2, #0
 8000736:	d000      	beq.n	800073a <HAL_GPIO_Init+0x2ae>
 8000738:	e6b0      	b.n	800049c <HAL_GPIO_Init+0x10>
 800073a:	46c0      	nop			; (mov r8, r8)
 800073c:	46bd      	mov	sp, r7
 800073e:	b006      	add	sp, #24
 8000740:	bd80      	pop	{r7, pc}
 8000742:	46c0      	nop			; (mov r8, r8)
 8000744:	40021800 	.word	0x40021800
 8000748:	50000400 	.word	0x50000400
 800074c:	50000800 	.word	0x50000800
 8000750:	50000c00 	.word	0x50000c00

08000754 <HAL_GPIO_WritePin>:
 8000754:	b580      	push	{r7, lr}
 8000756:	b082      	sub	sp, #8
 8000758:	af00      	add	r7, sp, #0
 800075a:	6078      	str	r0, [r7, #4]
 800075c:	0008      	movs	r0, r1
 800075e:	0011      	movs	r1, r2
 8000760:	1cbb      	adds	r3, r7, #2
 8000762:	1c02      	adds	r2, r0, #0
 8000764:	801a      	strh	r2, [r3, #0]
 8000766:	1c7b      	adds	r3, r7, #1
 8000768:	1c0a      	adds	r2, r1, #0
 800076a:	701a      	strb	r2, [r3, #0]
 800076c:	1c7b      	adds	r3, r7, #1
 800076e:	781b      	ldrb	r3, [r3, #0]
 8000770:	2b00      	cmp	r3, #0
 8000772:	d004      	beq.n	800077e <HAL_GPIO_WritePin+0x2a>
 8000774:	1cbb      	adds	r3, r7, #2
 8000776:	881a      	ldrh	r2, [r3, #0]
 8000778:	687b      	ldr	r3, [r7, #4]
 800077a:	619a      	str	r2, [r3, #24]
 800077c:	e003      	b.n	8000786 <HAL_GPIO_WritePin+0x32>
 800077e:	1cbb      	adds	r3, r7, #2
 8000780:	881a      	ldrh	r2, [r3, #0]
 8000782:	687b      	ldr	r3, [r7, #4]
 8000784:	629a      	str	r2, [r3, #40]	; 0x28
 8000786:	46c0      	nop			; (mov r8, r8)
 8000788:	46bd      	mov	sp, r7
 800078a:	b002      	add	sp, #8
 800078c:	bd80      	pop	{r7, pc}

0800078e <HAL_GPIO_TogglePin>:
 800078e:	b580      	push	{r7, lr}
 8000790:	b082      	sub	sp, #8
 8000792:	af00      	add	r7, sp, #0
 8000794:	6078      	str	r0, [r7, #4]
 8000796:	000a      	movs	r2, r1
 8000798:	1cbb      	adds	r3, r7, #2
 800079a:	801a      	strh	r2, [r3, #0]
 800079c:	687b      	ldr	r3, [r7, #4]
 800079e:	695b      	ldr	r3, [r3, #20]
 80007a0:	1cba      	adds	r2, r7, #2
 80007a2:	8812      	ldrh	r2, [r2, #0]
 80007a4:	4013      	ands	r3, r2
 80007a6:	d004      	beq.n	80007b2 <HAL_GPIO_TogglePin+0x24>
 80007a8:	1cbb      	adds	r3, r7, #2
 80007aa:	881a      	ldrh	r2, [r3, #0]
 80007ac:	687b      	ldr	r3, [r7, #4]
 80007ae:	629a      	str	r2, [r3, #40]	; 0x28
 80007b0:	e003      	b.n	80007ba <HAL_GPIO_TogglePin+0x2c>
 80007b2:	1cbb      	adds	r3, r7, #2
 80007b4:	881a      	ldrh	r2, [r3, #0]
 80007b6:	687b      	ldr	r3, [r7, #4]
 80007b8:	619a      	str	r2, [r3, #24]
 80007ba:	46c0      	nop			; (mov r8, r8)
 80007bc:	46bd      	mov	sp, r7
 80007be:	b002      	add	sp, #8
 80007c0:	bd80      	pop	{r7, pc}
	...

080007c4 <HAL_PWREx_ControlVoltageScaling>:
 80007c4:	b580      	push	{r7, lr}
 80007c6:	b084      	sub	sp, #16
 80007c8:	af00      	add	r7, sp, #0
 80007ca:	6078      	str	r0, [r7, #4]
 80007cc:	4b19      	ldr	r3, [pc, #100]	; (8000834 <HAL_PWREx_ControlVoltageScaling+0x70>)
 80007ce:	681b      	ldr	r3, [r3, #0]
 80007d0:	4a19      	ldr	r2, [pc, #100]	; (8000838 <HAL_PWREx_ControlVoltageScaling+0x74>)
 80007d2:	4013      	ands	r3, r2
 80007d4:	0019      	movs	r1, r3
 80007d6:	4b17      	ldr	r3, [pc, #92]	; (8000834 <HAL_PWREx_ControlVoltageScaling+0x70>)
 80007d8:	687a      	ldr	r2, [r7, #4]
 80007da:	430a      	orrs	r2, r1
 80007dc:	601a      	str	r2, [r3, #0]
 80007de:	687a      	ldr	r2, [r7, #4]
 80007e0:	2380      	movs	r3, #128	; 0x80
 80007e2:	009b      	lsls	r3, r3, #2
 80007e4:	429a      	cmp	r2, r3
 80007e6:	d11f      	bne.n	8000828 <HAL_PWREx_ControlVoltageScaling+0x64>
 80007e8:	4b14      	ldr	r3, [pc, #80]	; (800083c <HAL_PWREx_ControlVoltageScaling+0x78>)
 80007ea:	681a      	ldr	r2, [r3, #0]
 80007ec:	0013      	movs	r3, r2
 80007ee:	005b      	lsls	r3, r3, #1
 80007f0:	189b      	adds	r3, r3, r2
 80007f2:	005b      	lsls	r3, r3, #1
 80007f4:	4912      	ldr	r1, [pc, #72]	; (8000840 <HAL_PWREx_ControlVoltageScaling+0x7c>)
 80007f6:	0018      	movs	r0, r3
 80007f8:	f7ff fc84 	bl	8000104 <__udivsi3>
 80007fc:	0003      	movs	r3, r0
 80007fe:	3301      	adds	r3, #1
 8000800:	60fb      	str	r3, [r7, #12]
 8000802:	e008      	b.n	8000816 <HAL_PWREx_ControlVoltageScaling+0x52>
 8000804:	68fb      	ldr	r3, [r7, #12]
 8000806:	2b00      	cmp	r3, #0
 8000808:	d003      	beq.n	8000812 <HAL_PWREx_ControlVoltageScaling+0x4e>
 800080a:	68fb      	ldr	r3, [r7, #12]
 800080c:	3b01      	subs	r3, #1
 800080e:	60fb      	str	r3, [r7, #12]
 8000810:	e001      	b.n	8000816 <HAL_PWREx_ControlVoltageScaling+0x52>
 8000812:	2303      	movs	r3, #3
 8000814:	e009      	b.n	800082a <HAL_PWREx_ControlVoltageScaling+0x66>
 8000816:	4b07      	ldr	r3, [pc, #28]	; (8000834 <HAL_PWREx_ControlVoltageScaling+0x70>)
 8000818:	695a      	ldr	r2, [r3, #20]
 800081a:	2380      	movs	r3, #128	; 0x80
 800081c:	00db      	lsls	r3, r3, #3
 800081e:	401a      	ands	r2, r3
 8000820:	2380      	movs	r3, #128	; 0x80
 8000822:	00db      	lsls	r3, r3, #3
 8000824:	429a      	cmp	r2, r3
 8000826:	d0ed      	beq.n	8000804 <HAL_PWREx_ControlVoltageScaling+0x40>
 8000828:	2300      	movs	r3, #0
 800082a:	0018      	movs	r0, r3
 800082c:	46bd      	mov	sp, r7
 800082e:	b004      	add	sp, #16
 8000830:	bd80      	pop	{r7, pc}
 8000832:	46c0      	nop			; (mov r8, r8)
 8000834:	40007000 	.word	0x40007000
 8000838:	fffff9ff 	.word	0xfffff9ff
 800083c:	20000008 	.word	0x20000008
 8000840:	000f4240 	.word	0x000f4240

08000844 <HAL_RCC_OscConfig>:
 8000844:	b580      	push	{r7, lr}
 8000846:	b088      	sub	sp, #32
 8000848:	af00      	add	r7, sp, #0
 800084a:	6078      	str	r0, [r7, #4]
 800084c:	687b      	ldr	r3, [r7, #4]
 800084e:	2b00      	cmp	r3, #0
 8000850:	d101      	bne.n	8000856 <HAL_RCC_OscConfig+0x12>
 8000852:	2301      	movs	r3, #1
 8000854:	e304      	b.n	8000e60 <HAL_RCC_OscConfig+0x61c>
 8000856:	687b      	ldr	r3, [r7, #4]
 8000858:	681b      	ldr	r3, [r3, #0]
 800085a:	2201      	movs	r2, #1
 800085c:	4013      	ands	r3, r2
 800085e:	d100      	bne.n	8000862 <HAL_RCC_OscConfig+0x1e>
 8000860:	e07c      	b.n	800095c <HAL_RCC_OscConfig+0x118>
 8000862:	4bc3      	ldr	r3, [pc, #780]	; (8000b70 <HAL_RCC_OscConfig+0x32c>)
 8000864:	689b      	ldr	r3, [r3, #8]
 8000866:	2238      	movs	r2, #56	; 0x38
 8000868:	4013      	ands	r3, r2
 800086a:	61bb      	str	r3, [r7, #24]
 800086c:	4bc0      	ldr	r3, [pc, #768]	; (8000b70 <HAL_RCC_OscConfig+0x32c>)
 800086e:	68db      	ldr	r3, [r3, #12]
 8000870:	2203      	movs	r2, #3
 8000872:	4013      	ands	r3, r2
 8000874:	617b      	str	r3, [r7, #20]
 8000876:	69bb      	ldr	r3, [r7, #24]
 8000878:	2b10      	cmp	r3, #16
 800087a:	d102      	bne.n	8000882 <HAL_RCC_OscConfig+0x3e>
 800087c:	697b      	ldr	r3, [r7, #20]
 800087e:	2b03      	cmp	r3, #3
 8000880:	d002      	beq.n	8000888 <HAL_RCC_OscConfig+0x44>
 8000882:	69bb      	ldr	r3, [r7, #24]
 8000884:	2b08      	cmp	r3, #8
 8000886:	d10b      	bne.n	80008a0 <HAL_RCC_OscConfig+0x5c>
 8000888:	4bb9      	ldr	r3, [pc, #740]	; (8000b70 <HAL_RCC_OscConfig+0x32c>)
 800088a:	681a      	ldr	r2, [r3, #0]
 800088c:	2380      	movs	r3, #128	; 0x80
 800088e:	029b      	lsls	r3, r3, #10
 8000890:	4013      	ands	r3, r2
 8000892:	d062      	beq.n	800095a <HAL_RCC_OscConfig+0x116>
 8000894:	687b      	ldr	r3, [r7, #4]
 8000896:	685b      	ldr	r3, [r3, #4]
 8000898:	2b00      	cmp	r3, #0
 800089a:	d15e      	bne.n	800095a <HAL_RCC_OscConfig+0x116>
 800089c:	2301      	movs	r3, #1
 800089e:	e2df      	b.n	8000e60 <HAL_RCC_OscConfig+0x61c>
 80008a0:	687b      	ldr	r3, [r7, #4]
 80008a2:	685a      	ldr	r2, [r3, #4]
 80008a4:	2380      	movs	r3, #128	; 0x80
 80008a6:	025b      	lsls	r3, r3, #9
 80008a8:	429a      	cmp	r2, r3
 80008aa:	d107      	bne.n	80008bc <HAL_RCC_OscConfig+0x78>
 80008ac:	4bb0      	ldr	r3, [pc, #704]	; (8000b70 <HAL_RCC_OscConfig+0x32c>)
 80008ae:	681a      	ldr	r2, [r3, #0]
 80008b0:	4baf      	ldr	r3, [pc, #700]	; (8000b70 <HAL_RCC_OscConfig+0x32c>)
 80008b2:	2180      	movs	r1, #128	; 0x80
 80008b4:	0249      	lsls	r1, r1, #9
 80008b6:	430a      	orrs	r2, r1
 80008b8:	601a      	str	r2, [r3, #0]
 80008ba:	e020      	b.n	80008fe <HAL_RCC_OscConfig+0xba>
 80008bc:	687b      	ldr	r3, [r7, #4]
 80008be:	685a      	ldr	r2, [r3, #4]
 80008c0:	23a0      	movs	r3, #160	; 0xa0
 80008c2:	02db      	lsls	r3, r3, #11
 80008c4:	429a      	cmp	r2, r3
 80008c6:	d10e      	bne.n	80008e6 <HAL_RCC_OscConfig+0xa2>
 80008c8:	4ba9      	ldr	r3, [pc, #676]	; (8000b70 <HAL_RCC_OscConfig+0x32c>)
 80008ca:	681a      	ldr	r2, [r3, #0]
 80008cc:	4ba8      	ldr	r3, [pc, #672]	; (8000b70 <HAL_RCC_OscConfig+0x32c>)
 80008ce:	2180      	movs	r1, #128	; 0x80
 80008d0:	02c9      	lsls	r1, r1, #11
 80008d2:	430a      	orrs	r2, r1
 80008d4:	601a      	str	r2, [r3, #0]
 80008d6:	4ba6      	ldr	r3, [pc, #664]	; (8000b70 <HAL_RCC_OscConfig+0x32c>)
 80008d8:	681a      	ldr	r2, [r3, #0]
 80008da:	4ba5      	ldr	r3, [pc, #660]	; (8000b70 <HAL_RCC_OscConfig+0x32c>)
 80008dc:	2180      	movs	r1, #128	; 0x80
 80008de:	0249      	lsls	r1, r1, #9
 80008e0:	430a      	orrs	r2, r1
 80008e2:	601a      	str	r2, [r3, #0]
 80008e4:	e00b      	b.n	80008fe <HAL_RCC_OscConfig+0xba>
 80008e6:	4ba2      	ldr	r3, [pc, #648]	; (8000b70 <HAL_RCC_OscConfig+0x32c>)
 80008e8:	681a      	ldr	r2, [r3, #0]
 80008ea:	4ba1      	ldr	r3, [pc, #644]	; (8000b70 <HAL_RCC_OscConfig+0x32c>)
 80008ec:	49a1      	ldr	r1, [pc, #644]	; (8000b74 <HAL_RCC_OscConfig+0x330>)
 80008ee:	400a      	ands	r2, r1
 80008f0:	601a      	str	r2, [r3, #0]
 80008f2:	4b9f      	ldr	r3, [pc, #636]	; (8000b70 <HAL_RCC_OscConfig+0x32c>)
 80008f4:	681a      	ldr	r2, [r3, #0]
 80008f6:	4b9e      	ldr	r3, [pc, #632]	; (8000b70 <HAL_RCC_OscConfig+0x32c>)
 80008f8:	499f      	ldr	r1, [pc, #636]	; (8000b78 <HAL_RCC_OscConfig+0x334>)
 80008fa:	400a      	ands	r2, r1
 80008fc:	601a      	str	r2, [r3, #0]
 80008fe:	687b      	ldr	r3, [r7, #4]
 8000900:	685b      	ldr	r3, [r3, #4]
 8000902:	2b00      	cmp	r3, #0
 8000904:	d014      	beq.n	8000930 <HAL_RCC_OscConfig+0xec>
 8000906:	f7ff fd03 	bl	8000310 <HAL_GetTick>
 800090a:	0003      	movs	r3, r0
 800090c:	613b      	str	r3, [r7, #16]
 800090e:	e008      	b.n	8000922 <HAL_RCC_OscConfig+0xde>
 8000910:	f7ff fcfe 	bl	8000310 <HAL_GetTick>
 8000914:	0002      	movs	r2, r0
 8000916:	693b      	ldr	r3, [r7, #16]
 8000918:	1ad3      	subs	r3, r2, r3
 800091a:	2b64      	cmp	r3, #100	; 0x64
 800091c:	d901      	bls.n	8000922 <HAL_RCC_OscConfig+0xde>
 800091e:	2303      	movs	r3, #3
 8000920:	e29e      	b.n	8000e60 <HAL_RCC_OscConfig+0x61c>
 8000922:	4b93      	ldr	r3, [pc, #588]	; (8000b70 <HAL_RCC_OscConfig+0x32c>)
 8000924:	681a      	ldr	r2, [r3, #0]
 8000926:	2380      	movs	r3, #128	; 0x80
 8000928:	029b      	lsls	r3, r3, #10
 800092a:	4013      	ands	r3, r2
 800092c:	d0f0      	beq.n	8000910 <HAL_RCC_OscConfig+0xcc>
 800092e:	e015      	b.n	800095c <HAL_RCC_OscConfig+0x118>
 8000930:	f7ff fcee 	bl	8000310 <HAL_GetTick>
 8000934:	0003      	movs	r3, r0
 8000936:	613b      	str	r3, [r7, #16]
 8000938:	e008      	b.n	800094c <HAL_RCC_OscConfig+0x108>
 800093a:	f7ff fce9 	bl	8000310 <HAL_GetTick>
 800093e:	0002      	movs	r2, r0
 8000940:	693b      	ldr	r3, [r7, #16]
 8000942:	1ad3      	subs	r3, r2, r3
 8000944:	2b64      	cmp	r3, #100	; 0x64
 8000946:	d901      	bls.n	800094c <HAL_RCC_OscConfig+0x108>
 8000948:	2303      	movs	r3, #3
 800094a:	e289      	b.n	8000e60 <HAL_RCC_OscConfig+0x61c>
 800094c:	4b88      	ldr	r3, [pc, #544]	; (8000b70 <HAL_RCC_OscConfig+0x32c>)
 800094e:	681a      	ldr	r2, [r3, #0]
 8000950:	2380      	movs	r3, #128	; 0x80
 8000952:	029b      	lsls	r3, r3, #10
 8000954:	4013      	ands	r3, r2
 8000956:	d1f0      	bne.n	800093a <HAL_RCC_OscConfig+0xf6>
 8000958:	e000      	b.n	800095c <HAL_RCC_OscConfig+0x118>
 800095a:	46c0      	nop			; (mov r8, r8)
 800095c:	687b      	ldr	r3, [r7, #4]
 800095e:	681b      	ldr	r3, [r3, #0]
 8000960:	2202      	movs	r2, #2
 8000962:	4013      	ands	r3, r2
 8000964:	d100      	bne.n	8000968 <HAL_RCC_OscConfig+0x124>
 8000966:	e099      	b.n	8000a9c <HAL_RCC_OscConfig+0x258>
 8000968:	4b81      	ldr	r3, [pc, #516]	; (8000b70 <HAL_RCC_OscConfig+0x32c>)
 800096a:	689b      	ldr	r3, [r3, #8]
 800096c:	2238      	movs	r2, #56	; 0x38
 800096e:	4013      	ands	r3, r2
 8000970:	61bb      	str	r3, [r7, #24]
 8000972:	4b7f      	ldr	r3, [pc, #508]	; (8000b70 <HAL_RCC_OscConfig+0x32c>)
 8000974:	68db      	ldr	r3, [r3, #12]
 8000976:	2203      	movs	r2, #3
 8000978:	4013      	ands	r3, r2
 800097a:	617b      	str	r3, [r7, #20]
 800097c:	69bb      	ldr	r3, [r7, #24]
 800097e:	2b10      	cmp	r3, #16
 8000980:	d102      	bne.n	8000988 <HAL_RCC_OscConfig+0x144>
 8000982:	697b      	ldr	r3, [r7, #20]
 8000984:	2b02      	cmp	r3, #2
 8000986:	d002      	beq.n	800098e <HAL_RCC_OscConfig+0x14a>
 8000988:	69bb      	ldr	r3, [r7, #24]
 800098a:	2b00      	cmp	r3, #0
 800098c:	d135      	bne.n	80009fa <HAL_RCC_OscConfig+0x1b6>
 800098e:	4b78      	ldr	r3, [pc, #480]	; (8000b70 <HAL_RCC_OscConfig+0x32c>)
 8000990:	681a      	ldr	r2, [r3, #0]
 8000992:	2380      	movs	r3, #128	; 0x80
 8000994:	00db      	lsls	r3, r3, #3
 8000996:	4013      	ands	r3, r2
 8000998:	d005      	beq.n	80009a6 <HAL_RCC_OscConfig+0x162>
 800099a:	687b      	ldr	r3, [r7, #4]
 800099c:	68db      	ldr	r3, [r3, #12]
 800099e:	2b00      	cmp	r3, #0
 80009a0:	d101      	bne.n	80009a6 <HAL_RCC_OscConfig+0x162>
 80009a2:	2301      	movs	r3, #1
 80009a4:	e25c      	b.n	8000e60 <HAL_RCC_OscConfig+0x61c>
 80009a6:	4b72      	ldr	r3, [pc, #456]	; (8000b70 <HAL_RCC_OscConfig+0x32c>)
 80009a8:	685b      	ldr	r3, [r3, #4]
 80009aa:	4a74      	ldr	r2, [pc, #464]	; (8000b7c <HAL_RCC_OscConfig+0x338>)
 80009ac:	4013      	ands	r3, r2
 80009ae:	0019      	movs	r1, r3
 80009b0:	687b      	ldr	r3, [r7, #4]
 80009b2:	695b      	ldr	r3, [r3, #20]
 80009b4:	021a      	lsls	r2, r3, #8
 80009b6:	4b6e      	ldr	r3, [pc, #440]	; (8000b70 <HAL_RCC_OscConfig+0x32c>)
 80009b8:	430a      	orrs	r2, r1
 80009ba:	605a      	str	r2, [r3, #4]
 80009bc:	69bb      	ldr	r3, [r7, #24]
 80009be:	2b00      	cmp	r3, #0
 80009c0:	d112      	bne.n	80009e8 <HAL_RCC_OscConfig+0x1a4>
 80009c2:	4b6b      	ldr	r3, [pc, #428]	; (8000b70 <HAL_RCC_OscConfig+0x32c>)
 80009c4:	681b      	ldr	r3, [r3, #0]
 80009c6:	4a6e      	ldr	r2, [pc, #440]	; (8000b80 <HAL_RCC_OscConfig+0x33c>)
 80009c8:	4013      	ands	r3, r2
 80009ca:	0019      	movs	r1, r3
 80009cc:	687b      	ldr	r3, [r7, #4]
 80009ce:	691a      	ldr	r2, [r3, #16]
 80009d0:	4b67      	ldr	r3, [pc, #412]	; (8000b70 <HAL_RCC_OscConfig+0x32c>)
 80009d2:	430a      	orrs	r2, r1
 80009d4:	601a      	str	r2, [r3, #0]
 80009d6:	4b66      	ldr	r3, [pc, #408]	; (8000b70 <HAL_RCC_OscConfig+0x32c>)
 80009d8:	681b      	ldr	r3, [r3, #0]
 80009da:	0adb      	lsrs	r3, r3, #11
 80009dc:	2207      	movs	r2, #7
 80009de:	4013      	ands	r3, r2
 80009e0:	4a68      	ldr	r2, [pc, #416]	; (8000b84 <HAL_RCC_OscConfig+0x340>)
 80009e2:	40da      	lsrs	r2, r3
 80009e4:	4b68      	ldr	r3, [pc, #416]	; (8000b88 <HAL_RCC_OscConfig+0x344>)
 80009e6:	601a      	str	r2, [r3, #0]
 80009e8:	4b68      	ldr	r3, [pc, #416]	; (8000b8c <HAL_RCC_OscConfig+0x348>)
 80009ea:	681b      	ldr	r3, [r3, #0]
 80009ec:	0018      	movs	r0, r3
 80009ee:	f7ff fc35 	bl	800025c <HAL_InitTick>
 80009f2:	1e03      	subs	r3, r0, #0
 80009f4:	d051      	beq.n	8000a9a <HAL_RCC_OscConfig+0x256>
 80009f6:	2301      	movs	r3, #1
 80009f8:	e232      	b.n	8000e60 <HAL_RCC_OscConfig+0x61c>
 80009fa:	687b      	ldr	r3, [r7, #4]
 80009fc:	68db      	ldr	r3, [r3, #12]
 80009fe:	2b00      	cmp	r3, #0
 8000a00:	d030      	beq.n	8000a64 <HAL_RCC_OscConfig+0x220>
 8000a02:	4b5b      	ldr	r3, [pc, #364]	; (8000b70 <HAL_RCC_OscConfig+0x32c>)
 8000a04:	681b      	ldr	r3, [r3, #0]
 8000a06:	4a5e      	ldr	r2, [pc, #376]	; (8000b80 <HAL_RCC_OscConfig+0x33c>)
 8000a08:	4013      	ands	r3, r2
 8000a0a:	0019      	movs	r1, r3
 8000a0c:	687b      	ldr	r3, [r7, #4]
 8000a0e:	691a      	ldr	r2, [r3, #16]
 8000a10:	4b57      	ldr	r3, [pc, #348]	; (8000b70 <HAL_RCC_OscConfig+0x32c>)
 8000a12:	430a      	orrs	r2, r1
 8000a14:	601a      	str	r2, [r3, #0]
 8000a16:	4b56      	ldr	r3, [pc, #344]	; (8000b70 <HAL_RCC_OscConfig+0x32c>)
 8000a18:	681a      	ldr	r2, [r3, #0]
 8000a1a:	4b55      	ldr	r3, [pc, #340]	; (8000b70 <HAL_RCC_OscConfig+0x32c>)
 8000a1c:	2180      	movs	r1, #128	; 0x80
 8000a1e:	0049      	lsls	r1, r1, #1
 8000a20:	430a      	orrs	r2, r1
 8000a22:	601a      	str	r2, [r3, #0]
 8000a24:	f7ff fc74 	bl	8000310 <HAL_GetTick>
 8000a28:	0003      	movs	r3, r0
 8000a2a:	613b      	str	r3, [r7, #16]
 8000a2c:	e008      	b.n	8000a40 <HAL_RCC_OscConfig+0x1fc>
 8000a2e:	f7ff fc6f 	bl	8000310 <HAL_GetTick>
 8000a32:	0002      	movs	r2, r0
 8000a34:	693b      	ldr	r3, [r7, #16]
 8000a36:	1ad3      	subs	r3, r2, r3
 8000a38:	2b02      	cmp	r3, #2
 8000a3a:	d901      	bls.n	8000a40 <HAL_RCC_OscConfig+0x1fc>
 8000a3c:	2303      	movs	r3, #3
 8000a3e:	e20f      	b.n	8000e60 <HAL_RCC_OscConfig+0x61c>
 8000a40:	4b4b      	ldr	r3, [pc, #300]	; (8000b70 <HAL_RCC_OscConfig+0x32c>)
 8000a42:	681a      	ldr	r2, [r3, #0]
 8000a44:	2380      	movs	r3, #128	; 0x80
 8000a46:	00db      	lsls	r3, r3, #3
 8000a48:	4013      	ands	r3, r2
 8000a4a:	d0f0      	beq.n	8000a2e <HAL_RCC_OscConfig+0x1ea>
 8000a4c:	4b48      	ldr	r3, [pc, #288]	; (8000b70 <HAL_RCC_OscConfig+0x32c>)
 8000a4e:	685b      	ldr	r3, [r3, #4]
 8000a50:	4a4a      	ldr	r2, [pc, #296]	; (8000b7c <HAL_RCC_OscConfig+0x338>)
 8000a52:	4013      	ands	r3, r2
 8000a54:	0019      	movs	r1, r3
 8000a56:	687b      	ldr	r3, [r7, #4]
 8000a58:	695b      	ldr	r3, [r3, #20]
 8000a5a:	021a      	lsls	r2, r3, #8
 8000a5c:	4b44      	ldr	r3, [pc, #272]	; (8000b70 <HAL_RCC_OscConfig+0x32c>)
 8000a5e:	430a      	orrs	r2, r1
 8000a60:	605a      	str	r2, [r3, #4]
 8000a62:	e01b      	b.n	8000a9c <HAL_RCC_OscConfig+0x258>
 8000a64:	4b42      	ldr	r3, [pc, #264]	; (8000b70 <HAL_RCC_OscConfig+0x32c>)
 8000a66:	681a      	ldr	r2, [r3, #0]
 8000a68:	4b41      	ldr	r3, [pc, #260]	; (8000b70 <HAL_RCC_OscConfig+0x32c>)
 8000a6a:	4949      	ldr	r1, [pc, #292]	; (8000b90 <HAL_RCC_OscConfig+0x34c>)
 8000a6c:	400a      	ands	r2, r1
 8000a6e:	601a      	str	r2, [r3, #0]
 8000a70:	f7ff fc4e 	bl	8000310 <HAL_GetTick>
 8000a74:	0003      	movs	r3, r0
 8000a76:	613b      	str	r3, [r7, #16]
 8000a78:	e008      	b.n	8000a8c <HAL_RCC_OscConfig+0x248>
 8000a7a:	f7ff fc49 	bl	8000310 <HAL_GetTick>
 8000a7e:	0002      	movs	r2, r0
 8000a80:	693b      	ldr	r3, [r7, #16]
 8000a82:	1ad3      	subs	r3, r2, r3
 8000a84:	2b02      	cmp	r3, #2
 8000a86:	d901      	bls.n	8000a8c <HAL_RCC_OscConfig+0x248>
 8000a88:	2303      	movs	r3, #3
 8000a8a:	e1e9      	b.n	8000e60 <HAL_RCC_OscConfig+0x61c>
 8000a8c:	4b38      	ldr	r3, [pc, #224]	; (8000b70 <HAL_RCC_OscConfig+0x32c>)
 8000a8e:	681a      	ldr	r2, [r3, #0]
 8000a90:	2380      	movs	r3, #128	; 0x80
 8000a92:	00db      	lsls	r3, r3, #3
 8000a94:	4013      	ands	r3, r2
 8000a96:	d1f0      	bne.n	8000a7a <HAL_RCC_OscConfig+0x236>
 8000a98:	e000      	b.n	8000a9c <HAL_RCC_OscConfig+0x258>
 8000a9a:	46c0      	nop			; (mov r8, r8)
 8000a9c:	687b      	ldr	r3, [r7, #4]
 8000a9e:	681b      	ldr	r3, [r3, #0]
 8000aa0:	2208      	movs	r2, #8
 8000aa2:	4013      	ands	r3, r2
 8000aa4:	d047      	beq.n	8000b36 <HAL_RCC_OscConfig+0x2f2>
 8000aa6:	4b32      	ldr	r3, [pc, #200]	; (8000b70 <HAL_RCC_OscConfig+0x32c>)
 8000aa8:	689b      	ldr	r3, [r3, #8]
 8000aaa:	2238      	movs	r2, #56	; 0x38
 8000aac:	4013      	ands	r3, r2
 8000aae:	2b18      	cmp	r3, #24
 8000ab0:	d10a      	bne.n	8000ac8 <HAL_RCC_OscConfig+0x284>
 8000ab2:	4b2f      	ldr	r3, [pc, #188]	; (8000b70 <HAL_RCC_OscConfig+0x32c>)
 8000ab4:	6e1b      	ldr	r3, [r3, #96]	; 0x60
 8000ab6:	2202      	movs	r2, #2
 8000ab8:	4013      	ands	r3, r2
 8000aba:	d03c      	beq.n	8000b36 <HAL_RCC_OscConfig+0x2f2>
 8000abc:	687b      	ldr	r3, [r7, #4]
 8000abe:	699b      	ldr	r3, [r3, #24]
 8000ac0:	2b00      	cmp	r3, #0
 8000ac2:	d138      	bne.n	8000b36 <HAL_RCC_OscConfig+0x2f2>
 8000ac4:	2301      	movs	r3, #1
 8000ac6:	e1cb      	b.n	8000e60 <HAL_RCC_OscConfig+0x61c>
 8000ac8:	687b      	ldr	r3, [r7, #4]
 8000aca:	699b      	ldr	r3, [r3, #24]
 8000acc:	2b00      	cmp	r3, #0
 8000ace:	d019      	beq.n	8000b04 <HAL_RCC_OscConfig+0x2c0>
 8000ad0:	4b27      	ldr	r3, [pc, #156]	; (8000b70 <HAL_RCC_OscConfig+0x32c>)
 8000ad2:	6e1a      	ldr	r2, [r3, #96]	; 0x60
 8000ad4:	4b26      	ldr	r3, [pc, #152]	; (8000b70 <HAL_RCC_OscConfig+0x32c>)
 8000ad6:	2101      	movs	r1, #1
 8000ad8:	430a      	orrs	r2, r1
 8000ada:	661a      	str	r2, [r3, #96]	; 0x60
 8000adc:	f7ff fc18 	bl	8000310 <HAL_GetTick>
 8000ae0:	0003      	movs	r3, r0
 8000ae2:	613b      	str	r3, [r7, #16]
 8000ae4:	e008      	b.n	8000af8 <HAL_RCC_OscConfig+0x2b4>
 8000ae6:	f7ff fc13 	bl	8000310 <HAL_GetTick>
 8000aea:	0002      	movs	r2, r0
 8000aec:	693b      	ldr	r3, [r7, #16]
 8000aee:	1ad3      	subs	r3, r2, r3
 8000af0:	2b02      	cmp	r3, #2
 8000af2:	d901      	bls.n	8000af8 <HAL_RCC_OscConfig+0x2b4>
 8000af4:	2303      	movs	r3, #3
 8000af6:	e1b3      	b.n	8000e60 <HAL_RCC_OscConfig+0x61c>
 8000af8:	4b1d      	ldr	r3, [pc, #116]	; (8000b70 <HAL_RCC_OscConfig+0x32c>)
 8000afa:	6e1b      	ldr	r3, [r3, #96]	; 0x60
 8000afc:	2202      	movs	r2, #2
 8000afe:	4013      	ands	r3, r2
 8000b00:	d0f1      	beq.n	8000ae6 <HAL_RCC_OscConfig+0x2a2>
 8000b02:	e018      	b.n	8000b36 <HAL_RCC_OscConfig+0x2f2>
 8000b04:	4b1a      	ldr	r3, [pc, #104]	; (8000b70 <HAL_RCC_OscConfig+0x32c>)
 8000b06:	6e1a      	ldr	r2, [r3, #96]	; 0x60
 8000b08:	4b19      	ldr	r3, [pc, #100]	; (8000b70 <HAL_RCC_OscConfig+0x32c>)
 8000b0a:	2101      	movs	r1, #1
 8000b0c:	438a      	bics	r2, r1
 8000b0e:	661a      	str	r2, [r3, #96]	; 0x60
 8000b10:	f7ff fbfe 	bl	8000310 <HAL_GetTick>
 8000b14:	0003      	movs	r3, r0
 8000b16:	613b      	str	r3, [r7, #16]
 8000b18:	e008      	b.n	8000b2c <HAL_RCC_OscConfig+0x2e8>
 8000b1a:	f7ff fbf9 	bl	8000310 <HAL_GetTick>
 8000b1e:	0002      	movs	r2, r0
 8000b20:	693b      	ldr	r3, [r7, #16]
 8000b22:	1ad3      	subs	r3, r2, r3
 8000b24:	2b02      	cmp	r3, #2
 8000b26:	d901      	bls.n	8000b2c <HAL_RCC_OscConfig+0x2e8>
 8000b28:	2303      	movs	r3, #3
 8000b2a:	e199      	b.n	8000e60 <HAL_RCC_OscConfig+0x61c>
 8000b2c:	4b10      	ldr	r3, [pc, #64]	; (8000b70 <HAL_RCC_OscConfig+0x32c>)
 8000b2e:	6e1b      	ldr	r3, [r3, #96]	; 0x60
 8000b30:	2202      	movs	r2, #2
 8000b32:	4013      	ands	r3, r2
 8000b34:	d1f1      	bne.n	8000b1a <HAL_RCC_OscConfig+0x2d6>
 8000b36:	687b      	ldr	r3, [r7, #4]
 8000b38:	681b      	ldr	r3, [r3, #0]
 8000b3a:	2204      	movs	r2, #4
 8000b3c:	4013      	ands	r3, r2
 8000b3e:	d100      	bne.n	8000b42 <HAL_RCC_OscConfig+0x2fe>
 8000b40:	e0c6      	b.n	8000cd0 <HAL_RCC_OscConfig+0x48c>
 8000b42:	231f      	movs	r3, #31
 8000b44:	18fb      	adds	r3, r7, r3
 8000b46:	2200      	movs	r2, #0
 8000b48:	701a      	strb	r2, [r3, #0]
 8000b4a:	4b09      	ldr	r3, [pc, #36]	; (8000b70 <HAL_RCC_OscConfig+0x32c>)
 8000b4c:	689b      	ldr	r3, [r3, #8]
 8000b4e:	2238      	movs	r2, #56	; 0x38
 8000b50:	4013      	ands	r3, r2
 8000b52:	2b20      	cmp	r3, #32
 8000b54:	d11e      	bne.n	8000b94 <HAL_RCC_OscConfig+0x350>
 8000b56:	4b06      	ldr	r3, [pc, #24]	; (8000b70 <HAL_RCC_OscConfig+0x32c>)
 8000b58:	6ddb      	ldr	r3, [r3, #92]	; 0x5c
 8000b5a:	2202      	movs	r2, #2
 8000b5c:	4013      	ands	r3, r2
 8000b5e:	d100      	bne.n	8000b62 <HAL_RCC_OscConfig+0x31e>
 8000b60:	e0b6      	b.n	8000cd0 <HAL_RCC_OscConfig+0x48c>
 8000b62:	687b      	ldr	r3, [r7, #4]
 8000b64:	689b      	ldr	r3, [r3, #8]
 8000b66:	2b00      	cmp	r3, #0
 8000b68:	d000      	beq.n	8000b6c <HAL_RCC_OscConfig+0x328>
 8000b6a:	e0b1      	b.n	8000cd0 <HAL_RCC_OscConfig+0x48c>
 8000b6c:	2301      	movs	r3, #1
 8000b6e:	e177      	b.n	8000e60 <HAL_RCC_OscConfig+0x61c>
 8000b70:	40021000 	.word	0x40021000
 8000b74:	fffeffff 	.word	0xfffeffff
 8000b78:	fffbffff 	.word	0xfffbffff
 8000b7c:	ffff80ff 	.word	0xffff80ff
 8000b80:	ffffc7ff 	.word	0xffffc7ff
 8000b84:	00f42400 	.word	0x00f42400
 8000b88:	20000008 	.word	0x20000008
 8000b8c:	20000000 	.word	0x20000000
 8000b90:	fffffeff 	.word	0xfffffeff
 8000b94:	4bb4      	ldr	r3, [pc, #720]	; (8000e68 <HAL_RCC_OscConfig+0x624>)
 8000b96:	6bda      	ldr	r2, [r3, #60]	; 0x3c
 8000b98:	2380      	movs	r3, #128	; 0x80
 8000b9a:	055b      	lsls	r3, r3, #21
 8000b9c:	4013      	ands	r3, r2
 8000b9e:	d101      	bne.n	8000ba4 <HAL_RCC_OscConfig+0x360>
 8000ba0:	2301      	movs	r3, #1
 8000ba2:	e000      	b.n	8000ba6 <HAL_RCC_OscConfig+0x362>
 8000ba4:	2300      	movs	r3, #0
 8000ba6:	2b00      	cmp	r3, #0
 8000ba8:	d011      	beq.n	8000bce <HAL_RCC_OscConfig+0x38a>
 8000baa:	4baf      	ldr	r3, [pc, #700]	; (8000e68 <HAL_RCC_OscConfig+0x624>)
 8000bac:	6bda      	ldr	r2, [r3, #60]	; 0x3c
 8000bae:	4bae      	ldr	r3, [pc, #696]	; (8000e68 <HAL_RCC_OscConfig+0x624>)
 8000bb0:	2180      	movs	r1, #128	; 0x80
 8000bb2:	0549      	lsls	r1, r1, #21
 8000bb4:	430a      	orrs	r2, r1
 8000bb6:	63da      	str	r2, [r3, #60]	; 0x3c
 8000bb8:	4bab      	ldr	r3, [pc, #684]	; (8000e68 <HAL_RCC_OscConfig+0x624>)
 8000bba:	6bda      	ldr	r2, [r3, #60]	; 0x3c
 8000bbc:	2380      	movs	r3, #128	; 0x80
 8000bbe:	055b      	lsls	r3, r3, #21
 8000bc0:	4013      	ands	r3, r2
 8000bc2:	60fb      	str	r3, [r7, #12]
 8000bc4:	68fb      	ldr	r3, [r7, #12]
 8000bc6:	231f      	movs	r3, #31
 8000bc8:	18fb      	adds	r3, r7, r3
 8000bca:	2201      	movs	r2, #1
 8000bcc:	701a      	strb	r2, [r3, #0]
 8000bce:	4ba7      	ldr	r3, [pc, #668]	; (8000e6c <HAL_RCC_OscConfig+0x628>)
 8000bd0:	681a      	ldr	r2, [r3, #0]
 8000bd2:	2380      	movs	r3, #128	; 0x80
 8000bd4:	005b      	lsls	r3, r3, #1
 8000bd6:	4013      	ands	r3, r2
 8000bd8:	d11a      	bne.n	8000c10 <HAL_RCC_OscConfig+0x3cc>
 8000bda:	4ba4      	ldr	r3, [pc, #656]	; (8000e6c <HAL_RCC_OscConfig+0x628>)
 8000bdc:	681a      	ldr	r2, [r3, #0]
 8000bde:	4ba3      	ldr	r3, [pc, #652]	; (8000e6c <HAL_RCC_OscConfig+0x628>)
 8000be0:	2180      	movs	r1, #128	; 0x80
 8000be2:	0049      	lsls	r1, r1, #1
 8000be4:	430a      	orrs	r2, r1
 8000be6:	601a      	str	r2, [r3, #0]
 8000be8:	f7ff fb92 	bl	8000310 <HAL_GetTick>
 8000bec:	0003      	movs	r3, r0
 8000bee:	613b      	str	r3, [r7, #16]
 8000bf0:	e008      	b.n	8000c04 <HAL_RCC_OscConfig+0x3c0>
 8000bf2:	f7ff fb8d 	bl	8000310 <HAL_GetTick>
 8000bf6:	0002      	movs	r2, r0
 8000bf8:	693b      	ldr	r3, [r7, #16]
 8000bfa:	1ad3      	subs	r3, r2, r3
 8000bfc:	2b02      	cmp	r3, #2
 8000bfe:	d901      	bls.n	8000c04 <HAL_RCC_OscConfig+0x3c0>
 8000c00:	2303      	movs	r3, #3
 8000c02:	e12d      	b.n	8000e60 <HAL_RCC_OscConfig+0x61c>
 8000c04:	4b99      	ldr	r3, [pc, #612]	; (8000e6c <HAL_RCC_OscConfig+0x628>)
 8000c06:	681a      	ldr	r2, [r3, #0]
 8000c08:	2380      	movs	r3, #128	; 0x80
 8000c0a:	005b      	lsls	r3, r3, #1
 8000c0c:	4013      	ands	r3, r2
 8000c0e:	d0f0      	beq.n	8000bf2 <HAL_RCC_OscConfig+0x3ae>
 8000c10:	687b      	ldr	r3, [r7, #4]
 8000c12:	689b      	ldr	r3, [r3, #8]
 8000c14:	2b01      	cmp	r3, #1
 8000c16:	d106      	bne.n	8000c26 <HAL_RCC_OscConfig+0x3e2>
 8000c18:	4b93      	ldr	r3, [pc, #588]	; (8000e68 <HAL_RCC_OscConfig+0x624>)
 8000c1a:	6dda      	ldr	r2, [r3, #92]	; 0x5c
 8000c1c:	4b92      	ldr	r3, [pc, #584]	; (8000e68 <HAL_RCC_OscConfig+0x624>)
 8000c1e:	2101      	movs	r1, #1
 8000c20:	430a      	orrs	r2, r1
 8000c22:	65da      	str	r2, [r3, #92]	; 0x5c
 8000c24:	e01c      	b.n	8000c60 <HAL_RCC_OscConfig+0x41c>
 8000c26:	687b      	ldr	r3, [r7, #4]
 8000c28:	689b      	ldr	r3, [r3, #8]
 8000c2a:	2b05      	cmp	r3, #5
 8000c2c:	d10c      	bne.n	8000c48 <HAL_RCC_OscConfig+0x404>
 8000c2e:	4b8e      	ldr	r3, [pc, #568]	; (8000e68 <HAL_RCC_OscConfig+0x624>)
 8000c30:	6dda      	ldr	r2, [r3, #92]	; 0x5c
 8000c32:	4b8d      	ldr	r3, [pc, #564]	; (8000e68 <HAL_RCC_OscConfig+0x624>)
 8000c34:	2104      	movs	r1, #4
 8000c36:	430a      	orrs	r2, r1
 8000c38:	65da      	str	r2, [r3, #92]	; 0x5c
 8000c3a:	4b8b      	ldr	r3, [pc, #556]	; (8000e68 <HAL_RCC_OscConfig+0x624>)
 8000c3c:	6dda      	ldr	r2, [r3, #92]	; 0x5c
 8000c3e:	4b8a      	ldr	r3, [pc, #552]	; (8000e68 <HAL_RCC_OscConfig+0x624>)
 8000c40:	2101      	movs	r1, #1
 8000c42:	430a      	orrs	r2, r1
 8000c44:	65da      	str	r2, [r3, #92]	; 0x5c
 8000c46:	e00b      	b.n	8000c60 <HAL_RCC_OscConfig+0x41c>
 8000c48:	4b87      	ldr	r3, [pc, #540]	; (8000e68 <HAL_RCC_OscConfig+0x624>)
 8000c4a:	6dda      	ldr	r2, [r3, #92]	; 0x5c
 8000c4c:	4b86      	ldr	r3, [pc, #536]	; (8000e68 <HAL_RCC_OscConfig+0x624>)
 8000c4e:	2101      	movs	r1, #1
 8000c50:	438a      	bics	r2, r1
 8000c52:	65da      	str	r2, [r3, #92]	; 0x5c
 8000c54:	4b84      	ldr	r3, [pc, #528]	; (8000e68 <HAL_RCC_OscConfig+0x624>)
 8000c56:	6dda      	ldr	r2, [r3, #92]	; 0x5c
 8000c58:	4b83      	ldr	r3, [pc, #524]	; (8000e68 <HAL_RCC_OscConfig+0x624>)
 8000c5a:	2104      	movs	r1, #4
 8000c5c:	438a      	bics	r2, r1
 8000c5e:	65da      	str	r2, [r3, #92]	; 0x5c
 8000c60:	687b      	ldr	r3, [r7, #4]
 8000c62:	689b      	ldr	r3, [r3, #8]
 8000c64:	2b00      	cmp	r3, #0
 8000c66:	d014      	beq.n	8000c92 <HAL_RCC_OscConfig+0x44e>
 8000c68:	f7ff fb52 	bl	8000310 <HAL_GetTick>
 8000c6c:	0003      	movs	r3, r0
 8000c6e:	613b      	str	r3, [r7, #16]
 8000c70:	e009      	b.n	8000c86 <HAL_RCC_OscConfig+0x442>
 8000c72:	f7ff fb4d 	bl	8000310 <HAL_GetTick>
 8000c76:	0002      	movs	r2, r0
 8000c78:	693b      	ldr	r3, [r7, #16]
 8000c7a:	1ad3      	subs	r3, r2, r3
 8000c7c:	4a7c      	ldr	r2, [pc, #496]	; (8000e70 <HAL_RCC_OscConfig+0x62c>)
 8000c7e:	4293      	cmp	r3, r2
 8000c80:	d901      	bls.n	8000c86 <HAL_RCC_OscConfig+0x442>
 8000c82:	2303      	movs	r3, #3
 8000c84:	e0ec      	b.n	8000e60 <HAL_RCC_OscConfig+0x61c>
 8000c86:	4b78      	ldr	r3, [pc, #480]	; (8000e68 <HAL_RCC_OscConfig+0x624>)
 8000c88:	6ddb      	ldr	r3, [r3, #92]	; 0x5c
 8000c8a:	2202      	movs	r2, #2
 8000c8c:	4013      	ands	r3, r2
 8000c8e:	d0f0      	beq.n	8000c72 <HAL_RCC_OscConfig+0x42e>
 8000c90:	e013      	b.n	8000cba <HAL_RCC_OscConfig+0x476>
 8000c92:	f7ff fb3d 	bl	8000310 <HAL_GetTick>
 8000c96:	0003      	movs	r3, r0
 8000c98:	613b      	str	r3, [r7, #16]
 8000c9a:	e009      	b.n	8000cb0 <HAL_RCC_OscConfig+0x46c>
 8000c9c:	f7ff fb38 	bl	8000310 <HAL_GetTick>
 8000ca0:	0002      	movs	r2, r0
 8000ca2:	693b      	ldr	r3, [r7, #16]
 8000ca4:	1ad3      	subs	r3, r2, r3
 8000ca6:	4a72      	ldr	r2, [pc, #456]	; (8000e70 <HAL_RCC_OscConfig+0x62c>)
 8000ca8:	4293      	cmp	r3, r2
 8000caa:	d901      	bls.n	8000cb0 <HAL_RCC_OscConfig+0x46c>
 8000cac:	2303      	movs	r3, #3
 8000cae:	e0d7      	b.n	8000e60 <HAL_RCC_OscConfig+0x61c>
 8000cb0:	4b6d      	ldr	r3, [pc, #436]	; (8000e68 <HAL_RCC_OscConfig+0x624>)
 8000cb2:	6ddb      	ldr	r3, [r3, #92]	; 0x5c
 8000cb4:	2202      	movs	r2, #2
 8000cb6:	4013      	ands	r3, r2
 8000cb8:	d1f0      	bne.n	8000c9c <HAL_RCC_OscConfig+0x458>
 8000cba:	231f      	movs	r3, #31
 8000cbc:	18fb      	adds	r3, r7, r3
 8000cbe:	781b      	ldrb	r3, [r3, #0]
 8000cc0:	2b01      	cmp	r3, #1
 8000cc2:	d105      	bne.n	8000cd0 <HAL_RCC_OscConfig+0x48c>
 8000cc4:	4b68      	ldr	r3, [pc, #416]	; (8000e68 <HAL_RCC_OscConfig+0x624>)
 8000cc6:	6bda      	ldr	r2, [r3, #60]	; 0x3c
 8000cc8:	4b67      	ldr	r3, [pc, #412]	; (8000e68 <HAL_RCC_OscConfig+0x624>)
 8000cca:	496a      	ldr	r1, [pc, #424]	; (8000e74 <HAL_RCC_OscConfig+0x630>)
 8000ccc:	400a      	ands	r2, r1
 8000cce:	63da      	str	r2, [r3, #60]	; 0x3c
 8000cd0:	687b      	ldr	r3, [r7, #4]
 8000cd2:	69db      	ldr	r3, [r3, #28]
 8000cd4:	2b00      	cmp	r3, #0
 8000cd6:	d100      	bne.n	8000cda <HAL_RCC_OscConfig+0x496>
 8000cd8:	e0c1      	b.n	8000e5e <HAL_RCC_OscConfig+0x61a>
 8000cda:	4b63      	ldr	r3, [pc, #396]	; (8000e68 <HAL_RCC_OscConfig+0x624>)
 8000cdc:	689b      	ldr	r3, [r3, #8]
 8000cde:	2238      	movs	r2, #56	; 0x38
 8000ce0:	4013      	ands	r3, r2
 8000ce2:	2b10      	cmp	r3, #16
 8000ce4:	d100      	bne.n	8000ce8 <HAL_RCC_OscConfig+0x4a4>
 8000ce6:	e081      	b.n	8000dec <HAL_RCC_OscConfig+0x5a8>
 8000ce8:	687b      	ldr	r3, [r7, #4]
 8000cea:	69db      	ldr	r3, [r3, #28]
 8000cec:	2b02      	cmp	r3, #2
 8000cee:	d156      	bne.n	8000d9e <HAL_RCC_OscConfig+0x55a>
 8000cf0:	4b5d      	ldr	r3, [pc, #372]	; (8000e68 <HAL_RCC_OscConfig+0x624>)
 8000cf2:	681a      	ldr	r2, [r3, #0]
 8000cf4:	4b5c      	ldr	r3, [pc, #368]	; (8000e68 <HAL_RCC_OscConfig+0x624>)
 8000cf6:	4960      	ldr	r1, [pc, #384]	; (8000e78 <HAL_RCC_OscConfig+0x634>)
 8000cf8:	400a      	ands	r2, r1
 8000cfa:	601a      	str	r2, [r3, #0]
 8000cfc:	f7ff fb08 	bl	8000310 <HAL_GetTick>
 8000d00:	0003      	movs	r3, r0
 8000d02:	613b      	str	r3, [r7, #16]
 8000d04:	e008      	b.n	8000d18 <HAL_RCC_OscConfig+0x4d4>
 8000d06:	f7ff fb03 	bl	8000310 <HAL_GetTick>
 8000d0a:	0002      	movs	r2, r0
 8000d0c:	693b      	ldr	r3, [r7, #16]
 8000d0e:	1ad3      	subs	r3, r2, r3
 8000d10:	2b02      	cmp	r3, #2
 8000d12:	d901      	bls.n	8000d18 <HAL_RCC_OscConfig+0x4d4>
 8000d14:	2303      	movs	r3, #3
 8000d16:	e0a3      	b.n	8000e60 <HAL_RCC_OscConfig+0x61c>
 8000d18:	4b53      	ldr	r3, [pc, #332]	; (8000e68 <HAL_RCC_OscConfig+0x624>)
 8000d1a:	681a      	ldr	r2, [r3, #0]
 8000d1c:	2380      	movs	r3, #128	; 0x80
 8000d1e:	049b      	lsls	r3, r3, #18
 8000d20:	4013      	ands	r3, r2
 8000d22:	d1f0      	bne.n	8000d06 <HAL_RCC_OscConfig+0x4c2>
 8000d24:	4b50      	ldr	r3, [pc, #320]	; (8000e68 <HAL_RCC_OscConfig+0x624>)
 8000d26:	68db      	ldr	r3, [r3, #12]
 8000d28:	4a54      	ldr	r2, [pc, #336]	; (8000e7c <HAL_RCC_OscConfig+0x638>)
 8000d2a:	4013      	ands	r3, r2
 8000d2c:	0019      	movs	r1, r3
 8000d2e:	687b      	ldr	r3, [r7, #4]
 8000d30:	6a1a      	ldr	r2, [r3, #32]
 8000d32:	687b      	ldr	r3, [r7, #4]
 8000d34:	6a5b      	ldr	r3, [r3, #36]	; 0x24
 8000d36:	431a      	orrs	r2, r3
 8000d38:	687b      	ldr	r3, [r7, #4]
 8000d3a:	6a9b      	ldr	r3, [r3, #40]	; 0x28
 8000d3c:	021b      	lsls	r3, r3, #8
 8000d3e:	431a      	orrs	r2, r3
 8000d40:	687b      	ldr	r3, [r7, #4]
 8000d42:	6adb      	ldr	r3, [r3, #44]	; 0x2c
 8000d44:	431a      	orrs	r2, r3
 8000d46:	687b      	ldr	r3, [r7, #4]
 8000d48:	6b1b      	ldr	r3, [r3, #48]	; 0x30
 8000d4a:	431a      	orrs	r2, r3
 8000d4c:	687b      	ldr	r3, [r7, #4]
 8000d4e:	6b5b      	ldr	r3, [r3, #52]	; 0x34
 8000d50:	431a      	orrs	r2, r3
 8000d52:	4b45      	ldr	r3, [pc, #276]	; (8000e68 <HAL_RCC_OscConfig+0x624>)
 8000d54:	430a      	orrs	r2, r1
 8000d56:	60da      	str	r2, [r3, #12]
 8000d58:	4b43      	ldr	r3, [pc, #268]	; (8000e68 <HAL_RCC_OscConfig+0x624>)
 8000d5a:	681a      	ldr	r2, [r3, #0]
 8000d5c:	4b42      	ldr	r3, [pc, #264]	; (8000e68 <HAL_RCC_OscConfig+0x624>)
 8000d5e:	2180      	movs	r1, #128	; 0x80
 8000d60:	0449      	lsls	r1, r1, #17
 8000d62:	430a      	orrs	r2, r1
 8000d64:	601a      	str	r2, [r3, #0]
 8000d66:	4b40      	ldr	r3, [pc, #256]	; (8000e68 <HAL_RCC_OscConfig+0x624>)
 8000d68:	68da      	ldr	r2, [r3, #12]
 8000d6a:	4b3f      	ldr	r3, [pc, #252]	; (8000e68 <HAL_RCC_OscConfig+0x624>)
 8000d6c:	2180      	movs	r1, #128	; 0x80
 8000d6e:	0549      	lsls	r1, r1, #21
 8000d70:	430a      	orrs	r2, r1
 8000d72:	60da      	str	r2, [r3, #12]
 8000d74:	f7ff facc 	bl	8000310 <HAL_GetTick>
 8000d78:	0003      	movs	r3, r0
 8000d7a:	613b      	str	r3, [r7, #16]
 8000d7c:	e008      	b.n	8000d90 <HAL_RCC_OscConfig+0x54c>
 8000d7e:	f7ff fac7 	bl	8000310 <HAL_GetTick>
 8000d82:	0002      	movs	r2, r0
 8000d84:	693b      	ldr	r3, [r7, #16]
 8000d86:	1ad3      	subs	r3, r2, r3
 8000d88:	2b02      	cmp	r3, #2
 8000d8a:	d901      	bls.n	8000d90 <HAL_RCC_OscConfig+0x54c>
 8000d8c:	2303      	movs	r3, #3
 8000d8e:	e067      	b.n	8000e60 <HAL_RCC_OscConfig+0x61c>
 8000d90:	4b35      	ldr	r3, [pc, #212]	; (8000e68 <HAL_RCC_OscConfig+0x624>)
 8000d92:	681a      	ldr	r2, [r3, #0]
 8000d94:	2380      	movs	r3, #128	; 0x80
 8000d96:	049b      	lsls	r3, r3, #18
 8000d98:	4013      	ands	r3, r2
 8000d9a:	d0f0      	beq.n	8000d7e <HAL_RCC_OscConfig+0x53a>
 8000d9c:	e05f      	b.n	8000e5e <HAL_RCC_OscConfig+0x61a>
 8000d9e:	4b32      	ldr	r3, [pc, #200]	; (8000e68 <HAL_RCC_OscConfig+0x624>)
 8000da0:	681a      	ldr	r2, [r3, #0]
 8000da2:	4b31      	ldr	r3, [pc, #196]	; (8000e68 <HAL_RCC_OscConfig+0x624>)
 8000da4:	4934      	ldr	r1, [pc, #208]	; (8000e78 <HAL_RCC_OscConfig+0x634>)
 8000da6:	400a      	ands	r2, r1
 8000da8:	601a      	str	r2, [r3, #0]
 8000daa:	4b2f      	ldr	r3, [pc, #188]	; (8000e68 <HAL_RCC_OscConfig+0x624>)
 8000dac:	68da      	ldr	r2, [r3, #12]
 8000dae:	4b2e      	ldr	r3, [pc, #184]	; (8000e68 <HAL_RCC_OscConfig+0x624>)
 8000db0:	2103      	movs	r1, #3
 8000db2:	438a      	bics	r2, r1
 8000db4:	60da      	str	r2, [r3, #12]
 8000db6:	4b2c      	ldr	r3, [pc, #176]	; (8000e68 <HAL_RCC_OscConfig+0x624>)
 8000db8:	68da      	ldr	r2, [r3, #12]
 8000dba:	4b2b      	ldr	r3, [pc, #172]	; (8000e68 <HAL_RCC_OscConfig+0x624>)
 8000dbc:	4930      	ldr	r1, [pc, #192]	; (8000e80 <HAL_RCC_OscConfig+0x63c>)
 8000dbe:	400a      	ands	r2, r1
 8000dc0:	60da      	str	r2, [r3, #12]
 8000dc2:	f7ff faa5 	bl	8000310 <HAL_GetTick>
 8000dc6:	0003      	movs	r3, r0
 8000dc8:	613b      	str	r3, [r7, #16]
 8000dca:	e008      	b.n	8000dde <HAL_RCC_OscConfig+0x59a>
 8000dcc:	f7ff faa0 	bl	8000310 <HAL_GetTick>
 8000dd0:	0002      	movs	r2, r0
 8000dd2:	693b      	ldr	r3, [r7, #16]
 8000dd4:	1ad3      	subs	r3, r2, r3
 8000dd6:	2b02      	cmp	r3, #2
 8000dd8:	d901      	bls.n	8000dde <HAL_RCC_OscConfig+0x59a>
 8000dda:	2303      	movs	r3, #3
 8000ddc:	e040      	b.n	8000e60 <HAL_RCC_OscConfig+0x61c>
 8000dde:	4b22      	ldr	r3, [pc, #136]	; (8000e68 <HAL_RCC_OscConfig+0x624>)
 8000de0:	681a      	ldr	r2, [r3, #0]
 8000de2:	2380      	movs	r3, #128	; 0x80
 8000de4:	049b      	lsls	r3, r3, #18
 8000de6:	4013      	ands	r3, r2
 8000de8:	d1f0      	bne.n	8000dcc <HAL_RCC_OscConfig+0x588>
 8000dea:	e038      	b.n	8000e5e <HAL_RCC_OscConfig+0x61a>
 8000dec:	687b      	ldr	r3, [r7, #4]
 8000dee:	69db      	ldr	r3, [r3, #28]
 8000df0:	2b01      	cmp	r3, #1
 8000df2:	d101      	bne.n	8000df8 <HAL_RCC_OscConfig+0x5b4>
 8000df4:	2301      	movs	r3, #1
 8000df6:	e033      	b.n	8000e60 <HAL_RCC_OscConfig+0x61c>
 8000df8:	4b1b      	ldr	r3, [pc, #108]	; (8000e68 <HAL_RCC_OscConfig+0x624>)
 8000dfa:	68db      	ldr	r3, [r3, #12]
 8000dfc:	617b      	str	r3, [r7, #20]
 8000dfe:	697b      	ldr	r3, [r7, #20]
 8000e00:	2203      	movs	r2, #3
 8000e02:	401a      	ands	r2, r3
 8000e04:	687b      	ldr	r3, [r7, #4]
 8000e06:	6a1b      	ldr	r3, [r3, #32]
 8000e08:	429a      	cmp	r2, r3
 8000e0a:	d126      	bne.n	8000e5a <HAL_RCC_OscConfig+0x616>
 8000e0c:	697b      	ldr	r3, [r7, #20]
 8000e0e:	2270      	movs	r2, #112	; 0x70
 8000e10:	401a      	ands	r2, r3
 8000e12:	687b      	ldr	r3, [r7, #4]
 8000e14:	6a5b      	ldr	r3, [r3, #36]	; 0x24
 8000e16:	429a      	cmp	r2, r3
 8000e18:	d11f      	bne.n	8000e5a <HAL_RCC_OscConfig+0x616>
 8000e1a:	697a      	ldr	r2, [r7, #20]
 8000e1c:	23fe      	movs	r3, #254	; 0xfe
 8000e1e:	01db      	lsls	r3, r3, #7
 8000e20:	401a      	ands	r2, r3
 8000e22:	687b      	ldr	r3, [r7, #4]
 8000e24:	6a9b      	ldr	r3, [r3, #40]	; 0x28
 8000e26:	021b      	lsls	r3, r3, #8
 8000e28:	429a      	cmp	r2, r3
 8000e2a:	d116      	bne.n	8000e5a <HAL_RCC_OscConfig+0x616>
 8000e2c:	697a      	ldr	r2, [r7, #20]
 8000e2e:	23f8      	movs	r3, #248	; 0xf8
 8000e30:	039b      	lsls	r3, r3, #14
 8000e32:	401a      	ands	r2, r3
 8000e34:	687b      	ldr	r3, [r7, #4]
 8000e36:	6adb      	ldr	r3, [r3, #44]	; 0x2c
 8000e38:	429a      	cmp	r2, r3
 8000e3a:	d10e      	bne.n	8000e5a <HAL_RCC_OscConfig+0x616>
 8000e3c:	697a      	ldr	r2, [r7, #20]
 8000e3e:	23e0      	movs	r3, #224	; 0xe0
 8000e40:	051b      	lsls	r3, r3, #20
 8000e42:	401a      	ands	r2, r3
 8000e44:	687b      	ldr	r3, [r7, #4]
 8000e46:	6b1b      	ldr	r3, [r3, #48]	; 0x30
 8000e48:	429a      	cmp	r2, r3
 8000e4a:	d106      	bne.n	8000e5a <HAL_RCC_OscConfig+0x616>
 8000e4c:	697b      	ldr	r3, [r7, #20]
 8000e4e:	0f5b      	lsrs	r3, r3, #29
 8000e50:	075a      	lsls	r2, r3, #29
 8000e52:	687b      	ldr	r3, [r7, #4]
 8000e54:	6b5b      	ldr	r3, [r3, #52]	; 0x34
 8000e56:	429a      	cmp	r2, r3
 8000e58:	d001      	beq.n	8000e5e <HAL_RCC_OscConfig+0x61a>
 8000e5a:	2301      	movs	r3, #1
 8000e5c:	e000      	b.n	8000e60 <HAL_RCC_OscConfig+0x61c>
 8000e5e:	2300      	movs	r3, #0
 8000e60:	0018      	movs	r0, r3
 8000e62:	46bd      	mov	sp, r7
 8000e64:	b008      	add	sp, #32
 8000e66:	bd80      	pop	{r7, pc}
 8000e68:	40021000 	.word	0x40021000
 8000e6c:	40007000 	.word	0x40007000
 8000e70:	00001388 	.word	0x00001388
 8000e74:	efffffff 	.word	0xefffffff
 8000e78:	feffffff 	.word	0xfeffffff
 8000e7c:	11c1808c 	.word	0x11c1808c
 8000e80:	eefeffff 	.word	0xeefeffff

08000e84 <HAL_RCC_ClockConfig>:
 8000e84:	b580      	push	{r7, lr}
 8000e86:	b084      	sub	sp, #16
 8000e88:	af00      	add	r7, sp, #0
 8000e8a:	6078      	str	r0, [r7, #4]
 8000e8c:	6039      	str	r1, [r7, #0]
 8000e8e:	687b      	ldr	r3, [r7, #4]
 8000e90:	2b00      	cmp	r3, #0
 8000e92:	d101      	bne.n	8000e98 <HAL_RCC_ClockConfig+0x14>
 8000e94:	2301      	movs	r3, #1
 8000e96:	e0e9      	b.n	800106c <HAL_RCC_ClockConfig+0x1e8>
 8000e98:	4b76      	ldr	r3, [pc, #472]	; (8001074 <HAL_RCC_ClockConfig+0x1f0>)
 8000e9a:	681b      	ldr	r3, [r3, #0]
 8000e9c:	2207      	movs	r2, #7
 8000e9e:	4013      	ands	r3, r2
 8000ea0:	683a      	ldr	r2, [r7, #0]
 8000ea2:	429a      	cmp	r2, r3
 8000ea4:	d91e      	bls.n	8000ee4 <HAL_RCC_ClockConfig+0x60>
 8000ea6:	4b73      	ldr	r3, [pc, #460]	; (8001074 <HAL_RCC_ClockConfig+0x1f0>)
 8000ea8:	681b      	ldr	r3, [r3, #0]
 8000eaa:	2207      	movs	r2, #7
 8000eac:	4393      	bics	r3, r2
 8000eae:	0019      	movs	r1, r3
 8000eb0:	4b70      	ldr	r3, [pc, #448]	; (8001074 <HAL_RCC_ClockConfig+0x1f0>)
 8000eb2:	683a      	ldr	r2, [r7, #0]
 8000eb4:	430a      	orrs	r2, r1
 8000eb6:	601a      	str	r2, [r3, #0]
 8000eb8:	f7ff fa2a 	bl	8000310 <HAL_GetTick>
 8000ebc:	0003      	movs	r3, r0
 8000ebe:	60fb      	str	r3, [r7, #12]
 8000ec0:	e009      	b.n	8000ed6 <HAL_RCC_ClockConfig+0x52>
 8000ec2:	f7ff fa25 	bl	8000310 <HAL_GetTick>
 8000ec6:	0002      	movs	r2, r0
 8000ec8:	68fb      	ldr	r3, [r7, #12]
 8000eca:	1ad3      	subs	r3, r2, r3
 8000ecc:	4a6a      	ldr	r2, [pc, #424]	; (8001078 <HAL_RCC_ClockConfig+0x1f4>)
 8000ece:	4293      	cmp	r3, r2
 8000ed0:	d901      	bls.n	8000ed6 <HAL_RCC_ClockConfig+0x52>
 8000ed2:	2303      	movs	r3, #3
 8000ed4:	e0ca      	b.n	800106c <HAL_RCC_ClockConfig+0x1e8>
 8000ed6:	4b67      	ldr	r3, [pc, #412]	; (8001074 <HAL_RCC_ClockConfig+0x1f0>)
 8000ed8:	681b      	ldr	r3, [r3, #0]
 8000eda:	2207      	movs	r2, #7
 8000edc:	4013      	ands	r3, r2
 8000ede:	683a      	ldr	r2, [r7, #0]
 8000ee0:	429a      	cmp	r2, r3
 8000ee2:	d1ee      	bne.n	8000ec2 <HAL_RCC_ClockConfig+0x3e>
 8000ee4:	687b      	ldr	r3, [r7, #4]
 8000ee6:	681b      	ldr	r3, [r3, #0]
 8000ee8:	2202      	movs	r2, #2
 8000eea:	4013      	ands	r3, r2
 8000eec:	d015      	beq.n	8000f1a <HAL_RCC_ClockConfig+0x96>
 8000eee:	687b      	ldr	r3, [r7, #4]
 8000ef0:	681b      	ldr	r3, [r3, #0]
 8000ef2:	2204      	movs	r2, #4
 8000ef4:	4013      	ands	r3, r2
 8000ef6:	d006      	beq.n	8000f06 <HAL_RCC_ClockConfig+0x82>
 8000ef8:	4b60      	ldr	r3, [pc, #384]	; (800107c <HAL_RCC_ClockConfig+0x1f8>)
 8000efa:	689a      	ldr	r2, [r3, #8]
 8000efc:	4b5f      	ldr	r3, [pc, #380]	; (800107c <HAL_RCC_ClockConfig+0x1f8>)
 8000efe:	21e0      	movs	r1, #224	; 0xe0
 8000f00:	01c9      	lsls	r1, r1, #7
 8000f02:	430a      	orrs	r2, r1
 8000f04:	609a      	str	r2, [r3, #8]
 8000f06:	4b5d      	ldr	r3, [pc, #372]	; (800107c <HAL_RCC_ClockConfig+0x1f8>)
 8000f08:	689b      	ldr	r3, [r3, #8]
 8000f0a:	4a5d      	ldr	r2, [pc, #372]	; (8001080 <HAL_RCC_ClockConfig+0x1fc>)
 8000f0c:	4013      	ands	r3, r2
 8000f0e:	0019      	movs	r1, r3
 8000f10:	687b      	ldr	r3, [r7, #4]
 8000f12:	689a      	ldr	r2, [r3, #8]
 8000f14:	4b59      	ldr	r3, [pc, #356]	; (800107c <HAL_RCC_ClockConfig+0x1f8>)
 8000f16:	430a      	orrs	r2, r1
 8000f18:	609a      	str	r2, [r3, #8]
 8000f1a:	687b      	ldr	r3, [r7, #4]
 8000f1c:	681b      	ldr	r3, [r3, #0]
 8000f1e:	2201      	movs	r2, #1
 8000f20:	4013      	ands	r3, r2
 8000f22:	d057      	beq.n	8000fd4 <HAL_RCC_ClockConfig+0x150>
 8000f24:	687b      	ldr	r3, [r7, #4]
 8000f26:	685b      	ldr	r3, [r3, #4]
 8000f28:	2b01      	cmp	r3, #1
 8000f2a:	d107      	bne.n	8000f3c <HAL_RCC_ClockConfig+0xb8>
 8000f2c:	4b53      	ldr	r3, [pc, #332]	; (800107c <HAL_RCC_ClockConfig+0x1f8>)
 8000f2e:	681a      	ldr	r2, [r3, #0]
 8000f30:	2380      	movs	r3, #128	; 0x80
 8000f32:	029b      	lsls	r3, r3, #10
 8000f34:	4013      	ands	r3, r2
 8000f36:	d12b      	bne.n	8000f90 <HAL_RCC_ClockConfig+0x10c>
 8000f38:	2301      	movs	r3, #1
 8000f3a:	e097      	b.n	800106c <HAL_RCC_ClockConfig+0x1e8>
 8000f3c:	687b      	ldr	r3, [r7, #4]
 8000f3e:	685b      	ldr	r3, [r3, #4]
 8000f40:	2b02      	cmp	r3, #2
 8000f42:	d107      	bne.n	8000f54 <HAL_RCC_ClockConfig+0xd0>
 8000f44:	4b4d      	ldr	r3, [pc, #308]	; (800107c <HAL_RCC_ClockConfig+0x1f8>)
 8000f46:	681a      	ldr	r2, [r3, #0]
 8000f48:	2380      	movs	r3, #128	; 0x80
 8000f4a:	049b      	lsls	r3, r3, #18
 8000f4c:	4013      	ands	r3, r2
 8000f4e:	d11f      	bne.n	8000f90 <HAL_RCC_ClockConfig+0x10c>
 8000f50:	2301      	movs	r3, #1
 8000f52:	e08b      	b.n	800106c <HAL_RCC_ClockConfig+0x1e8>
 8000f54:	687b      	ldr	r3, [r7, #4]
 8000f56:	685b      	ldr	r3, [r3, #4]
 8000f58:	2b00      	cmp	r3, #0
 8000f5a:	d107      	bne.n	8000f6c <HAL_RCC_ClockConfig+0xe8>
 8000f5c:	4b47      	ldr	r3, [pc, #284]	; (800107c <HAL_RCC_ClockConfig+0x1f8>)
 8000f5e:	681a      	ldr	r2, [r3, #0]
 8000f60:	2380      	movs	r3, #128	; 0x80
 8000f62:	00db      	lsls	r3, r3, #3
 8000f64:	4013      	ands	r3, r2
 8000f66:	d113      	bne.n	8000f90 <HAL_RCC_ClockConfig+0x10c>
 8000f68:	2301      	movs	r3, #1
 8000f6a:	e07f      	b.n	800106c <HAL_RCC_ClockConfig+0x1e8>
 8000f6c:	687b      	ldr	r3, [r7, #4]
 8000f6e:	685b      	ldr	r3, [r3, #4]
 8000f70:	2b03      	cmp	r3, #3
 8000f72:	d106      	bne.n	8000f82 <HAL_RCC_ClockConfig+0xfe>
 8000f74:	4b41      	ldr	r3, [pc, #260]	; (800107c <HAL_RCC_ClockConfig+0x1f8>)
 8000f76:	6e1b      	ldr	r3, [r3, #96]	; 0x60
 8000f78:	2202      	movs	r2, #2
 8000f7a:	4013      	ands	r3, r2
 8000f7c:	d108      	bne.n	8000f90 <HAL_RCC_ClockConfig+0x10c>
 8000f7e:	2301      	movs	r3, #1
 8000f80:	e074      	b.n	800106c <HAL_RCC_ClockConfig+0x1e8>
 8000f82:	4b3e      	ldr	r3, [pc, #248]	; (800107c <HAL_RCC_ClockConfig+0x1f8>)
 8000f84:	6ddb      	ldr	r3, [r3, #92]	; 0x5c
 8000f86:	2202      	movs	r2, #2
 8000f88:	4013      	ands	r3, r2
 8000f8a:	d101      	bne.n	8000f90 <HAL_RCC_ClockConfig+0x10c>
 8000f8c:	2301      	movs	r3, #1
 8000f8e:	e06d      	b.n	800106c <HAL_RCC_ClockConfig+0x1e8>
 8000f90:	4b3a      	ldr	r3, [pc, #232]	; (800107c <HAL_RCC_ClockConfig+0x1f8>)
 8000f92:	689b      	ldr	r3, [r3, #8]
 8000f94:	2207      	movs	r2, #7
 8000f96:	4393      	bics	r3, r2
 8000f98:	0019      	movs	r1, r3
 8000f9a:	687b      	ldr	r3, [r7, #4]
 8000f9c:	685a      	ldr	r2, [r3, #4]
 8000f9e:	4b37      	ldr	r3, [pc, #220]	; (800107c <HAL_RCC_ClockConfig+0x1f8>)
 8000fa0:	430a      	orrs	r2, r1
 8000fa2:	609a      	str	r2, [r3, #8]
 8000fa4:	f7ff f9b4 	bl	8000310 <HAL_GetTick>
 8000fa8:	0003      	movs	r3, r0
 8000faa:	60fb      	str	r3, [r7, #12]
 8000fac:	e009      	b.n	8000fc2 <HAL_RCC_ClockConfig+0x13e>
 8000fae:	f7ff f9af 	bl	8000310 <HAL_GetTick>
 8000fb2:	0002      	movs	r2, r0
 8000fb4:	68fb      	ldr	r3, [r7, #12]
 8000fb6:	1ad3      	subs	r3, r2, r3
 8000fb8:	4a2f      	ldr	r2, [pc, #188]	; (8001078 <HAL_RCC_ClockConfig+0x1f4>)
 8000fba:	4293      	cmp	r3, r2
 8000fbc:	d901      	bls.n	8000fc2 <HAL_RCC_ClockConfig+0x13e>
 8000fbe:	2303      	movs	r3, #3
 8000fc0:	e054      	b.n	800106c <HAL_RCC_ClockConfig+0x1e8>
 8000fc2:	4b2e      	ldr	r3, [pc, #184]	; (800107c <HAL_RCC_ClockConfig+0x1f8>)
 8000fc4:	689b      	ldr	r3, [r3, #8]
 8000fc6:	2238      	movs	r2, #56	; 0x38
 8000fc8:	401a      	ands	r2, r3
 8000fca:	687b      	ldr	r3, [r7, #4]
 8000fcc:	685b      	ldr	r3, [r3, #4]
 8000fce:	00db      	lsls	r3, r3, #3
 8000fd0:	429a      	cmp	r2, r3
 8000fd2:	d1ec      	bne.n	8000fae <HAL_RCC_ClockConfig+0x12a>
 8000fd4:	4b27      	ldr	r3, [pc, #156]	; (8001074 <HAL_RCC_ClockConfig+0x1f0>)
 8000fd6:	681b      	ldr	r3, [r3, #0]
 8000fd8:	2207      	movs	r2, #7
 8000fda:	4013      	ands	r3, r2
 8000fdc:	683a      	ldr	r2, [r7, #0]
 8000fde:	429a      	cmp	r2, r3
 8000fe0:	d21e      	bcs.n	8001020 <HAL_RCC_ClockConfig+0x19c>
 8000fe2:	4b24      	ldr	r3, [pc, #144]	; (8001074 <HAL_RCC_ClockConfig+0x1f0>)
 8000fe4:	681b      	ldr	r3, [r3, #0]
 8000fe6:	2207      	movs	r2, #7
 8000fe8:	4393      	bics	r3, r2
 8000fea:	0019      	movs	r1, r3
 8000fec:	4b21      	ldr	r3, [pc, #132]	; (8001074 <HAL_RCC_ClockConfig+0x1f0>)
 8000fee:	683a      	ldr	r2, [r7, #0]
 8000ff0:	430a      	orrs	r2, r1
 8000ff2:	601a      	str	r2, [r3, #0]
 8000ff4:	f7ff f98c 	bl	8000310 <HAL_GetTick>
 8000ff8:	0003      	movs	r3, r0
 8000ffa:	60fb      	str	r3, [r7, #12]
 8000ffc:	e009      	b.n	8001012 <HAL_RCC_ClockConfig+0x18e>
 8000ffe:	f7ff f987 	bl	8000310 <HAL_GetTick>
 8001002:	0002      	movs	r2, r0
 8001004:	68fb      	ldr	r3, [r7, #12]
 8001006:	1ad3      	subs	r3, r2, r3
 8001008:	4a1b      	ldr	r2, [pc, #108]	; (8001078 <HAL_RCC_ClockConfig+0x1f4>)
 800100a:	4293      	cmp	r3, r2
 800100c:	d901      	bls.n	8001012 <HAL_RCC_ClockConfig+0x18e>
 800100e:	2303      	movs	r3, #3
 8001010:	e02c      	b.n	800106c <HAL_RCC_ClockConfig+0x1e8>
 8001012:	4b18      	ldr	r3, [pc, #96]	; (8001074 <HAL_RCC_ClockConfig+0x1f0>)
 8001014:	681b      	ldr	r3, [r3, #0]
 8001016:	2207      	movs	r2, #7
 8001018:	4013      	ands	r3, r2
 800101a:	683a      	ldr	r2, [r7, #0]
 800101c:	429a      	cmp	r2, r3
 800101e:	d1ee      	bne.n	8000ffe <HAL_RCC_ClockConfig+0x17a>
 8001020:	687b      	ldr	r3, [r7, #4]
 8001022:	681b      	ldr	r3, [r3, #0]
 8001024:	2204      	movs	r2, #4
 8001026:	4013      	ands	r3, r2
 8001028:	d009      	beq.n	800103e <HAL_RCC_ClockConfig+0x1ba>
 800102a:	4b14      	ldr	r3, [pc, #80]	; (800107c <HAL_RCC_ClockConfig+0x1f8>)
 800102c:	689b      	ldr	r3, [r3, #8]
 800102e:	4a15      	ldr	r2, [pc, #84]	; (8001084 <HAL_RCC_ClockConfig+0x200>)
 8001030:	4013      	ands	r3, r2
 8001032:	0019      	movs	r1, r3
 8001034:	687b      	ldr	r3, [r7, #4]
 8001036:	68da      	ldr	r2, [r3, #12]
 8001038:	4b10      	ldr	r3, [pc, #64]	; (800107c <HAL_RCC_ClockConfig+0x1f8>)
 800103a:	430a      	orrs	r2, r1
 800103c:	609a      	str	r2, [r3, #8]
 800103e:	f000 f829 	bl	8001094 <HAL_RCC_GetSysClockFreq>
 8001042:	0001      	movs	r1, r0
 8001044:	4b0d      	ldr	r3, [pc, #52]	; (800107c <HAL_RCC_ClockConfig+0x1f8>)
 8001046:	689b      	ldr	r3, [r3, #8]
 8001048:	0a1b      	lsrs	r3, r3, #8
 800104a:	220f      	movs	r2, #15
 800104c:	401a      	ands	r2, r3
 800104e:	4b0e      	ldr	r3, [pc, #56]	; (8001088 <HAL_RCC_ClockConfig+0x204>)
 8001050:	0092      	lsls	r2, r2, #2
 8001052:	58d3      	ldr	r3, [r2, r3]
 8001054:	221f      	movs	r2, #31
 8001056:	4013      	ands	r3, r2
 8001058:	000a      	movs	r2, r1
 800105a:	40da      	lsrs	r2, r3
 800105c:	4b0b      	ldr	r3, [pc, #44]	; (800108c <HAL_RCC_ClockConfig+0x208>)
 800105e:	601a      	str	r2, [r3, #0]
 8001060:	4b0b      	ldr	r3, [pc, #44]	; (8001090 <HAL_RCC_ClockConfig+0x20c>)
 8001062:	681b      	ldr	r3, [r3, #0]
 8001064:	0018      	movs	r0, r3
 8001066:	f7ff f8f9 	bl	800025c <HAL_InitTick>
 800106a:	0003      	movs	r3, r0
 800106c:	0018      	movs	r0, r3
 800106e:	46bd      	mov	sp, r7
 8001070:	b004      	add	sp, #16
 8001072:	bd80      	pop	{r7, pc}
 8001074:	40022000 	.word	0x40022000
 8001078:	00001388 	.word	0x00001388
 800107c:	40021000 	.word	0x40021000
 8001080:	fffff0ff 	.word	0xfffff0ff
 8001084:	ffff8fff 	.word	0xffff8fff
 8001088:	08001460 	.word	0x08001460
 800108c:	20000008 	.word	0x20000008
 8001090:	20000000 	.word	0x20000000

08001094 <HAL_RCC_GetSysClockFreq>:
 8001094:	b580      	push	{r7, lr}
 8001096:	b086      	sub	sp, #24
 8001098:	af00      	add	r7, sp, #0
 800109a:	4b3c      	ldr	r3, [pc, #240]	; (800118c <HAL_RCC_GetSysClockFreq+0xf8>)
 800109c:	689b      	ldr	r3, [r3, #8]
 800109e:	2238      	movs	r2, #56	; 0x38
 80010a0:	4013      	ands	r3, r2
 80010a2:	d10f      	bne.n	80010c4 <HAL_RCC_GetSysClockFreq+0x30>
 80010a4:	4b39      	ldr	r3, [pc, #228]	; (800118c <HAL_RCC_GetSysClockFreq+0xf8>)
 80010a6:	681b      	ldr	r3, [r3, #0]
 80010a8:	0adb      	lsrs	r3, r3, #11
 80010aa:	2207      	movs	r2, #7
 80010ac:	4013      	ands	r3, r2
 80010ae:	2201      	movs	r2, #1
 80010b0:	409a      	lsls	r2, r3
 80010b2:	0013      	movs	r3, r2
 80010b4:	603b      	str	r3, [r7, #0]
 80010b6:	6839      	ldr	r1, [r7, #0]
 80010b8:	4835      	ldr	r0, [pc, #212]	; (8001190 <HAL_RCC_GetSysClockFreq+0xfc>)
 80010ba:	f7ff f823 	bl	8000104 <__udivsi3>
 80010be:	0003      	movs	r3, r0
 80010c0:	613b      	str	r3, [r7, #16]
 80010c2:	e05d      	b.n	8001180 <HAL_RCC_GetSysClockFreq+0xec>
 80010c4:	4b31      	ldr	r3, [pc, #196]	; (800118c <HAL_RCC_GetSysClockFreq+0xf8>)
 80010c6:	689b      	ldr	r3, [r3, #8]
 80010c8:	2238      	movs	r2, #56	; 0x38
 80010ca:	4013      	ands	r3, r2
 80010cc:	2b08      	cmp	r3, #8
 80010ce:	d102      	bne.n	80010d6 <HAL_RCC_GetSysClockFreq+0x42>
 80010d0:	4b30      	ldr	r3, [pc, #192]	; (8001194 <HAL_RCC_GetSysClockFreq+0x100>)
 80010d2:	613b      	str	r3, [r7, #16]
 80010d4:	e054      	b.n	8001180 <HAL_RCC_GetSysClockFreq+0xec>
 80010d6:	4b2d      	ldr	r3, [pc, #180]	; (800118c <HAL_RCC_GetSysClockFreq+0xf8>)
 80010d8:	689b      	ldr	r3, [r3, #8]
 80010da:	2238      	movs	r2, #56	; 0x38
 80010dc:	4013      	ands	r3, r2
 80010de:	2b10      	cmp	r3, #16
 80010e0:	d138      	bne.n	8001154 <HAL_RCC_GetSysClockFreq+0xc0>
 80010e2:	4b2a      	ldr	r3, [pc, #168]	; (800118c <HAL_RCC_GetSysClockFreq+0xf8>)
 80010e4:	68db      	ldr	r3, [r3, #12]
 80010e6:	2203      	movs	r2, #3
 80010e8:	4013      	ands	r3, r2
 80010ea:	60fb      	str	r3, [r7, #12]
 80010ec:	4b27      	ldr	r3, [pc, #156]	; (800118c <HAL_RCC_GetSysClockFreq+0xf8>)
 80010ee:	68db      	ldr	r3, [r3, #12]
 80010f0:	091b      	lsrs	r3, r3, #4
 80010f2:	2207      	movs	r2, #7
 80010f4:	4013      	ands	r3, r2
 80010f6:	3301      	adds	r3, #1
 80010f8:	60bb      	str	r3, [r7, #8]
 80010fa:	68fb      	ldr	r3, [r7, #12]
 80010fc:	2b03      	cmp	r3, #3
 80010fe:	d10d      	bne.n	800111c <HAL_RCC_GetSysClockFreq+0x88>
 8001100:	68b9      	ldr	r1, [r7, #8]
 8001102:	4824      	ldr	r0, [pc, #144]	; (8001194 <HAL_RCC_GetSysClockFreq+0x100>)
 8001104:	f7fe fffe 	bl	8000104 <__udivsi3>
 8001108:	0003      	movs	r3, r0
 800110a:	0019      	movs	r1, r3
 800110c:	4b1f      	ldr	r3, [pc, #124]	; (800118c <HAL_RCC_GetSysClockFreq+0xf8>)
 800110e:	68db      	ldr	r3, [r3, #12]
 8001110:	0a1b      	lsrs	r3, r3, #8
 8001112:	227f      	movs	r2, #127	; 0x7f
 8001114:	4013      	ands	r3, r2
 8001116:	434b      	muls	r3, r1
 8001118:	617b      	str	r3, [r7, #20]
 800111a:	e00d      	b.n	8001138 <HAL_RCC_GetSysClockFreq+0xa4>
 800111c:	68b9      	ldr	r1, [r7, #8]
 800111e:	481c      	ldr	r0, [pc, #112]	; (8001190 <HAL_RCC_GetSysClockFreq+0xfc>)
 8001120:	f7fe fff0 	bl	8000104 <__udivsi3>
 8001124:	0003      	movs	r3, r0
 8001126:	0019      	movs	r1, r3
 8001128:	4b18      	ldr	r3, [pc, #96]	; (800118c <HAL_RCC_GetSysClockFreq+0xf8>)
 800112a:	68db      	ldr	r3, [r3, #12]
 800112c:	0a1b      	lsrs	r3, r3, #8
 800112e:	227f      	movs	r2, #127	; 0x7f
 8001130:	4013      	ands	r3, r2
 8001132:	434b      	muls	r3, r1
 8001134:	617b      	str	r3, [r7, #20]
 8001136:	46c0      	nop			; (mov r8, r8)
 8001138:	4b14      	ldr	r3, [pc, #80]	; (800118c <HAL_RCC_GetSysClockFreq+0xf8>)
 800113a:	68db      	ldr	r3, [r3, #12]
 800113c:	0f5b      	lsrs	r3, r3, #29
 800113e:	2207      	movs	r2, #7
 8001140:	4013      	ands	r3, r2
 8001142:	3301      	adds	r3, #1
 8001144:	607b      	str	r3, [r7, #4]
 8001146:	6879      	ldr	r1, [r7, #4]
 8001148:	6978      	ldr	r0, [r7, #20]
 800114a:	f7fe ffdb 	bl	8000104 <__udivsi3>
 800114e:	0003      	movs	r3, r0
 8001150:	613b      	str	r3, [r7, #16]
 8001152:	e015      	b.n	8001180 <HAL_RCC_GetSysClockFreq+0xec>
 8001154:	4b0d      	ldr	r3, [pc, #52]	; (800118c <HAL_RCC_GetSysClockFreq+0xf8>)
 8001156:	689b      	ldr	r3, [r3, #8]
 8001158:	2238      	movs	r2, #56	; 0x38
 800115a:	4013      	ands	r3, r2
 800115c:	2b20      	cmp	r3, #32
 800115e:	d103      	bne.n	8001168 <HAL_RCC_GetSysClockFreq+0xd4>
 8001160:	2380      	movs	r3, #128	; 0x80
 8001162:	021b      	lsls	r3, r3, #8
 8001164:	613b      	str	r3, [r7, #16]
 8001166:	e00b      	b.n	8001180 <HAL_RCC_GetSysClockFreq+0xec>
 8001168:	4b08      	ldr	r3, [pc, #32]	; (800118c <HAL_RCC_GetSysClockFreq+0xf8>)
 800116a:	689b      	ldr	r3, [r3, #8]
 800116c:	2238      	movs	r2, #56	; 0x38
 800116e:	4013      	ands	r3, r2
 8001170:	2b18      	cmp	r3, #24
 8001172:	d103      	bne.n	800117c <HAL_RCC_GetSysClockFreq+0xe8>
 8001174:	23fa      	movs	r3, #250	; 0xfa
 8001176:	01db      	lsls	r3, r3, #7
 8001178:	613b      	str	r3, [r7, #16]
 800117a:	e001      	b.n	8001180 <HAL_RCC_GetSysClockFreq+0xec>
 800117c:	2300      	movs	r3, #0
 800117e:	613b      	str	r3, [r7, #16]
 8001180:	693b      	ldr	r3, [r7, #16]
 8001182:	0018      	movs	r0, r3
 8001184:	46bd      	mov	sp, r7
 8001186:	b006      	add	sp, #24
 8001188:	bd80      	pop	{r7, pc}
 800118a:	46c0      	nop			; (mov r8, r8)
 800118c:	40021000 	.word	0x40021000
 8001190:	00f42400 	.word	0x00f42400
 8001194:	007a1200 	.word	0x007a1200

08001198 <main>:
/**
  * @brief  The application entry point.
  * @retval int
  */
int main(void)
{
 8001198:	b580      	push	{r7, lr}
 800119a:	b082      	sub	sp, #8
 800119c:	af00      	add	r7, sp, #0
  

  /* MCU Configuration--------------------------------------------------------*/

  /* Reset of all peripherals, Initializes the Flash interface and the Systick. */
  HAL_Init();
 800119e:	f7ff f83d 	bl	800021c <HAL_Init>
  /* USER CODE BEGIN Init */

  /* USER CODE END Init */

  /* Configure the system clock */
  SystemClock_Config();
 80011a2:	f000 f815 	bl	80011d0 <SystemClock_Config>
  /* USER CODE BEGIN SysInit */

  /* USER CODE END SysInit */

  /* Initialize all configured peripherals */
  MX_GPIO_Init();
 80011a6:	f000 f871 	bl	800128c <MX_GPIO_Init>
  {
    /* USER CODE END WHILE */

    /* USER CODE BEGIN 3 */

	HAL_GPIO_TogglePin(LED1_GPIO_Port, LED1_Pin);
 80011aa:	2380      	movs	r3, #128	; 0x80
 80011ac:	015a      	lsls	r2, r3, #5
 80011ae:	23a0      	movs	r3, #160	; 0xa0
 80011b0:	05db      	lsls	r3, r3, #23
 80011b2:	0011      	movs	r1, r2
 80011b4:	0018      	movs	r0, r3
 80011b6:	f7ff faea 	bl	800078e <HAL_GPIO_TogglePin>
	for (long i = 128000; i > 0; i--)
 80011ba:	23fa      	movs	r3, #250	; 0xfa
 80011bc:	025b      	lsls	r3, r3, #9
 80011be:	607b      	str	r3, [r7, #4]
 80011c0:	e002      	b.n	80011c8 <main+0x30>
 80011c2:	687b      	ldr	r3, [r7, #4]
 80011c4:	3b01      	subs	r3, #1
 80011c6:	607b      	str	r3, [r7, #4]
 80011c8:	687b      	ldr	r3, [r7, #4]
 80011ca:	2b00      	cmp	r3, #0
 80011cc:	dcf9      	bgt.n	80011c2 <main+0x2a>
	HAL_GPIO_TogglePin(LED1_GPIO_Port, LED1_Pin);
 80011ce:	e7ec      	b.n	80011aa <main+0x12>

080011d0 <SystemClock_Config>:
/**
  * @brief System Clock Configuration
  * @retval None
  */
void SystemClock_Config(void)
{
 80011d0:	b590      	push	{r4, r7, lr}
 80011d2:	b093      	sub	sp, #76	; 0x4c
 80011d4:	af00      	add	r7, sp, #0
  RCC_OscInitTypeDef RCC_OscInitStruct = {0};
 80011d6:	2410      	movs	r4, #16
 80011d8:	193b      	adds	r3, r7, r4
 80011da:	0018      	movs	r0, r3
 80011dc:	2338      	movs	r3, #56	; 0x38
 80011de:	001a      	movs	r2, r3
 80011e0:	2100      	movs	r1, #0
 80011e2:	f000 f929 	bl	8001438 <memset>
  RCC_ClkInitTypeDef RCC_ClkInitStruct = {0};
 80011e6:	003b      	movs	r3, r7
 80011e8:	0018      	movs	r0, r3
 80011ea:	2310      	movs	r3, #16
 80011ec:	001a      	movs	r2, r3
 80011ee:	2100      	movs	r1, #0
 80011f0:	f000 f922 	bl	8001438 <memset>

  /** Configure the main internal regulator output voltage 
  */
  HAL_PWREx_ControlVoltageScaling(PWR_REGULATOR_VOLTAGE_SCALE1);
 80011f4:	2380      	movs	r3, #128	; 0x80
 80011f6:	009b      	lsls	r3, r3, #2
 80011f8:	0018      	movs	r0, r3
 80011fa:	f7ff fae3 	bl	80007c4 <HAL_PWREx_ControlVoltageScaling>
  /** Initializes the CPU, AHB and APB busses clocks 
  */
  RCC_OscInitStruct.OscillatorType = RCC_OSCILLATORTYPE_HSI;
 80011fe:	193b      	adds	r3, r7, r4
 8001200:	2202      	movs	r2, #2
 8001202:	601a      	str	r2, [r3, #0]
  RCC_OscInitStruct.HSIState = RCC_HSI_ON;
 8001204:	193b      	adds	r3, r7, r4
 8001206:	2280      	movs	r2, #128	; 0x80
 8001208:	0052      	lsls	r2, r2, #1
 800120a:	60da      	str	r2, [r3, #12]
  RCC_OscInitStruct.HSIDiv = RCC_HSI_DIV1;
 800120c:	0021      	movs	r1, r4
 800120e:	187b      	adds	r3, r7, r1
 8001210:	2200      	movs	r2, #0
 8001212:	611a      	str	r2, [r3, #16]
  RCC_OscInitStruct.HSICalibrationValue = RCC_HSICALIBRATION_DEFAULT;
 8001214:	187b      	adds	r3, r7, r1
 8001216:	2240      	movs	r2, #64	; 0x40
 8001218:	615a      	str	r2, [r3, #20]
  RCC_OscInitStruct.PLL.PLLState = RCC_PLL_ON;
 800121a:	187b      	adds	r3, r7, r1
 800121c:	2202      	movs	r2, #2
 800121e:	61da      	str	r2, [r3, #28]
  RCC_OscInitStruct.PLL.PLLSource = RCC_PLLSOURCE_HSI;
 8001220:	187b      	adds	r3, r7, r1
 8001222:	2202      	movs	r2, #2
 8001224:	621a      	str	r2, [r3, #32]
  RCC_OscInitStruct.PLL.PLLM = RCC_PLLM_DIV1;
 8001226:	187b      	adds	r3, r7, r1
 8001228:	2200      	movs	r2, #0
 800122a:	625a      	str	r2, [r3, #36]	; 0x24
  RCC_OscInitStruct.PLL.PLLN = 8;
 800122c:	187b      	adds	r3, r7, r1
 800122e:	2208      	movs	r2, #8
 8001230:	629a      	str	r2, [r3, #40]	; 0x28
  RCC_OscInitStruct.PLL.PLLP = RCC_PLLP_DIV2;
 8001232:	187b      	adds	r3, r7, r1
 8001234:	2280      	movs	r2, #128	; 0x80
 8001236:	0292      	lsls	r2, r2, #10
 8001238:	62da      	str	r2, [r3, #44]	; 0x2c
  RCC_OscInitStruct.PLL.PLLQ = RCC_PLLQ_DIV2;
 800123a:	187b      	adds	r3, r7, r1
 800123c:	2280      	movs	r2, #128	; 0x80
 800123e:	0492      	lsls	r2, r2, #18
 8001240:	631a      	str	r2, [r3, #48]	; 0x30
  RCC_OscInitStruct.PLL.PLLR = RCC_PLLR_DIV2;
 8001242:	187b      	adds	r3, r7, r1
 8001244:	2280      	movs	r2, #128	; 0x80
 8001246:	0592      	lsls	r2, r2, #22
 8001248:	635a      	str	r2, [r3, #52]	; 0x34
  if (HAL_RCC_OscConfig(&RCC_OscInitStruct) != HAL_OK)
 800124a:	187b      	adds	r3, r7, r1
 800124c:	0018      	movs	r0, r3
 800124e:	f7ff faf9 	bl	8000844 <HAL_RCC_OscConfig>
 8001252:	1e03      	subs	r3, r0, #0
 8001254:	d001      	beq.n	800125a <SystemClock_Config+0x8a>
  {
    Error_Handler();
 8001256:	f000 f851 	bl	80012fc <Error_Handler>
  }
  /** Initializes the CPU, AHB and APB busses clocks 
  */
  RCC_ClkInitStruct.ClockType = RCC_CLOCKTYPE_HCLK|RCC_CLOCKTYPE_SYSCLK
 800125a:	003b      	movs	r3, r7
 800125c:	2207      	movs	r2, #7
 800125e:	601a      	str	r2, [r3, #0]
                              |RCC_CLOCKTYPE_PCLK1;
  RCC_ClkInitStruct.SYSCLKSource = RCC_SYSCLKSOURCE_PLLCLK;
 8001260:	003b      	movs	r3, r7
 8001262:	2202      	movs	r2, #2
 8001264:	605a      	str	r2, [r3, #4]
  RCC_ClkInitStruct.AHBCLKDivider = RCC_SYSCLK_DIV1;
 8001266:	003b      	movs	r3, r7
 8001268:	2200      	movs	r2, #0
 800126a:	609a      	str	r2, [r3, #8]
  RCC_ClkInitStruct.APB1CLKDivider = RCC_HCLK_DIV1;
 800126c:	003b      	movs	r3, r7
 800126e:	2200      	movs	r2, #0
 8001270:	60da      	str	r2, [r3, #12]

  if (HAL_RCC_ClockConfig(&RCC_ClkInitStruct, FLASH_LATENCY_2) != HAL_OK)
 8001272:	003b      	movs	r3, r7
 8001274:	2102      	movs	r1, #2
 8001276:	0018      	movs	r0, r3
 8001278:	f7ff fe04 	bl	8000e84 <HAL_RCC_ClockConfig>
 800127c:	1e03      	subs	r3, r0, #0
 800127e:	d001      	beq.n	8001284 <SystemClock_Config+0xb4>
  {
    Error_Handler();
 8001280:	f000 f83c 	bl	80012fc <Error_Handler>
  }
}
 8001284:	46c0      	nop			; (mov r8, r8)
 8001286:	46bd      	mov	sp, r7
 8001288:	b013      	add	sp, #76	; 0x4c
 800128a:	bd90      	pop	{r4, r7, pc}

0800128c <MX_GPIO_Init>:
  * @brief GPIO Initialization Function
  * @param None
  * @retval None
  */
static void MX_GPIO_Init(void)
{
 800128c:	b580      	push	{r7, lr}
 800128e:	b086      	sub	sp, #24
 8001290:	af00      	add	r7, sp, #0
  GPIO_InitTypeDef GPIO_InitStruct = {0};
 8001292:	1d3b      	adds	r3, r7, #4
 8001294:	0018      	movs	r0, r3
 8001296:	2314      	movs	r3, #20
 8001298:	001a      	movs	r2, r3
 800129a:	2100      	movs	r1, #0
 800129c:	f000 f8cc 	bl	8001438 <memset>

  /* GPIO Ports Clock Enable */
  __HAL_RCC_GPIOA_CLK_ENABLE();
 80012a0:	4b15      	ldr	r3, [pc, #84]	; (80012f8 <MX_GPIO_Init+0x6c>)
 80012a2:	6b5a      	ldr	r2, [r3, #52]	; 0x34
 80012a4:	4b14      	ldr	r3, [pc, #80]	; (80012f8 <MX_GPIO_Init+0x6c>)
 80012a6:	2101      	movs	r1, #1
 80012a8:	430a      	orrs	r2, r1
 80012aa:	635a      	str	r2, [r3, #52]	; 0x34
 80012ac:	4b12      	ldr	r3, [pc, #72]	; (80012f8 <MX_GPIO_Init+0x6c>)
 80012ae:	6b5b      	ldr	r3, [r3, #52]	; 0x34
 80012b0:	2201      	movs	r2, #1
 80012b2:	4013      	ands	r3, r2
 80012b4:	603b      	str	r3, [r7, #0]
 80012b6:	683b      	ldr	r3, [r7, #0]

  /*Configure GPIO pin Output Level */
  HAL_GPIO_WritePin(LED1_GPIO_Port, LED1_Pin, GPIO_PIN_RESET);
 80012b8:	2380      	movs	r3, #128	; 0x80
 80012ba:	0159      	lsls	r1, r3, #5
 80012bc:	23a0      	movs	r3, #160	; 0xa0
 80012be:	05db      	lsls	r3, r3, #23
 80012c0:	2200      	movs	r2, #0
 80012c2:	0018      	movs	r0, r3
 80012c4:	f7ff fa46 	bl	8000754 <HAL_GPIO_WritePin>

  /*Configure GPIO pin : LED1_Pin */
  GPIO_InitStruct.Pin = LED1_Pin;
 80012c8:	1d3b      	adds	r3, r7, #4
 80012ca:	2280      	movs	r2, #128	; 0x80
 80012cc:	0152      	lsls	r2, r2, #5
 80012ce:	601a      	str	r2, [r3, #0]
  GPIO_InitStruct.Mode = GPIO_MODE_OUTPUT_PP;
 80012d0:	1d3b      	adds	r3, r7, #4
 80012d2:	2201      	movs	r2, #1
 80012d4:	605a      	str	r2, [r3, #4]
  GPIO_InitStruct.Pull = GPIO_NOPULL;
 80012d6:	1d3b      	adds	r3, r7, #4
 80012d8:	2200      	movs	r2, #0
 80012da:	609a      	str	r2, [r3, #8]
  GPIO_InitStruct.Speed = GPIO_SPEED_FREQ_LOW;
 80012dc:	1d3b      	adds	r3, r7, #4
 80012de:	2200      	movs	r2, #0
 80012e0:	60da      	str	r2, [r3, #12]
  HAL_GPIO_Init(LED1_GPIO_Port, &GPIO_InitStruct);
 80012e2:	1d3a      	adds	r2, r7, #4
 80012e4:	23a0      	movs	r3, #160	; 0xa0
 80012e6:	05db      	lsls	r3, r3, #23
 80012e8:	0011      	movs	r1, r2
 80012ea:	0018      	movs	r0, r3
 80012ec:	f7ff f8ce 	bl	800048c <HAL_GPIO_Init>

}
 80012f0:	46c0      	nop			; (mov r8, r8)
 80012f2:	46bd      	mov	sp, r7
 80012f4:	b006      	add	sp, #24
 80012f6:	bd80      	pop	{r7, pc}
 80012f8:	40021000 	.word	0x40021000

080012fc <Error_Handler>:
/**
  * @brief  This function is executed in case of error occurrence.
  * @retval None
  */
void Error_Handler(void)
{
 80012fc:	b580      	push	{r7, lr}
 80012fe:	af00      	add	r7, sp, #0
  /* USER CODE BEGIN Error_Handler_Debug */
  /* User can add his own implementation to report the HAL error return state */

  /* USER CODE END Error_Handler_Debug */
}
 8001300:	46c0      	nop			; (mov r8, r8)
 8001302:	46bd      	mov	sp, r7
 8001304:	bd80      	pop	{r7, pc}
	...

08001308 <HAL_MspInit>:
 8001308:	b580      	push	{r7, lr}
 800130a:	b082      	sub	sp, #8
 800130c:	af00      	add	r7, sp, #0
 800130e:	4b0f      	ldr	r3, [pc, #60]	; (800134c <HAL_MspInit+0x44>)
 8001310:	6c1a      	ldr	r2, [r3, #64]	; 0x40
 8001312:	4b0e      	ldr	r3, [pc, #56]	; (800134c <HAL_MspInit+0x44>)
 8001314:	2101      	movs	r1, #1
 8001316:	430a      	orrs	r2, r1
 8001318:	641a      	str	r2, [r3, #64]	; 0x40
 800131a:	4b0c      	ldr	r3, [pc, #48]	; (800134c <HAL_MspInit+0x44>)
 800131c:	6c1b      	ldr	r3, [r3, #64]	; 0x40
 800131e:	2201      	movs	r2, #1
 8001320:	4013      	ands	r3, r2
 8001322:	607b      	str	r3, [r7, #4]
 8001324:	687b      	ldr	r3, [r7, #4]
 8001326:	4b09      	ldr	r3, [pc, #36]	; (800134c <HAL_MspInit+0x44>)
 8001328:	6bda      	ldr	r2, [r3, #60]	; 0x3c
 800132a:	4b08      	ldr	r3, [pc, #32]	; (800134c <HAL_MspInit+0x44>)
 800132c:	2180      	movs	r1, #128	; 0x80
 800132e:	0549      	lsls	r1, r1, #21
 8001330:	430a      	orrs	r2, r1
 8001332:	63da      	str	r2, [r3, #60]	; 0x3c
 8001334:	4b05      	ldr	r3, [pc, #20]	; (800134c <HAL_MspInit+0x44>)
 8001336:	6bda      	ldr	r2, [r3, #60]	; 0x3c
 8001338:	2380      	movs	r3, #128	; 0x80
 800133a:	055b      	lsls	r3, r3, #21
 800133c:	4013      	ands	r3, r2
 800133e:	603b      	str	r3, [r7, #0]
 8001340:	683b      	ldr	r3, [r7, #0]
 8001342:	46c0      	nop			; (mov r8, r8)
 8001344:	46bd      	mov	sp, r7
 8001346:	b002      	add	sp, #8
 8001348:	bd80      	pop	{r7, pc}
 800134a:	46c0      	nop			; (mov r8, r8)
 800134c:	40021000 	.word	0x40021000

08001350 <NMI_Handler>:
 8001350:	b580      	push	{r7, lr}
 8001352:	af00      	add	r7, sp, #0
 8001354:	46c0      	nop			; (mov r8, r8)
 8001356:	46bd      	mov	sp, r7
 8001358:	bd80      	pop	{r7, pc}

0800135a <HardFault_Handler>:
 800135a:	b580      	push	{r7, lr}
 800135c:	af00      	add	r7, sp, #0
 800135e:	e7fe      	b.n	800135e <HardFault_Handler+0x4>

08001360 <SVC_Handler>:
 8001360:	b580      	push	{r7, lr}
 8001362:	af00      	add	r7, sp, #0
 8001364:	46c0      	nop			; (mov r8, r8)
 8001366:	46bd      	mov	sp, r7
 8001368:	bd80      	pop	{r7, pc}

0800136a <PendSV_Handler>:
 800136a:	b580      	push	{r7, lr}
 800136c:	af00      	add	r7, sp, #0
 800136e:	46c0      	nop			; (mov r8, r8)
 8001370:	46bd      	mov	sp, r7
 8001372:	bd80      	pop	{r7, pc}

08001374 <SysTick_Handler>:
 8001374:	b580      	push	{r7, lr}
 8001376:	af00      	add	r7, sp, #0
 8001378:	f7fe ffba 	bl	80002f0 <HAL_IncTick>
 800137c:	46c0      	nop			; (mov r8, r8)
 800137e:	46bd      	mov	sp, r7
 8001380:	bd80      	pop	{r7, pc}
	...

08001384 <SystemInit>:
 8001384:	b580      	push	{r7, lr}
 8001386:	af00      	add	r7, sp, #0
 8001388:	4b03      	ldr	r3, [pc, #12]	; (8001398 <SystemInit+0x14>)
 800138a:	2280      	movs	r2, #128	; 0x80
 800138c:	0512      	lsls	r2, r2, #20
 800138e:	609a      	str	r2, [r3, #8]
 8001390:	46c0      	nop			; (mov r8, r8)
 8001392:	46bd      	mov	sp, r7
 8001394:	bd80      	pop	{r7, pc}
 8001396:	46c0      	nop			; (mov r8, r8)
 8001398:	e000ed00 	.word	0xe000ed00

0800139c <Reset_Handler>:
 800139c:	480d      	ldr	r0, [pc, #52]	; (80013d4 <LoopForever+0x2>)
 800139e:	4685      	mov	sp, r0
 80013a0:	2100      	movs	r1, #0
 80013a2:	e003      	b.n	80013ac <LoopCopyDataInit>

080013a4 <CopyDataInit>:
 80013a4:	4b0c      	ldr	r3, [pc, #48]	; (80013d8 <LoopForever+0x6>)
 80013a6:	585b      	ldr	r3, [r3, r1]
 80013a8:	5043      	str	r3, [r0, r1]
 80013aa:	3104      	adds	r1, #4

080013ac <LoopCopyDataInit>:
 80013ac:	480b      	ldr	r0, [pc, #44]	; (80013dc <LoopForever+0xa>)
 80013ae:	4b0c      	ldr	r3, [pc, #48]	; (80013e0 <LoopForever+0xe>)
 80013b0:	1842      	adds	r2, r0, r1
 80013b2:	429a      	cmp	r2, r3
 80013b4:	d3f6      	bcc.n	80013a4 <CopyDataInit>
 80013b6:	4a0b      	ldr	r2, [pc, #44]	; (80013e4 <LoopForever+0x12>)
 80013b8:	e002      	b.n	80013c0 <LoopFillZerobss>

080013ba <FillZerobss>:
 80013ba:	2300      	movs	r3, #0
 80013bc:	6013      	str	r3, [r2, #0]
 80013be:	3204      	adds	r2, #4

080013c0 <LoopFillZerobss>:
 80013c0:	4b09      	ldr	r3, [pc, #36]	; (80013e8 <LoopForever+0x16>)
 80013c2:	429a      	cmp	r2, r3
 80013c4:	d3f9      	bcc.n	80013ba <FillZerobss>
 80013c6:	f7ff ffdd 	bl	8001384 <SystemInit>
 80013ca:	f000 f811 	bl	80013f0 <__libc_init_array>
 80013ce:	f7ff fee3 	bl	8001198 <main>

080013d2 <LoopForever>:
 80013d2:	e7fe      	b.n	80013d2 <LoopForever>
 80013d4:	20002000 	.word	0x20002000
 80013d8:	080014a8 	.word	0x080014a8
 80013dc:	20000000 	.word	0x20000000
 80013e0:	2000000c 	.word	0x2000000c
 80013e4:	2000000c 	.word	0x2000000c
 80013e8:	2000002c 	.word	0x2000002c

080013ec <ADC1_IRQHandler>:
 80013ec:	e7fe      	b.n	80013ec <ADC1_IRQHandler>
	...

080013f0 <__libc_init_array>:
 80013f0:	b570      	push	{r4, r5, r6, lr}
 80013f2:	2600      	movs	r6, #0
 80013f4:	4d0c      	ldr	r5, [pc, #48]	; (8001428 <__libc_init_array+0x38>)
 80013f6:	4c0d      	ldr	r4, [pc, #52]	; (800142c <__libc_init_array+0x3c>)
 80013f8:	1b64      	subs	r4, r4, r5
 80013fa:	10a4      	asrs	r4, r4, #2
 80013fc:	42a6      	cmp	r6, r4
 80013fe:	d109      	bne.n	8001414 <__libc_init_array+0x24>
 8001400:	2600      	movs	r6, #0
 8001402:	f000 f821 	bl	8001448 <_init>
 8001406:	4d0a      	ldr	r5, [pc, #40]	; (8001430 <__libc_init_array+0x40>)
 8001408:	4c0a      	ldr	r4, [pc, #40]	; (8001434 <__libc_init_array+0x44>)
 800140a:	1b64      	subs	r4, r4, r5
 800140c:	10a4      	asrs	r4, r4, #2
 800140e:	42a6      	cmp	r6, r4
 8001410:	d105      	bne.n	800141e <__libc_init_array+0x2e>
 8001412:	bd70      	pop	{r4, r5, r6, pc}
 8001414:	00b3      	lsls	r3, r6, #2
 8001416:	58eb      	ldr	r3, [r5, r3]
 8001418:	4798      	blx	r3
 800141a:	3601      	adds	r6, #1
 800141c:	e7ee      	b.n	80013fc <__libc_init_array+0xc>
 800141e:	00b3      	lsls	r3, r6, #2
 8001420:	58eb      	ldr	r3, [r5, r3]
 8001422:	4798      	blx	r3
 8001424:	3601      	adds	r6, #1
 8001426:	e7f2      	b.n	800140e <__libc_init_array+0x1e>
 8001428:	080014a0 	.word	0x080014a0
 800142c:	080014a0 	.word	0x080014a0
 8001430:	080014a0 	.word	0x080014a0
 8001434:	080014a4 	.word	0x080014a4

08001438 <memset>:
 8001438:	0003      	movs	r3, r0
 800143a:	1812      	adds	r2, r2, r0
 800143c:	4293      	cmp	r3, r2
 800143e:	d100      	bne.n	8001442 <memset+0xa>
 8001440:	4770      	bx	lr
 8001442:	7019      	strb	r1, [r3, #0]
 8001444:	3301      	adds	r3, #1
 8001446:	e7f9      	b.n	800143c <memset+0x4>

08001448 <_init>:
 8001448:	b5f8      	push	{r3, r4, r5, r6, r7, lr}
 800144a:	46c0      	nop			; (mov r8, r8)
 800144c:	bcf8      	pop	{r3, r4, r5, r6, r7}
 800144e:	bc08      	pop	{r3}
 8001450:	469e      	mov	lr, r3
 8001452:	4770      	bx	lr

08001454 <_fini>:
 8001454:	b5f8      	push	{r3, r4, r5, r6, r7, lr}
 8001456:	46c0      	nop			; (mov r8, r8)
 8001458:	bcf8      	pop	{r3, r4, r5, r6, r7}
 800145a:	bc08      	pop	{r3}
 800145c:	469e      	mov	lr, r3
 800145e:	4770      	bx	lr
