   1              	 .syntax unified
   2              	 .cpu cortex-m4
   3              	 .eabi_attribute 27,3
   4              	 .fpu fpv4-sp-d16
   5              	 .eabi_attribute 20,1
   6              	 .eabi_attribute 21,1
   7              	 .eabi_attribute 23,3
   8              	 .eabi_attribute 24,1
   9              	 .eabi_attribute 25,1
  10              	 .eabi_attribute 26,1
  11              	 .eabi_attribute 30,1
  12              	 .eabi_attribute 34,1
  13              	 .eabi_attribute 18,4
  14              	 .thumb
  15              	 .file "xmc4_gpio.c"
  16              	 .text
  17              	.Ltext0:
  18              	 .cfi_sections .debug_frame
  19              	 .section .text.XMC_GPIO_Init,"ax",%progbits
  20              	 .align 2
  21              	 .global XMC_GPIO_Init
  22              	 .thumb
  23              	 .thumb_func
  25              	XMC_GPIO_Init:
  26              	.LFB147:
  27              	 .file 1 "C:/Files/Projects/Git/XMCLib/src/xmc4_gpio.c"
   1:C:/Files/Projects/Git/XMCLib/src\xmc4_gpio.c **** /**
   2:C:/Files/Projects/Git/XMCLib/src\xmc4_gpio.c ****  * @file xmc4_gpio.c
   3:C:/Files/Projects/Git/XMCLib/src\xmc4_gpio.c ****  * @date 2017-09-15
   4:C:/Files/Projects/Git/XMCLib/src\xmc4_gpio.c ****  *
   5:C:/Files/Projects/Git/XMCLib/src\xmc4_gpio.c ****  * @cond
   6:C:/Files/Projects/Git/XMCLib/src\xmc4_gpio.c ****  **************************************************************************************************
   7:C:/Files/Projects/Git/XMCLib/src\xmc4_gpio.c ****  * XMClib v2.1.24 - XMC Peripheral Driver Library 
   8:C:/Files/Projects/Git/XMCLib/src\xmc4_gpio.c ****  *
   9:C:/Files/Projects/Git/XMCLib/src\xmc4_gpio.c ****  * Copyright (c) 2015-2019, Infineon Technologies AG
  10:C:/Files/Projects/Git/XMCLib/src\xmc4_gpio.c ****  * All rights reserved.                        
  11:C:/Files/Projects/Git/XMCLib/src\xmc4_gpio.c ****  *                                             
  12:C:/Files/Projects/Git/XMCLib/src\xmc4_gpio.c ****  * Redistribution and use in source and binary forms, with or without modification,are permitted pr
  13:C:/Files/Projects/Git/XMCLib/src\xmc4_gpio.c ****  * following conditions are met:   
  14:C:/Files/Projects/Git/XMCLib/src\xmc4_gpio.c ****  *                                                                              
  15:C:/Files/Projects/Git/XMCLib/src\xmc4_gpio.c ****  * Redistributions of source code must retain the above copyright notice, this list of conditions a
  16:C:/Files/Projects/Git/XMCLib/src\xmc4_gpio.c ****  * disclaimer.                        
  17:C:/Files/Projects/Git/XMCLib/src\xmc4_gpio.c ****  * 
  18:C:/Files/Projects/Git/XMCLib/src\xmc4_gpio.c ****  * Redistributions in binary form must reproduce the above copyright notice, this list of condition
  19:C:/Files/Projects/Git/XMCLib/src\xmc4_gpio.c ****  * disclaimer in the documentation and/or other materials provided with the distribution.          
  20:C:/Files/Projects/Git/XMCLib/src\xmc4_gpio.c ****  * 
  21:C:/Files/Projects/Git/XMCLib/src\xmc4_gpio.c ****  * Neither the name of the copyright holders nor the names of its contributors may be used to endor
  22:C:/Files/Projects/Git/XMCLib/src\xmc4_gpio.c ****  * products derived from this software without specific prior written permission.                  
  23:C:/Files/Projects/Git/XMCLib/src\xmc4_gpio.c ****  *                                                                              
  24:C:/Files/Projects/Git/XMCLib/src\xmc4_gpio.c ****  * THIS SOFTWARE IS PROVIDED BY THE COPYRIGHT HOLDERS AND CONTRIBUTORS "AS IS" AND ANY EXPRESS OR I
  25:C:/Files/Projects/Git/XMCLib/src\xmc4_gpio.c ****  * INCLUDING, BUT NOT LIMITED TO, THE IMPLIED WARRANTIES OF MERCHANTABILITY AND FITNESS FOR A PARTI
  26:C:/Files/Projects/Git/XMCLib/src\xmc4_gpio.c ****  * DISCLAIMED. IN NO EVENT SHALL THE COPYRIGHT HOLDER OR CONTRIBUTORS BE LIABLE  FOR ANY DIRECT, IN
  27:C:/Files/Projects/Git/XMCLib/src\xmc4_gpio.c ****  * SPECIAL, EXEMPLARY, OR CONSEQUENTIAL DAMAGES (INCLUDING, BUT NOT LIMITED TO, PROCUREMENT OF SUBS
  28:C:/Files/Projects/Git/XMCLib/src\xmc4_gpio.c ****  * SERVICES; LOSS OF USE, DATA, OR PROFITS; OR BUSINESS INTERRUPTION) HOWEVER CAUSED AND ON ANY THE
  29:C:/Files/Projects/Git/XMCLib/src\xmc4_gpio.c ****  * WHETHER IN CONTRACT, STRICT LIABILITY,OR TORT (INCLUDING NEGLIGENCE OR OTHERWISE) ARISING IN ANY
  30:C:/Files/Projects/Git/XMCLib/src\xmc4_gpio.c ****  * OF THIS SOFTWARE, EVEN IF ADVISED OF THE POSSIBILITY OF SUCH DAMAGE.                            
  31:C:/Files/Projects/Git/XMCLib/src\xmc4_gpio.c ****  *                                                                              
  32:C:/Files/Projects/Git/XMCLib/src\xmc4_gpio.c ****  * To improve the quality of the software, users are encouraged to share modifications, enhancement
  33:C:/Files/Projects/Git/XMCLib/src\xmc4_gpio.c ****  * Infineon Technologies AG dave@infineon.com).                                                    
  34:C:/Files/Projects/Git/XMCLib/src\xmc4_gpio.c ****  **************************************************************************************************
  35:C:/Files/Projects/Git/XMCLib/src\xmc4_gpio.c ****  *
  36:C:/Files/Projects/Git/XMCLib/src\xmc4_gpio.c ****  * Change History
  37:C:/Files/Projects/Git/XMCLib/src\xmc4_gpio.c ****  * --------------
  38:C:/Files/Projects/Git/XMCLib/src\xmc4_gpio.c ****  *
  39:C:/Files/Projects/Git/XMCLib/src\xmc4_gpio.c ****  * 2015-02-20:
  40:C:/Files/Projects/Git/XMCLib/src\xmc4_gpio.c ****  *     - Initial draft <br>
  41:C:/Files/Projects/Git/XMCLib/src\xmc4_gpio.c ****  *      
  42:C:/Files/Projects/Git/XMCLib/src\xmc4_gpio.c ****  * 2015-06-20:
  43:C:/Files/Projects/Git/XMCLib/src\xmc4_gpio.c ****  *     - Removed version macros and declaration of GetDriverVersion API
  44:C:/Files/Projects/Git/XMCLib/src\xmc4_gpio.c ****  *
  45:C:/Files/Projects/Git/XMCLib/src\xmc4_gpio.c ****  * 2017-09-15:
  46:C:/Files/Projects/Git/XMCLib/src\xmc4_gpio.c ****  *     - Fix side effects on output level when programming a pin as input after the same pin in ano
  47:C:/Files/Projects/Git/XMCLib/src\xmc4_gpio.c ****  *  
  48:C:/Files/Projects/Git/XMCLib/src\xmc4_gpio.c ****  * @endcond
  49:C:/Files/Projects/Git/XMCLib/src\xmc4_gpio.c ****  *
  50:C:/Files/Projects/Git/XMCLib/src\xmc4_gpio.c ****  */
  51:C:/Files/Projects/Git/XMCLib/src\xmc4_gpio.c **** 
  52:C:/Files/Projects/Git/XMCLib/src\xmc4_gpio.c **** #include "xmc_gpio.h"
  53:C:/Files/Projects/Git/XMCLib/src\xmc4_gpio.c **** 
  54:C:/Files/Projects/Git/XMCLib/src\xmc4_gpio.c **** #if UC_FAMILY == XMC4
  55:C:/Files/Projects/Git/XMCLib/src\xmc4_gpio.c **** 
  56:C:/Files/Projects/Git/XMCLib/src\xmc4_gpio.c **** /*******************************************************************************
  57:C:/Files/Projects/Git/XMCLib/src\xmc4_gpio.c ****  * MACROS
  58:C:/Files/Projects/Git/XMCLib/src\xmc4_gpio.c ****  *******************************************************************************/
  59:C:/Files/Projects/Git/XMCLib/src\xmc4_gpio.c **** 
  60:C:/Files/Projects/Git/XMCLib/src\xmc4_gpio.c **** #define PORT_PDR_Msk              PORT0_PDR0_PD0_Msk
  61:C:/Files/Projects/Git/XMCLib/src\xmc4_gpio.c **** #define PORT_PDR_Size             (4U)
  62:C:/Files/Projects/Git/XMCLib/src\xmc4_gpio.c **** #define PORT_HWSEL_Msk            PORT0_HWSEL_HW0_Msk
  63:C:/Files/Projects/Git/XMCLib/src\xmc4_gpio.c **** #define XMC_GPIO_MODE_OE          XMC_GPIO_MODE_OUTPUT_PUSH_PULL
  64:C:/Files/Projects/Git/XMCLib/src\xmc4_gpio.c **** 
  65:C:/Files/Projects/Git/XMCLib/src\xmc4_gpio.c **** /*******************************************************************************
  66:C:/Files/Projects/Git/XMCLib/src\xmc4_gpio.c ****  * API IMPLEMENTATION
  67:C:/Files/Projects/Git/XMCLib/src\xmc4_gpio.c ****  *******************************************************************************/
  68:C:/Files/Projects/Git/XMCLib/src\xmc4_gpio.c **** 
  69:C:/Files/Projects/Git/XMCLib/src\xmc4_gpio.c **** void XMC_GPIO_Init(XMC_GPIO_PORT_t *const port, const uint8_t pin, const XMC_GPIO_CONFIG_t *const c
  70:C:/Files/Projects/Git/XMCLib/src\xmc4_gpio.c **** {
  28              	 .loc 1 70 0
  29              	 .cfi_startproc
  30              	 
  31              	 
  32              	 
  33              	.LVL0:
  34 0000 F0B4     	 push {r4,r5,r6,r7}
  35              	.LCFI0:
  36              	 .cfi_def_cfa_offset 16
  37              	 .cfi_offset 4,-16
  38              	 .cfi_offset 5,-12
  39              	 .cfi_offset 6,-8
  40              	 .cfi_offset 7,-4
  41 0002 01F0FC03 	 and r3,r1,#252
  42 0006 0344     	 add r3,r3,r0
  71:C:/Files/Projects/Git/XMCLib/src\xmc4_gpio.c ****   XMC_ASSERT("XMC_GPIO_Init: Invalid port", XMC_GPIO_CHECK_PORT(port));
  72:C:/Files/Projects/Git/XMCLib/src\xmc4_gpio.c ****   XMC_ASSERT("XMC_GPIO_Init: Invalid mode", XMC_GPIO_IsModeValid(config->mode));
  73:C:/Files/Projects/Git/XMCLib/src\xmc4_gpio.c ****  
  74:C:/Files/Projects/Git/XMCLib/src\xmc4_gpio.c ****   /* Switch to input */
  75:C:/Files/Projects/Git/XMCLib/src\xmc4_gpio.c ****   port->IOCR[pin >> 2U] &= (uint32_t)~(PORT_IOCR_PC_Msk << (PORT_IOCR_PC_Size * (pin & 0x3U)));
  43              	 .loc 1 75 0
  44 0008 1E69     	 ldr r6,[r3,#16]
  45 000a 01F00304 	 and r4,r1,#3
  46 000e E400     	 lsls r4,r4,#3
  47 0010 F825     	 movs r5,#248
  48 0012 A540     	 lsls r5,r5,r4
  49 0014 26EA0505 	 bic r5,r6,r5
  50 0018 1D61     	 str r5,[r3,#16]
  76:C:/Files/Projects/Git/XMCLib/src\xmc4_gpio.c **** 
  77:C:/Files/Projects/Git/XMCLib/src\xmc4_gpio.c ****   /* HW port control is disabled */
  78:C:/Files/Projects/Git/XMCLib/src\xmc4_gpio.c ****   port->HWSEL &= ~(uint32_t)((uint32_t)PORT_HWSEL_Msk << ((uint32_t)pin << 1U));
  51              	 .loc 1 78 0
  52 001a 466F     	 ldr r6,[r0,#116]
  53 001c 4F00     	 lsls r7,r1,#1
  54 001e 0325     	 movs r5,#3
  55 0020 BD40     	 lsls r5,r5,r7
  56 0022 26EA0505 	 bic r5,r6,r5
  57 0026 4567     	 str r5,[r0,#116]
  79:C:/Files/Projects/Git/XMCLib/src\xmc4_gpio.c **** 
  80:C:/Files/Projects/Git/XMCLib/src\xmc4_gpio.c **** 
  81:C:/Files/Projects/Git/XMCLib/src\xmc4_gpio.c ****   /* Enable digital input */
  82:C:/Files/Projects/Git/XMCLib/src\xmc4_gpio.c ****   if (XMC_GPIO_CHECK_ANALOG_PORT(port))
  58              	 .loc 1 82 0
  59 0028 174D     	 ldr r5,.L6
  60 002a A842     	 cmp r0,r5
  61 002c 03D0     	 beq .L2
  62              	 .loc 1 82 0 is_stmt 0 discriminator 1
  63 002e 05F58075 	 add r5,r5,#256
  64 0032 A842     	 cmp r0,r5
  65 0034 07D1     	 bne .L3
  66              	.L2:
  83:C:/Files/Projects/Git/XMCLib/src\xmc4_gpio.c ****   {
  84:C:/Files/Projects/Git/XMCLib/src\xmc4_gpio.c ****     port->PDISC &= ~(uint32_t)((uint32_t)0x1U << pin);
  67              	 .loc 1 84 0 is_stmt 1
  68 0036 056E     	 ldr r5,[r0,#96]
  69 0038 0126     	 movs r6,#1
  70 003a 06FA01F1 	 lsl r1,r6,r1
  71              	.LVL1:
  72 003e 25EA0101 	 bic r1,r5,r1
  73 0042 0166     	 str r1,[r0,#96]
  74 0044 18E0     	 b .L4
  75              	.LVL2:
  76              	.L3:
  85:C:/Files/Projects/Git/XMCLib/src\xmc4_gpio.c ****   }
  86:C:/Files/Projects/Git/XMCLib/src\xmc4_gpio.c ****   else
  87:C:/Files/Projects/Git/XMCLib/src\xmc4_gpio.c ****   {
  88:C:/Files/Projects/Git/XMCLib/src\xmc4_gpio.c ****     if ((config->mode & XMC_GPIO_MODE_OE) != 0)
  77              	 .loc 1 88 0
  78 0046 92F90050 	 ldrsb r5,[r2]
  79 004a 002D     	 cmp r5,#0
  80 004c 14DA     	 bge .L4
  89:C:/Files/Projects/Git/XMCLib/src\xmc4_gpio.c ****     {
  90:C:/Files/Projects/Git/XMCLib/src\xmc4_gpio.c ****       /* If output is enabled */
  91:C:/Files/Projects/Git/XMCLib/src\xmc4_gpio.c **** 
  92:C:/Files/Projects/Git/XMCLib/src\xmc4_gpio.c ****       /* Set output level */
  93:C:/Files/Projects/Git/XMCLib/src\xmc4_gpio.c ****       port->OMR = (uint32_t)config->output_level << pin;
  81              	 .loc 1 93 0
  82 004e 5568     	 ldr r5,[r2,#4]
  83 0050 8D40     	 lsls r5,r5,r1
  84 0052 4560     	 str r5,[r0,#4]
  85 0054 CD08     	 lsrs r5,r1,#3
  86 0056 00EB8500 	 add r0,r0,r5,lsl#2
  87              	.LVL3:
  94:C:/Files/Projects/Git/XMCLib/src\xmc4_gpio.c **** 
  95:C:/Files/Projects/Git/XMCLib/src\xmc4_gpio.c ****       /* Set output driver strength */
  96:C:/Files/Projects/Git/XMCLib/src\xmc4_gpio.c ****       port->PDR[pin >> 3U] &= (uint32_t)~(PORT_PDR_Msk << ((uint32_t)PORT_PDR_Size * ((uint32_t)pin
  88              	 .loc 1 96 0
  89 005a 066C     	 ldr r6,[r0,#64]
  90 005c 01F00701 	 and r1,r1,#7
  91              	.LVL4:
  92 0060 8900     	 lsls r1,r1,#2
  93 0062 0725     	 movs r5,#7
  94 0064 8D40     	 lsls r5,r5,r1
  95 0066 26EA0505 	 bic r5,r6,r5
  96 006a 0564     	 str r5,[r0,#64]
  97:C:/Files/Projects/Git/XMCLib/src\xmc4_gpio.c ****       port->PDR[pin >> 3U] |= (uint32_t)config->output_strength << ((uint32_t)PORT_PDR_Size * ((uin
  97              	 .loc 1 97 0
  98 006c 056C     	 ldr r5,[r0,#64]
  99 006e 167A     	 ldrb r6,[r2,#8]
 100 0070 06FA01F1 	 lsl r1,r6,r1
 101 0074 2943     	 orrs r1,r1,r5
 102 0076 0164     	 str r1,[r0,#64]
 103              	.L4:
  98:C:/Files/Projects/Git/XMCLib/src\xmc4_gpio.c ****     }
  99:C:/Files/Projects/Git/XMCLib/src\xmc4_gpio.c ****   }
 100:C:/Files/Projects/Git/XMCLib/src\xmc4_gpio.c **** 
 101:C:/Files/Projects/Git/XMCLib/src\xmc4_gpio.c ****   /* Set mode */
 102:C:/Files/Projects/Git/XMCLib/src\xmc4_gpio.c ****   port->IOCR[pin >> 2U] |= (uint32_t)config->mode << ((uint32_t)PORT_IOCR_PC_Size * ((uint32_t)pin 
 104              	 .loc 1 102 0
 105 0078 1969     	 ldr r1,[r3,#16]
 106 007a 1278     	 ldrb r2,[r2]
 107              	.LVL5:
 108 007c A240     	 lsls r2,r2,r4
 109 007e 0A43     	 orrs r2,r2,r1
 110 0080 1A61     	 str r2,[r3,#16]
 103:C:/Files/Projects/Git/XMCLib/src\xmc4_gpio.c **** }
 111              	 .loc 1 103 0
 112 0082 F0BC     	 pop {r4,r5,r6,r7}
 113              	.LCFI1:
 114              	 .cfi_restore 7
 115              	 .cfi_restore 6
 116              	 .cfi_restore 5
 117              	 .cfi_restore 4
 118              	 .cfi_def_cfa_offset 0
 119 0084 7047     	 bx lr
 120              	.L7:
 121 0086 00BF     	 .align 2
 122              	.L6:
 123 0088 008E0248 	 .word 1208126976
 124              	 .cfi_endproc
 125              	.LFE147:
 127              	 .section .text.XMC_GPIO_SetOutputStrength,"ax",%progbits
 128              	 .align 2
 129              	 .global XMC_GPIO_SetOutputStrength
 130              	 .thumb
 131              	 .thumb_func
 133              	XMC_GPIO_SetOutputStrength:
 134              	.LFB148:
 104:C:/Files/Projects/Git/XMCLib/src\xmc4_gpio.c **** 
 105:C:/Files/Projects/Git/XMCLib/src\xmc4_gpio.c **** void XMC_GPIO_SetOutputStrength(XMC_GPIO_PORT_t *const port, const uint8_t pin, XMC_GPIO_OUTPUT_STR
 106:C:/Files/Projects/Git/XMCLib/src\xmc4_gpio.c **** {
 135              	 .loc 1 106 0
 136              	 .cfi_startproc
 137              	 
 138              	 
 139              	 
 140              	.LVL6:
 141 0000 10B4     	 push {r4}
 142              	.LCFI2:
 143              	 .cfi_def_cfa_offset 4
 144              	 .cfi_offset 4,-4
 145 0002 CB08     	 lsrs r3,r1,#3
 146 0004 00EB8300 	 add r0,r0,r3,lsl#2
 147              	.LVL7:
 107:C:/Files/Projects/Git/XMCLib/src\xmc4_gpio.c ****   XMC_ASSERT("XMC_GPIO_Init: Invalid port", XMC_GPIO_CHECK_OUTPUT_PORT(port));
 108:C:/Files/Projects/Git/XMCLib/src\xmc4_gpio.c ****   XMC_ASSERT("XMC_GPIO_Init: Invalid output strength", XMC_GPIO_CHECK_OUTPUT_STRENGTH(strength));
 109:C:/Files/Projects/Git/XMCLib/src\xmc4_gpio.c **** 
 110:C:/Files/Projects/Git/XMCLib/src\xmc4_gpio.c ****   port->PDR[pin >> 3U] &= (uint32_t)~((uint32_t)PORT_PDR_Msk << ((uint32_t)PORT_PDR_Size * ((uint32
 148              	 .loc 1 110 0
 149 0008 046C     	 ldr r4,[r0,#64]
 150 000a 01F00701 	 and r1,r1,#7
 151              	.LVL8:
 152 000e 8900     	 lsls r1,r1,#2
 153 0010 0723     	 movs r3,#7
 154 0012 8B40     	 lsls r3,r3,r1
 155 0014 24EA0303 	 bic r3,r4,r3
 156 0018 0364     	 str r3,[r0,#64]
 111:C:/Files/Projects/Git/XMCLib/src\xmc4_gpio.c ****   port->PDR[pin >> 3U] |= (uint32_t)strength << ((uint32_t)PORT_PDR_Size * ((uint32_t)pin & 0x7U));
 157              	 .loc 1 111 0
 158 001a 036C     	 ldr r3,[r0,#64]
 159 001c 8A40     	 lsls r2,r2,r1
 160              	.LVL9:
 161 001e 1343     	 orrs r3,r3,r2
 162 0020 0364     	 str r3,[r0,#64]
 112:C:/Files/Projects/Git/XMCLib/src\xmc4_gpio.c **** }
 163              	 .loc 1 112 0
 164 0022 5DF8044B 	 ldr r4,[sp],#4
 165              	.LCFI3:
 166              	 .cfi_restore 4
 167              	 .cfi_def_cfa_offset 0
 168 0026 7047     	 bx lr
 169              	 .cfi_endproc
 170              	.LFE148:
 172              	 .text
 173              	.Letext0:
 174              	 .file 2 "c:\\dave\\dave-ide-4.4.2-64bit\\eclipse\\arm-gcc-49\\arm-none-eabi\\include\\machine\\_default_types.h"
 175              	 .file 3 "c:\\dave\\dave-ide-4.4.2-64bit\\eclipse\\arm-gcc-49\\arm-none-eabi\\include\\stdint.h"
 176              	 .file 4 "C:/Files/Projects/Git/XMCLib/inc/xmc_gpio.h"
 177              	 .file 5 "C:/Files/Projects/Git/XMCLib/inc/xmc4_gpio.h"
 178              	 .file 6 "C:/Files/Projects/Git/CMSIS/Include/cmsis_gcc.h"
 179              	 .file 7 "C:/Files/Projects/Git/CMSIS/Include/core_cm4.h"