   1              	 .syntax unified
   2              	 .cpu cortex-m4
   3              	 .eabi_attribute 27,3
   4              	 .fpu fpv4-sp-d16
   5              	 .eabi_attribute 20,1
   6              	 .eabi_attribute 21,1
   7              	 .eabi_attribute 23,3
   8              	 .eabi_attribute 24,1
   9              	 .eabi_attribute 25,1
  10              	 .eabi_attribute 26,1
  11              	 .eabi_attribute 30,1
  12              	 .eabi_attribute 34,1
  13              	 .eabi_attribute 18,4
  14              	 .thumb
  15              	 .file "xmc4_scu.c"
  16              	 .text
  17              	.Ltext0:
  18              	 .cfi_sections .debug_frame
  19              	 .section .text.XMC_SCU_lDelay,"ax",%progbits
  20              	 .align 2
  21              	 .thumb
  22              	 .thumb_func
  24              	XMC_SCU_lDelay:
  25              	.LFB175:
  26              	 .file 1 "C:/Files/Projects/Git/XMCLib/src/xmc4_scu.c"
   1:C:/Files/Projects/Git/XMCLib/src\xmc4_scu.c **** /**
   2:C:/Files/Projects/Git/XMCLib/src\xmc4_scu.c ****  * @file xmc4_scu.c
   3:C:/Files/Projects/Git/XMCLib/src\xmc4_scu.c ****  * @date 2018-06-21
   4:C:/Files/Projects/Git/XMCLib/src\xmc4_scu.c ****  *
   5:C:/Files/Projects/Git/XMCLib/src\xmc4_scu.c ****  * @cond
   6:C:/Files/Projects/Git/XMCLib/src\xmc4_scu.c ****  **************************************************************************************************
   7:C:/Files/Projects/Git/XMCLib/src\xmc4_scu.c ****  * XMClib v2.1.24 - XMC Peripheral Driver Library 
   8:C:/Files/Projects/Git/XMCLib/src\xmc4_scu.c ****  *
   9:C:/Files/Projects/Git/XMCLib/src\xmc4_scu.c ****  * Copyright (c) 2015-2019, Infineon Technologies AG
  10:C:/Files/Projects/Git/XMCLib/src\xmc4_scu.c ****  * All rights reserved.                        
  11:C:/Files/Projects/Git/XMCLib/src\xmc4_scu.c ****  *                                             
  12:C:/Files/Projects/Git/XMCLib/src\xmc4_scu.c ****  * Redistribution and use in source and binary forms, with or without modification,are permitted pr
  13:C:/Files/Projects/Git/XMCLib/src\xmc4_scu.c ****  * following conditions are met:   
  14:C:/Files/Projects/Git/XMCLib/src\xmc4_scu.c ****  *                                                                              
  15:C:/Files/Projects/Git/XMCLib/src\xmc4_scu.c ****  * Redistributions of source code must retain the above copyright notice, this list of conditions a
  16:C:/Files/Projects/Git/XMCLib/src\xmc4_scu.c ****  * disclaimer.                        
  17:C:/Files/Projects/Git/XMCLib/src\xmc4_scu.c ****  * 
  18:C:/Files/Projects/Git/XMCLib/src\xmc4_scu.c ****  * Redistributions in binary form must reproduce the above copyright notice, this list of condition
  19:C:/Files/Projects/Git/XMCLib/src\xmc4_scu.c ****  * disclaimer in the documentation and/or other materials provided with the distribution.          
  20:C:/Files/Projects/Git/XMCLib/src\xmc4_scu.c ****  * 
  21:C:/Files/Projects/Git/XMCLib/src\xmc4_scu.c ****  * Neither the name of the copyright holders nor the names of its contributors may be used to endor
  22:C:/Files/Projects/Git/XMCLib/src\xmc4_scu.c ****  * products derived from this software without specific prior written permission.                  
  23:C:/Files/Projects/Git/XMCLib/src\xmc4_scu.c ****  *                                                                              
  24:C:/Files/Projects/Git/XMCLib/src\xmc4_scu.c ****  * THIS SOFTWARE IS PROVIDED BY THE COPYRIGHT HOLDERS AND CONTRIBUTORS "AS IS" AND ANY EXPRESS OR I
  25:C:/Files/Projects/Git/XMCLib/src\xmc4_scu.c ****  * INCLUDING, BUT NOT LIMITED TO, THE IMPLIED WARRANTIES OF MERCHANTABILITY AND FITNESS FOR A PARTI
  26:C:/Files/Projects/Git/XMCLib/src\xmc4_scu.c ****  * DISCLAIMED. IN NO EVENT SHALL THE COPYRIGHT HOLDER OR CONTRIBUTORS BE LIABLE  FOR ANY DIRECT, IN
  27:C:/Files/Projects/Git/XMCLib/src\xmc4_scu.c ****  * SPECIAL, EXEMPLARY, OR CONSEQUENTIAL DAMAGES (INCLUDING, BUT NOT LIMITED TO, PROCUREMENT OF SUBS
  28:C:/Files/Projects/Git/XMCLib/src\xmc4_scu.c ****  * SERVICES; LOSS OF USE, DATA, OR PROFITS; OR BUSINESS INTERRUPTION) HOWEVER CAUSED AND ON ANY THE
  29:C:/Files/Projects/Git/XMCLib/src\xmc4_scu.c ****  * WHETHER IN CONTRACT, STRICT LIABILITY,OR TORT (INCLUDING NEGLIGENCE OR OTHERWISE) ARISING IN ANY
  30:C:/Files/Projects/Git/XMCLib/src\xmc4_scu.c ****  * OF THIS SOFTWARE, EVEN IF ADVISED OF THE POSSIBILITY OF SUCH DAMAGE.                            
  31:C:/Files/Projects/Git/XMCLib/src\xmc4_scu.c ****  *                                                                              
  32:C:/Files/Projects/Git/XMCLib/src\xmc4_scu.c ****  * To improve the quality of the software, users are encouraged to share modifications, enhancement
  33:C:/Files/Projects/Git/XMCLib/src\xmc4_scu.c ****  * Infineon Technologies AG dave@infineon.com).                                                    
  34:C:/Files/Projects/Git/XMCLib/src\xmc4_scu.c ****  **************************************************************************************************
  35:C:/Files/Projects/Git/XMCLib/src\xmc4_scu.c ****  *
  36:C:/Files/Projects/Git/XMCLib/src\xmc4_scu.c ****  * Change History
  37:C:/Files/Projects/Git/XMCLib/src\xmc4_scu.c ****  * --------------
  38:C:/Files/Projects/Git/XMCLib/src\xmc4_scu.c ****  *
  39:C:/Files/Projects/Git/XMCLib/src\xmc4_scu.c ****  * 2015-02-20:
  40:C:/Files/Projects/Git/XMCLib/src\xmc4_scu.c ****  *     - Initial <br>
  41:C:/Files/Projects/Git/XMCLib/src\xmc4_scu.c ****  *      
  42:C:/Files/Projects/Git/XMCLib/src\xmc4_scu.c ****  * 2015-05-20:
  43:C:/Files/Projects/Git/XMCLib/src\xmc4_scu.c ****  *     - XMC_ASSERT() hanging issues have fixed.  <br>
  44:C:/Files/Projects/Git/XMCLib/src\xmc4_scu.c ****  *     - Line indentation aligned with 120 characters. <br>
  45:C:/Files/Projects/Git/XMCLib/src\xmc4_scu.c ****  *     
  46:C:/Files/Projects/Git/XMCLib/src\xmc4_scu.c ****  * 2015-06-20:
  47:C:/Files/Projects/Git/XMCLib/src\xmc4_scu.c ****  *     - XMC_SCU_INTERRUPT_EnableEvent,XMC_SCU_INTERRUPT_DisableEvent,
  48:C:/Files/Projects/Git/XMCLib/src\xmc4_scu.c ****  *     - XMC_SCU_INTERRUPT_TriggerEvent,XMC_SCU_INTERUPT_GetEventStatus,
  49:C:/Files/Projects/Git/XMCLib/src\xmc4_scu.c ****  *     - XMC_SCU_INTERRUPT_ClearEventStatus are added
  50:C:/Files/Projects/Git/XMCLib/src\xmc4_scu.c ****  *     - Added Weak implementation for OSCHP_GetFrequency()
  51:C:/Files/Projects/Git/XMCLib/src\xmc4_scu.c ****  *
  52:C:/Files/Projects/Git/XMCLib/src\xmc4_scu.c ****  * 2015-11-30:
  53:C:/Files/Projects/Git/XMCLib/src\xmc4_scu.c ****  *     - Documentation improved <br>
  54:C:/Files/Projects/Git/XMCLib/src\xmc4_scu.c ****  *     - Following API functionalities are improved
  55:C:/Files/Projects/Git/XMCLib/src\xmc4_scu.c ****  *       XMC_SCU_CLOCK_GatePeripheralClock, XMC_SCU_CLOCK_UngatePeripheralClock, XMC_SCU_CLOCK_IsPe
  56:C:/Files/Projects/Git/XMCLib/src\xmc4_scu.c ****  *       XMC_SCU_RESET_AssertPeripheralReset, XMC_SCU_RESET_DeassertPeripheralReset, XMC_SCU_RESET_
  57:C:/Files/Projects/Git/XMCLib/src\xmc4_scu.c ****  *
  58:C:/Files/Projects/Git/XMCLib/src\xmc4_scu.c ****  * 2015-12-08:
  59:C:/Files/Projects/Git/XMCLib/src\xmc4_scu.c ****  *     - XMC_SCU_GetTemperature renamed to XMC_SCU_GetTemperatureMeasurement
  60:C:/Files/Projects/Git/XMCLib/src\xmc4_scu.c ****  *
  61:C:/Files/Projects/Git/XMCLib/src\xmc4_scu.c ****  * 2016-03-09:
  62:C:/Files/Projects/Git/XMCLib/src\xmc4_scu.c ****  *     - Optimize write only registers
  63:C:/Files/Projects/Git/XMCLib/src\xmc4_scu.c ****  *     - Added XMC_SCU_HIB_SetPinMode
  64:C:/Files/Projects/Git/XMCLib/src\xmc4_scu.c ****  *     - Added XMC_SCU_HIB_GetHibernateControlStatus,
  65:C:/Files/Projects/Git/XMCLib/src\xmc4_scu.c ****  *             XMC_SCU_HIB_GetEventStatus, XMC_SCU_HIB_ClearEventStatus, XMC_SCU_HIB_TriggerEvent, 
  66:C:/Files/Projects/Git/XMCLib/src\xmc4_scu.c ****  *             XMC_SCU_HIB_EnableEvent, XMC_SCU_HIB_DisableEvent
  67:C:/Files/Projects/Git/XMCLib/src\xmc4_scu.c ****  *     - Added XMC_SCU_HIB_SetWakeupTriggerInput, XMC_SCU_HIB_SetPinMode, XMC_SCU_HIB_SetOutputPinL
  68:C:/Files/Projects/Git/XMCLib/src\xmc4_scu.c ****  *             XMC_SCU_HIB_SetInput0, XMC_SCU_HIB_EnterHibernateState
  69:C:/Files/Projects/Git/XMCLib/src\xmc4_scu.c ****  *
  70:C:/Files/Projects/Git/XMCLib/src\xmc4_scu.c ****  * 2016-04-06:
  71:C:/Files/Projects/Git/XMCLib/src\xmc4_scu.c ****  *     - Fixed XMC_SCU_ReadFromRetentionMemory functionality
  72:C:/Files/Projects/Git/XMCLib/src\xmc4_scu.c ****  *
  73:C:/Files/Projects/Git/XMCLib/src\xmc4_scu.c ****  * 2016-05-19:
  74:C:/Files/Projects/Git/XMCLib/src\xmc4_scu.c ****  *     - Changed XMC_SCU_CLOCK_StartSystemPll to avoid using floating point calculation which might
  75:C:/Files/Projects/Git/XMCLib/src\xmc4_scu.c ****  *     - Added XMC_SCU_CLOCK_IsLowPowerOscillatorStable() and XMC_SCU_CLOCK_IsHighPerformanceOscill
  76:C:/Files/Projects/Git/XMCLib/src\xmc4_scu.c ****  *     - Added XMC_SCU_CLOCK_EnableLowPowerOscillatorGeneralPurposeInput(), 
  77:C:/Files/Projects/Git/XMCLib/src\xmc4_scu.c ****  *             XMC_SCU_CLOCK_DisableLowPowerOscillatorGeneralPurposeInput(),
  78:C:/Files/Projects/Git/XMCLib/src\xmc4_scu.c ****  *             XMC_SCU_CLOCK_GetLowPowerOscillatorGeneralPurposeInputStatus()
  79:C:/Files/Projects/Git/XMCLib/src\xmc4_scu.c ****  *     - Added XMC_SCU_CLOCK_EnableHighPerformanceOscillatorGeneralPurposeInput(), 
  80:C:/Files/Projects/Git/XMCLib/src\xmc4_scu.c ****  *             XMC_SCU_CLOCK_DisableHighPerformanceOscillatorGeneralPurposeInput(),
  81:C:/Files/Projects/Git/XMCLib/src\xmc4_scu.c ****  *             XMC_SCU_CLOCK_GetHighPerformanceOscillatorGeneralPurposeInputStatus()
  82:C:/Files/Projects/Git/XMCLib/src\xmc4_scu.c ****  *
  83:C:/Files/Projects/Git/XMCLib/src\xmc4_scu.c ****  * 2016-06-15:
  84:C:/Files/Projects/Git/XMCLib/src\xmc4_scu.c ****  *     - Added XMC_SCU_HIB_EnterHibernateStateEx() which allows to select between external or inter
  85:C:/Files/Projects/Git/XMCLib/src\xmc4_scu.c ****  *     - Extended wakeup hibernate events using LPAC wakeup on events. Only available in XMC44, XMC
  86:C:/Files/Projects/Git/XMCLib/src\xmc4_scu.c ****  *     - Added LPAC APIs. Only available in XMC44, XMC42 and XMC41 series.
  87:C:/Files/Projects/Git/XMCLib/src\xmc4_scu.c ****  *
  88:C:/Files/Projects/Git/XMCLib/src\xmc4_scu.c ****  * 2018-06-21:
  89:C:/Files/Projects/Git/XMCLib/src\xmc4_scu.c ****  *     - Fixed XMC_SCU_HIB_SetSR1Input()
  90:C:/Files/Projects/Git/XMCLib/src\xmc4_scu.c ****  *     - Fixed XMC_SCU_CLOCK_EnableLowPowerOscillator()
  91:C:/Files/Projects/Git/XMCLib/src\xmc4_scu.c ****  *
  92:C:/Files/Projects/Git/XMCLib/src\xmc4_scu.c ****  * @endcond 
  93:C:/Files/Projects/Git/XMCLib/src\xmc4_scu.c ****  *
  94:C:/Files/Projects/Git/XMCLib/src\xmc4_scu.c ****  */
  95:C:/Files/Projects/Git/XMCLib/src\xmc4_scu.c **** 
  96:C:/Files/Projects/Git/XMCLib/src\xmc4_scu.c **** /**
  97:C:/Files/Projects/Git/XMCLib/src\xmc4_scu.c ****  *
  98:C:/Files/Projects/Git/XMCLib/src\xmc4_scu.c ****  * @brief SCU low level driver API prototype definition for XMC4 family of microcontrollers. 
  99:C:/Files/Projects/Git/XMCLib/src\xmc4_scu.c ****  *
 100:C:/Files/Projects/Git/XMCLib/src\xmc4_scu.c ****  * <b>Detailed description of file:</b> <br>
 101:C:/Files/Projects/Git/XMCLib/src\xmc4_scu.c ****  * APIs provided in this file cover the following functional blocks of SCU: <br>
 102:C:/Files/Projects/Git/XMCLib/src\xmc4_scu.c ****  * -- GCU (APIs prefixed with XMC_SCU_GEN_) <br>
 103:C:/Files/Projects/Git/XMCLib/src\xmc4_scu.c ****  * ------ Temperature Monitoring, Bootmode selection, CCU Start, Comparator configuration etc  <br>
 104:C:/Files/Projects/Git/XMCLib/src\xmc4_scu.c ****  * -- CCU (APIs prefixed with XMC_SCU_CLOCK_) <br>
 105:C:/Files/Projects/Git/XMCLib/src\xmc4_scu.c ****  * ------ Clock sources init, Clock tree init, Clock gating, Sleep Management etc <br>
 106:C:/Files/Projects/Git/XMCLib/src\xmc4_scu.c ****  * -- RCU (APIs prefixed with XMC_SCU_RESET_) <br>
 107:C:/Files/Projects/Git/XMCLib/src\xmc4_scu.c ****  * ------ Reset Init, Cause, Manual Reset Assert/Deassert <br>
 108:C:/Files/Projects/Git/XMCLib/src\xmc4_scu.c ****  * -- INTERRUPT (APIs prefixed with XMC_SCU_INTERRUPT_) <br>
 109:C:/Files/Projects/Git/XMCLib/src\xmc4_scu.c ****  * ------ Init, Manual Assert/Deassert, Acknowledge etc <br>
 110:C:/Files/Projects/Git/XMCLib/src\xmc4_scu.c ****  * -- PARITY (APIs prefixed with XMC_SCU_PARITY_) <br>
 111:C:/Files/Projects/Git/XMCLib/src\xmc4_scu.c ****  * ------ Init, Acknowledge etc <br>
 112:C:/Files/Projects/Git/XMCLib/src\xmc4_scu.c ****  * -- HIBERNATION (APIs prefixed with XMC_SCU_HIB_) <br>
 113:C:/Files/Projects/Git/XMCLib/src\xmc4_scu.c ****  * ------ Hibernation entry/exit config, entry/wakeup sequences, LPAC configuration etc <br>
 114:C:/Files/Projects/Git/XMCLib/src\xmc4_scu.c ****  * -- TRAP (APIs prefixed with XMC_SCU_TRAP_) <br>
 115:C:/Files/Projects/Git/XMCLib/src\xmc4_scu.c ****  * ------ Init, Enable/Disable, Acknowledge etc <br>
 116:C:/Files/Projects/Git/XMCLib/src\xmc4_scu.c ****  *
 117:C:/Files/Projects/Git/XMCLib/src\xmc4_scu.c ****  */
 118:C:/Files/Projects/Git/XMCLib/src\xmc4_scu.c **** 
 119:C:/Files/Projects/Git/XMCLib/src\xmc4_scu.c **** /**************************************************************************************************
 120:C:/Files/Projects/Git/XMCLib/src\xmc4_scu.c ****  * HEADER FILES
 121:C:/Files/Projects/Git/XMCLib/src\xmc4_scu.c ****  **************************************************************************************************
 122:C:/Files/Projects/Git/XMCLib/src\xmc4_scu.c **** #include <xmc_scu.h>
 123:C:/Files/Projects/Git/XMCLib/src\xmc4_scu.c **** 
 124:C:/Files/Projects/Git/XMCLib/src\xmc4_scu.c **** #if UC_FAMILY == XMC4
 125:C:/Files/Projects/Git/XMCLib/src\xmc4_scu.c **** 
 126:C:/Files/Projects/Git/XMCLib/src\xmc4_scu.c **** /**************************************************************************************************
 127:C:/Files/Projects/Git/XMCLib/src\xmc4_scu.c ****  * MACROS
 128:C:/Files/Projects/Git/XMCLib/src\xmc4_scu.c ****  **************************************************************************************************
 129:C:/Files/Projects/Git/XMCLib/src\xmc4_scu.c **** #define FOSCREF   (2500000UL)    /**< Oscillator reference frequency (fOSCREF) monitored by Oscilla
 130:C:/Files/Projects/Git/XMCLib/src\xmc4_scu.c **** #define FREQ_1MHZ (1000000UL)    /**< Used during calculation. */
 131:C:/Files/Projects/Git/XMCLib/src\xmc4_scu.c **** 
 132:C:/Files/Projects/Git/XMCLib/src\xmc4_scu.c **** #ifndef OFI_FREQUENCY
 133:C:/Files/Projects/Git/XMCLib/src\xmc4_scu.c **** #define OFI_FREQUENCY (24000000UL)    /**< Fast internal backup clock source. */
 134:C:/Files/Projects/Git/XMCLib/src\xmc4_scu.c **** #endif
 135:C:/Files/Projects/Git/XMCLib/src\xmc4_scu.c **** 
 136:C:/Files/Projects/Git/XMCLib/src\xmc4_scu.c **** #ifndef OSI_FREQUENCY
 137:C:/Files/Projects/Git/XMCLib/src\xmc4_scu.c **** #define OSI_FREQUENCY (32768UL)    /**< Internal slow clock source. */
 138:C:/Files/Projects/Git/XMCLib/src\xmc4_scu.c **** #endif
 139:C:/Files/Projects/Git/XMCLib/src\xmc4_scu.c **** 
 140:C:/Files/Projects/Git/XMCLib/src\xmc4_scu.c **** #ifndef OSCHP_FREQUENCY
 141:C:/Files/Projects/Git/XMCLib/src\xmc4_scu.c **** #define OSCHP_FREQUENCY (12000000U)    /**< External crystal High Precision Oscillator. */
 142:C:/Files/Projects/Git/XMCLib/src\xmc4_scu.c **** #endif
 143:C:/Files/Projects/Git/XMCLib/src\xmc4_scu.c **** 
 144:C:/Files/Projects/Git/XMCLib/src\xmc4_scu.c **** #define XMC_SCU_PLL_PLLSTAT_OSC_USABLE  (SCU_PLL_PLLSTAT_PLLHV_Msk | \
 145:C:/Files/Projects/Git/XMCLib/src\xmc4_scu.c ****                                          SCU_PLL_PLLSTAT_PLLLV_Msk | \
 146:C:/Files/Projects/Git/XMCLib/src\xmc4_scu.c ****                                          SCU_PLL_PLLSTAT_PLLSP_Msk)  /**< Used to verify the OSC fr
 147:C:/Files/Projects/Git/XMCLib/src\xmc4_scu.c ****                                                                           usable or not.*/
 148:C:/Files/Projects/Git/XMCLib/src\xmc4_scu.c **** 
 149:C:/Files/Projects/Git/XMCLib/src\xmc4_scu.c **** #define XMC_SCU_ORC_ADC_START_GROUP    (0UL)    /**< The ADC group whose channel input is compared 
 150:C:/Files/Projects/Git/XMCLib/src\xmc4_scu.c ****                                                      Comparator (ORC) to serves the purpose of over
 151:C:/Files/Projects/Git/XMCLib/src\xmc4_scu.c ****                                                      for analog input pins of the chip and ORC star
 152:C:/Files/Projects/Git/XMCLib/src\xmc4_scu.c ****                                                      this group number. */
 153:C:/Files/Projects/Git/XMCLib/src\xmc4_scu.c **** #define XMC_SCU_ORC_ADC_END_GROUP      (1UL)    /**< The ADC group whose channel input is compared 
 154:C:/Files/Projects/Git/XMCLib/src\xmc4_scu.c ****                                                      Comparator (ORC) to serves the purpose of over
 155:C:/Files/Projects/Git/XMCLib/src\xmc4_scu.c ****                                                      for analog input pins of the chip and ORC end 
 156:C:/Files/Projects/Git/XMCLib/src\xmc4_scu.c ****                                                      this group number. */
 157:C:/Files/Projects/Git/XMCLib/src\xmc4_scu.c **** #define XMC_SCU_ORC_START_ADC_CHANNEL  (6UL)    /**< The ADC channel whose channel input is compare
 158:C:/Files/Projects/Git/XMCLib/src\xmc4_scu.c ****                                                      Comparator (ORC) to serves the purpose of over
 159:C:/Files/Projects/Git/XMCLib/src\xmc4_scu.c ****                                                      for analog input pins of the chip and ORC star
 160:C:/Files/Projects/Git/XMCLib/src\xmc4_scu.c ****                                                      this channel number. */
 161:C:/Files/Projects/Git/XMCLib/src\xmc4_scu.c **** #define XMC_SCU_ORC_END_ADC_CHANNEL    (7UL)    /**< The ADC channel whose channel input is compare
 162:C:/Files/Projects/Git/XMCLib/src\xmc4_scu.c ****                                                      Comparator (ORC) to serves the purpose of over
 163:C:/Files/Projects/Git/XMCLib/src\xmc4_scu.c ****                                                      for analog input pins of the chip and ORC ends
 164:C:/Files/Projects/Git/XMCLib/src\xmc4_scu.c ****                                                      this channel number. */
 165:C:/Files/Projects/Git/XMCLib/src\xmc4_scu.c **** 
 166:C:/Files/Projects/Git/XMCLib/src\xmc4_scu.c **** #define XMC_SCU_CHECK_GRPNUM(GROUP_NUM)   (((GROUP_NUM) == XMC_SCU_ORC_ADC_START_GROUP) || \
 167:C:/Files/Projects/Git/XMCLib/src\xmc4_scu.c ****                                         ((GROUP_NUM) == XMC_SCU_ORC_ADC_END_GROUP) ) /**< Used to v
 168:C:/Files/Projects/Git/XMCLib/src\xmc4_scu.c ****                                                                                       provided ADC 
 169:C:/Files/Projects/Git/XMCLib/src\xmc4_scu.c ****                                                                                       within specif
 170:C:/Files/Projects/Git/XMCLib/src\xmc4_scu.c ****                                                                                       end group num
 171:C:/Files/Projects/Git/XMCLib/src\xmc4_scu.c ****                                         
 172:C:/Files/Projects/Git/XMCLib/src\xmc4_scu.c **** #define XMC_SCU_CHECK_CHNUM(CH_NUM)       (((CH_NUM) == XMC_SCU_ORC_START_ADC_CHANNEL) || \
 173:C:/Files/Projects/Git/XMCLib/src\xmc4_scu.c ****                                         ((CH_NUM) == XMC_SCU_ORC_END_ADC_CHANNEL) )  /**< Used to v
 174:C:/Files/Projects/Git/XMCLib/src\xmc4_scu.c ****                                                                                       provided ADC 
 175:C:/Files/Projects/Git/XMCLib/src\xmc4_scu.c ****                                                                                       within specif
 176:C:/Files/Projects/Git/XMCLib/src\xmc4_scu.c ****                                                                                       end channel n
 177:C:/Files/Projects/Git/XMCLib/src\xmc4_scu.c **** 
 178:C:/Files/Projects/Git/XMCLib/src\xmc4_scu.c **** #define XMC_SCU_INTERRUPT_EVENT_MAX            (32U)      /**< Maximum supported SCU events. */
 179:C:/Files/Projects/Git/XMCLib/src\xmc4_scu.c **** 
 180:C:/Files/Projects/Git/XMCLib/src\xmc4_scu.c **** #define SCU_HIBERNATE_HDCR_HIBIOSEL_Size (4U)
 181:C:/Files/Projects/Git/XMCLib/src\xmc4_scu.c **** 
 182:C:/Files/Projects/Git/XMCLib/src\xmc4_scu.c **** #define SCU_HIBERNATE_OSCULCTRL_MODE_OSC_POWER_DOWN (0x2U)
 183:C:/Files/Projects/Git/XMCLib/src\xmc4_scu.c **** 
 184:C:/Files/Projects/Git/XMCLib/src\xmc4_scu.c **** #define XMC_SCU_POWER_LSB13V (0.0058F)
 185:C:/Files/Projects/Git/XMCLib/src\xmc4_scu.c **** #define XMC_SCU_POWER_LSB33V (0.0225F)
 186:C:/Files/Projects/Git/XMCLib/src\xmc4_scu.c **** 
 187:C:/Files/Projects/Git/XMCLib/src\xmc4_scu.c **** /**************************************************************************************************
 188:C:/Files/Projects/Git/XMCLib/src\xmc4_scu.c ****  * LOCAL DATA
 189:C:/Files/Projects/Git/XMCLib/src\xmc4_scu.c ****  **************************************************************************************************
 190:C:/Files/Projects/Git/XMCLib/src\xmc4_scu.c **** XMC_SCU_INTERRUPT_EVENT_HANDLER_t event_handler_list[XMC_SCU_INTERRUPT_EVENT_MAX]; /**< For registe
 191:C:/Files/Projects/Git/XMCLib/src\xmc4_scu.c ****                                                                                         functions o
 192:C:/Files/Projects/Git/XMCLib/src\xmc4_scu.c ****                                                                                         occurrence.
 193:C:/Files/Projects/Git/XMCLib/src\xmc4_scu.c **** 
 194:C:/Files/Projects/Git/XMCLib/src\xmc4_scu.c **** /**************************************************************************************************
 195:C:/Files/Projects/Git/XMCLib/src\xmc4_scu.c ****  * LOCAL ROUTINES
 196:C:/Files/Projects/Git/XMCLib/src\xmc4_scu.c ****  **************************************************************************************************
 197:C:/Files/Projects/Git/XMCLib/src\xmc4_scu.c ****  #if defined(UC_ID)
 198:C:/Files/Projects/Git/XMCLib/src\xmc4_scu.c **** /* This is a non-weak function, which retrieves high precision external oscillator frequency. */
 199:C:/Files/Projects/Git/XMCLib/src\xmc4_scu.c **** __WEAK uint32_t OSCHP_GetFrequency(void)
 200:C:/Files/Projects/Git/XMCLib/src\xmc4_scu.c **** {
 201:C:/Files/Projects/Git/XMCLib/src\xmc4_scu.c ****   return (OSCHP_FREQUENCY);
 202:C:/Files/Projects/Git/XMCLib/src\xmc4_scu.c **** }
 203:C:/Files/Projects/Git/XMCLib/src\xmc4_scu.c **** #endif
 204:C:/Files/Projects/Git/XMCLib/src\xmc4_scu.c **** 
 205:C:/Files/Projects/Git/XMCLib/src\xmc4_scu.c **** /* This is a local function used to generate the delay until register get updated with new configur
 206:C:/Files/Projects/Git/XMCLib/src\xmc4_scu.c **** static void XMC_SCU_lDelay(uint32_t cycles);
 207:C:/Files/Projects/Git/XMCLib/src\xmc4_scu.c **** 
 208:C:/Files/Projects/Git/XMCLib/src\xmc4_scu.c **** /**************************************************************************************************
 209:C:/Files/Projects/Git/XMCLib/src\xmc4_scu.c ****  * API IMPLEMENTATION
 210:C:/Files/Projects/Git/XMCLib/src\xmc4_scu.c ****  **************************************************************************************************
 211:C:/Files/Projects/Git/XMCLib/src\xmc4_scu.c **** /* This is a local function used to generate the delay until register get updated with new configur
 212:C:/Files/Projects/Git/XMCLib/src\xmc4_scu.c **** void XMC_SCU_lDelay(uint32_t delay)
 213:C:/Files/Projects/Git/XMCLib/src\xmc4_scu.c **** {
  27              	 .loc 1 213 0
  28              	 .cfi_startproc
  29              	 
  30              	 
  31              	.LVL0:
  32 0000 10B5     	 push {r4,lr}
  33              	.LCFI0:
  34              	 .cfi_def_cfa_offset 8
  35              	 .cfi_offset 4,-8
  36              	 .cfi_offset 14,-4
  37 0002 0446     	 mov r4,r0
 214:C:/Files/Projects/Git/XMCLib/src\xmc4_scu.c ****   uint32_t i;
 215:C:/Files/Projects/Git/XMCLib/src\xmc4_scu.c **** 
 216:C:/Files/Projects/Git/XMCLib/src\xmc4_scu.c ****   SystemCoreClockUpdate();
  38              	 .loc 1 216 0
  39 0004 FFF7FEFF 	 bl SystemCoreClockUpdate
  40              	.LVL1:
 217:C:/Files/Projects/Git/XMCLib/src\xmc4_scu.c ****   delay =  delay * (uint32_t)(SystemCoreClock / FREQ_1MHZ);
  41              	 .loc 1 217 0
  42 0008 074B     	 ldr r3,.L6
  43 000a 1B68     	 ldr r3,[r3]
  44 000c 0748     	 ldr r0,.L6+4
  45 000e A0FB0330 	 umull r3,r0,r0,r3
  46 0012 800C     	 lsrs r0,r0,#18
  47 0014 00FB04F0 	 mul r0,r0,r4
  48              	.LVL2:
 218:C:/Files/Projects/Git/XMCLib/src\xmc4_scu.c **** 
 219:C:/Files/Projects/Git/XMCLib/src\xmc4_scu.c ****   for (i = 0U; i < delay; ++i)
  49              	 .loc 1 219 0
  50 0018 20B1     	 cbz r0,.L1
  51 001a 0023     	 movs r3,#0
  52              	.LVL3:
  53              	.L3:
 220:C:/Files/Projects/Git/XMCLib/src\xmc4_scu.c ****   {
 221:C:/Files/Projects/Git/XMCLib/src\xmc4_scu.c ****     __NOP();
  54              	 .loc 1 221 0 discriminator 3
  55              	
  56 001c 00BF     	 nop
  57              	
 219:C:/Files/Projects/Git/XMCLib/src\xmc4_scu.c ****   {
  58              	 .loc 1 219 0 discriminator 3
  59              	 .thumb
  60 001e 0133     	 adds r3,r3,#1
  61              	.LVL4:
  62 0020 8342     	 cmp r3,r0
  63 0022 FBD1     	 bne .L3
  64              	.LVL5:
  65              	.L1:
  66 0024 10BD     	 pop {r4,pc}
  67              	.L7:
  68 0026 00BF     	 .align 2
  69              	.L6:
  70 0028 00000000 	 .word SystemCoreClock
  71 002c 83DE1B43 	 .word 1125899907
  72              	 .cfi_endproc
  73              	.LFE175:
  75              	 .section .text.XMC_SCU_INTERRUPT_EnableEvent,"ax",%progbits
  76              	 .align 2
  77              	 .global XMC_SCU_INTERRUPT_EnableEvent
  78              	 .thumb
  79              	 .thumb_func
  81              	XMC_SCU_INTERRUPT_EnableEvent:
  82              	.LFB176:
 222:C:/Files/Projects/Git/XMCLib/src\xmc4_scu.c ****   }
 223:C:/Files/Projects/Git/XMCLib/src\xmc4_scu.c **** }
 224:C:/Files/Projects/Git/XMCLib/src\xmc4_scu.c **** 
 225:C:/Files/Projects/Git/XMCLib/src\xmc4_scu.c **** /* API to enable the SCU event */
 226:C:/Files/Projects/Git/XMCLib/src\xmc4_scu.c **** void XMC_SCU_INTERRUPT_EnableEvent(const XMC_SCU_INTERRUPT_EVENT_t event)
 227:C:/Files/Projects/Git/XMCLib/src\xmc4_scu.c **** {
  83              	 .loc 1 227 0
  84              	 .cfi_startproc
  85              	 
  86              	 
  87              	 
  88              	.LVL6:
 228:C:/Files/Projects/Git/XMCLib/src\xmc4_scu.c ****   SCU_INTERRUPT->SRMSK |= (uint32_t)event;
  89              	 .loc 1 228 0
  90 0000 024A     	 ldr r2,.L9
  91 0002 9368     	 ldr r3,[r2,#8]
  92 0004 1843     	 orrs r0,r0,r3
  93              	.LVL7:
  94 0006 9060     	 str r0,[r2,#8]
  95 0008 7047     	 bx lr
  96              	.L10:
  97 000a 00BF     	 .align 2
  98              	.L9:
  99 000c 74400050 	 .word 1342193780
 100              	 .cfi_endproc
 101              	.LFE176:
 103              	 .section .text.XMC_SCU_INTERRUPT_DisableEvent,"ax",%progbits
 104              	 .align 2
 105              	 .global XMC_SCU_INTERRUPT_DisableEvent
 106              	 .thumb
 107              	 .thumb_func
 109              	XMC_SCU_INTERRUPT_DisableEvent:
 110              	.LFB177:
 229:C:/Files/Projects/Git/XMCLib/src\xmc4_scu.c **** }
 230:C:/Files/Projects/Git/XMCLib/src\xmc4_scu.c **** 
 231:C:/Files/Projects/Git/XMCLib/src\xmc4_scu.c **** /* API to disable the SCU event */
 232:C:/Files/Projects/Git/XMCLib/src\xmc4_scu.c **** void XMC_SCU_INTERRUPT_DisableEvent(const XMC_SCU_INTERRUPT_EVENT_t event)
 233:C:/Files/Projects/Git/XMCLib/src\xmc4_scu.c **** {
 111              	 .loc 1 233 0
 112              	 .cfi_startproc
 113              	 
 114              	 
 115              	 
 116              	.LVL8:
 234:C:/Files/Projects/Git/XMCLib/src\xmc4_scu.c ****   SCU_INTERRUPT->SRMSK &= (uint32_t)~event;
 117              	 .loc 1 234 0
 118 0000 024A     	 ldr r2,.L12
 119 0002 9368     	 ldr r3,[r2,#8]
 120 0004 23EA0000 	 bic r0,r3,r0
 121              	.LVL9:
 122 0008 9060     	 str r0,[r2,#8]
 123 000a 7047     	 bx lr
 124              	.L13:
 125              	 .align 2
 126              	.L12:
 127 000c 74400050 	 .word 1342193780
 128              	 .cfi_endproc
 129              	.LFE177:
 131              	 .section .text.XMC_SCU_INTERRUPT_TriggerEvent,"ax",%progbits
 132              	 .align 2
 133              	 .global XMC_SCU_INTERRUPT_TriggerEvent
 134              	 .thumb
 135              	 .thumb_func
 137              	XMC_SCU_INTERRUPT_TriggerEvent:
 138              	.LFB178:
 235:C:/Files/Projects/Git/XMCLib/src\xmc4_scu.c **** }
 236:C:/Files/Projects/Git/XMCLib/src\xmc4_scu.c **** 
 237:C:/Files/Projects/Git/XMCLib/src\xmc4_scu.c **** /* API to trigger the SCU event */
 238:C:/Files/Projects/Git/XMCLib/src\xmc4_scu.c **** void XMC_SCU_INTERRUPT_TriggerEvent(const XMC_SCU_INTERRUPT_EVENT_t event)
 239:C:/Files/Projects/Git/XMCLib/src\xmc4_scu.c **** {
 139              	 .loc 1 239 0
 140              	 .cfi_startproc
 141              	 
 142              	 
 143              	 
 144              	.LVL10:
 240:C:/Files/Projects/Git/XMCLib/src\xmc4_scu.c ****   SCU_INTERRUPT->SRSET |= (uint32_t)event;
 145              	 .loc 1 240 0
 146 0000 024A     	 ldr r2,.L15
 147 0002 1369     	 ldr r3,[r2,#16]
 148 0004 1843     	 orrs r0,r0,r3
 149              	.LVL11:
 150 0006 1061     	 str r0,[r2,#16]
 151 0008 7047     	 bx lr
 152              	.L16:
 153 000a 00BF     	 .align 2
 154              	.L15:
 155 000c 74400050 	 .word 1342193780
 156              	 .cfi_endproc
 157              	.LFE178:
 159              	 .section .text.XMC_SCU_INTERUPT_GetEventStatus,"ax",%progbits
 160              	 .align 2
 161              	 .global XMC_SCU_INTERUPT_GetEventStatus
 162              	 .thumb
 163              	 .thumb_func
 165              	XMC_SCU_INTERUPT_GetEventStatus:
 166              	.LFB179:
 241:C:/Files/Projects/Git/XMCLib/src\xmc4_scu.c **** }
 242:C:/Files/Projects/Git/XMCLib/src\xmc4_scu.c **** 
 243:C:/Files/Projects/Git/XMCLib/src\xmc4_scu.c **** /* API to retrieve the SCU event status */
 244:C:/Files/Projects/Git/XMCLib/src\xmc4_scu.c **** XMC_SCU_INTERRUPT_EVENT_t XMC_SCU_INTERUPT_GetEventStatus(void)
 245:C:/Files/Projects/Git/XMCLib/src\xmc4_scu.c **** {
 167              	 .loc 1 245 0
 168              	 .cfi_startproc
 169              	 
 170              	 
 171              	 
 246:C:/Files/Projects/Git/XMCLib/src\xmc4_scu.c ****   return (SCU_INTERRUPT->SRRAW);
 172              	 .loc 1 246 0
 173 0000 014B     	 ldr r3,.L18
 174 0002 5868     	 ldr r0,[r3,#4]
 247:C:/Files/Projects/Git/XMCLib/src\xmc4_scu.c **** }
 175              	 .loc 1 247 0
 176 0004 7047     	 bx lr
 177              	.L19:
 178 0006 00BF     	 .align 2
 179              	.L18:
 180 0008 74400050 	 .word 1342193780
 181              	 .cfi_endproc
 182              	.LFE179:
 184              	 .section .text.XMC_SCU_INTERRUPT_ClearEventStatus,"ax",%progbits
 185              	 .align 2
 186              	 .global XMC_SCU_INTERRUPT_ClearEventStatus
 187              	 .thumb
 188              	 .thumb_func
 190              	XMC_SCU_INTERRUPT_ClearEventStatus:
 191              	.LFB180:
 248:C:/Files/Projects/Git/XMCLib/src\xmc4_scu.c **** 
 249:C:/Files/Projects/Git/XMCLib/src\xmc4_scu.c **** /* API to clear the SCU event status */
 250:C:/Files/Projects/Git/XMCLib/src\xmc4_scu.c **** void XMC_SCU_INTERRUPT_ClearEventStatus(const XMC_SCU_INTERRUPT_EVENT_t event)
 251:C:/Files/Projects/Git/XMCLib/src\xmc4_scu.c **** {
 192              	 .loc 1 251 0
 193              	 .cfi_startproc
 194              	 
 195              	 
 196              	 
 197              	.LVL12:
 252:C:/Files/Projects/Git/XMCLib/src\xmc4_scu.c ****   SCU_INTERRUPT->SRCLR = (uint32_t)event;
 198              	 .loc 1 252 0
 199 0000 014B     	 ldr r3,.L21
 200 0002 D860     	 str r0,[r3,#12]
 201 0004 7047     	 bx lr
 202              	.L22:
 203 0006 00BF     	 .align 2
 204              	.L21:
 205 0008 74400050 	 .word 1342193780
 206              	 .cfi_endproc
 207              	.LFE180:
 209              	 .section .text.XMC_SCU_GetBootMode,"ax",%progbits
 210              	 .align 2
 211              	 .global XMC_SCU_GetBootMode
 212              	 .thumb
 213              	 .thumb_func
 215              	XMC_SCU_GetBootMode:
 216              	.LFB181:
 253:C:/Files/Projects/Git/XMCLib/src\xmc4_scu.c **** }
 254:C:/Files/Projects/Git/XMCLib/src\xmc4_scu.c **** 
 255:C:/Files/Projects/Git/XMCLib/src\xmc4_scu.c **** 
 256:C:/Files/Projects/Git/XMCLib/src\xmc4_scu.c **** /* API to retrieve the currently deployed device bootmode */
 257:C:/Files/Projects/Git/XMCLib/src\xmc4_scu.c **** uint32_t XMC_SCU_GetBootMode(void)
 258:C:/Files/Projects/Git/XMCLib/src\xmc4_scu.c **** {
 217              	 .loc 1 258 0
 218              	 .cfi_startproc
 219              	 
 220              	 
 221              	 
 259:C:/Files/Projects/Git/XMCLib/src\xmc4_scu.c ****   return (uint32_t)(SCU_GENERAL->STCON & SCU_GENERAL_STCON_SWCON_Msk);
 222              	 .loc 1 259 0
 223 0000 024B     	 ldr r3,.L24
 224 0002 1869     	 ldr r0,[r3,#16]
 260:C:/Files/Projects/Git/XMCLib/src\xmc4_scu.c **** }
 225              	 .loc 1 260 0
 226 0004 00F47060 	 and r0,r0,#3840
 227 0008 7047     	 bx lr
 228              	.L25:
 229 000a 00BF     	 .align 2
 230              	.L24:
 231 000c 00400050 	 .word 1342193664
 232              	 .cfi_endproc
 233              	.LFE181:
 235              	 .section .text.XMC_SCU_SetBootMode,"ax",%progbits
 236              	 .align 2
 237              	 .global XMC_SCU_SetBootMode
 238              	 .thumb
 239              	 .thumb_func
 241              	XMC_SCU_SetBootMode:
 242              	.LFB182:
 261:C:/Files/Projects/Git/XMCLib/src\xmc4_scu.c **** 
 262:C:/Files/Projects/Git/XMCLib/src\xmc4_scu.c **** /* API to program a new device bootmode */
 263:C:/Files/Projects/Git/XMCLib/src\xmc4_scu.c **** void XMC_SCU_SetBootMode(const XMC_SCU_BOOTMODE_t bootmode)
 264:C:/Files/Projects/Git/XMCLib/src\xmc4_scu.c **** {
 243              	 .loc 1 264 0
 244              	 .cfi_startproc
 245              	 
 246              	 
 247              	 
 248              	.LVL13:
 265:C:/Files/Projects/Git/XMCLib/src\xmc4_scu.c ****   SCU_GENERAL->STCON = (uint32_t)bootmode;
 249              	 .loc 1 265 0
 250 0000 014B     	 ldr r3,.L27
 251 0002 1861     	 str r0,[r3,#16]
 252 0004 7047     	 bx lr
 253              	.L28:
 254 0006 00BF     	 .align 2
 255              	.L27:
 256 0008 00400050 	 .word 1342193664
 257              	 .cfi_endproc
 258              	.LFE182:
 260              	 .section .text.XMC_SCU_ReadGPR,"ax",%progbits
 261              	 .align 2
 262              	 .global XMC_SCU_ReadGPR
 263              	 .thumb
 264              	 .thumb_func
 266              	XMC_SCU_ReadGPR:
 267              	.LFB183:
 266:C:/Files/Projects/Git/XMCLib/src\xmc4_scu.c **** }
 267:C:/Files/Projects/Git/XMCLib/src\xmc4_scu.c **** 
 268:C:/Files/Projects/Git/XMCLib/src\xmc4_scu.c **** /* API to read from General purpose register */
 269:C:/Files/Projects/Git/XMCLib/src\xmc4_scu.c **** uint32_t XMC_SCU_ReadGPR(const uint32_t index)
 270:C:/Files/Projects/Git/XMCLib/src\xmc4_scu.c **** {
 268              	 .loc 1 270 0
 269              	 .cfi_startproc
 270              	 
 271              	 
 272              	 
 273              	.LVL14:
 271:C:/Files/Projects/Git/XMCLib/src\xmc4_scu.c ****   return (SCU_GENERAL->GPR[index]);
 274              	 .loc 1 271 0
 275 0000 8000     	 lsls r0,r0,#2
 276              	.LVL15:
 277 0002 014B     	 ldr r3,.L30
 278 0004 1858     	 ldr r0,[r3,r0]
 272:C:/Files/Projects/Git/XMCLib/src\xmc4_scu.c **** }
 279              	 .loc 1 272 0
 280 0006 7047     	 bx lr
 281              	.L31:
 282              	 .align 2
 283              	.L30:
 284 0008 2C400050 	 .word 1342193708
 285              	 .cfi_endproc
 286              	.LFE183:
 288              	 .section .text.XMC_SCU_WriteGPR,"ax",%progbits
 289              	 .align 2
 290              	 .global XMC_SCU_WriteGPR
 291              	 .thumb
 292              	 .thumb_func
 294              	XMC_SCU_WriteGPR:
 295              	.LFB184:
 273:C:/Files/Projects/Git/XMCLib/src\xmc4_scu.c **** 
 274:C:/Files/Projects/Git/XMCLib/src\xmc4_scu.c **** /* API to write to GPR */
 275:C:/Files/Projects/Git/XMCLib/src\xmc4_scu.c **** void XMC_SCU_WriteGPR(const uint32_t index, const uint32_t data)
 276:C:/Files/Projects/Git/XMCLib/src\xmc4_scu.c **** {
 296              	 .loc 1 276 0
 297              	 .cfi_startproc
 298              	 
 299              	 
 300              	 
 301              	.LVL16:
 277:C:/Files/Projects/Git/XMCLib/src\xmc4_scu.c ****   SCU_GENERAL->GPR[index] = data;
 302              	 .loc 1 277 0
 303 0000 8000     	 lsls r0,r0,#2
 304              	.LVL17:
 305 0002 014B     	 ldr r3,.L33
 306 0004 1950     	 str r1,[r3,r0]
 307 0006 7047     	 bx lr
 308              	.L34:
 309              	 .align 2
 310              	.L33:
 311 0008 2C400050 	 .word 1342193708
 312              	 .cfi_endproc
 313              	.LFE184:
 315              	 .section .text.XMC_SCU_EnableOutOfRangeComparator,"ax",%progbits
 316              	 .align 2
 317              	 .global XMC_SCU_EnableOutOfRangeComparator
 318              	 .thumb
 319              	 .thumb_func
 321              	XMC_SCU_EnableOutOfRangeComparator:
 322              	.LFB185:
 278:C:/Files/Projects/Git/XMCLib/src\xmc4_scu.c **** }
 279:C:/Files/Projects/Git/XMCLib/src\xmc4_scu.c **** 
 280:C:/Files/Projects/Git/XMCLib/src\xmc4_scu.c **** /* API to enable Out of Range Comparator(ORC) for a desired group and a desired channel input */
 281:C:/Files/Projects/Git/XMCLib/src\xmc4_scu.c **** void XMC_SCU_EnableOutOfRangeComparator(const uint32_t group, const uint32_t channel)
 282:C:/Files/Projects/Git/XMCLib/src\xmc4_scu.c **** {
 323              	 .loc 1 282 0
 324              	 .cfi_startproc
 325              	 
 326              	 
 327              	 
 328              	.LVL18:
 329 0000 8000     	 lsls r0,r0,#2
 330              	.LVL19:
 331 0002 00F1A040 	 add r0,r0,#1342177280
 332 0006 00F58040 	 add r0,r0,#16384
 283:C:/Files/Projects/Git/XMCLib/src\xmc4_scu.c ****   XMC_ASSERT("XMC_SCU_EnableOutOfangeComparator:Wrong Group Number",XMC_SCU_CHECK_GRPNUM(group));
 284:C:/Files/Projects/Git/XMCLib/src\xmc4_scu.c ****   XMC_ASSERT("XMC_SCU_EnableOutOfangeComparator:Wrong Channel Number",XMC_SCU_CHECK_CHNUM(channel))
 285:C:/Files/Projects/Git/XMCLib/src\xmc4_scu.c ****    
 286:C:/Files/Projects/Git/XMCLib/src\xmc4_scu.c ****   SCU_GENERAL->GORCEN[group] |= (uint32_t)(1UL << channel);
 333              	 .loc 1 286 0
 334 000a D0F8A030 	 ldr r3,[r0,#160]
 335 000e 0122     	 movs r2,#1
 336 0010 8A40     	 lsls r2,r2,r1
 337 0012 1343     	 orrs r3,r3,r2
 338 0014 C0F8A030 	 str r3,[r0,#160]
 339 0018 7047     	 bx lr
 340              	 .cfi_endproc
 341              	.LFE185:
 343 001a 00BF     	 .section .text.XMC_SCU_DisableOutOfRangeComparator,"ax",%progbits
 344              	 .align 2
 345              	 .global XMC_SCU_DisableOutOfRangeComparator
 346              	 .thumb
 347              	 .thumb_func
 349              	XMC_SCU_DisableOutOfRangeComparator:
 350              	.LFB186:
 287:C:/Files/Projects/Git/XMCLib/src\xmc4_scu.c **** }
 288:C:/Files/Projects/Git/XMCLib/src\xmc4_scu.c **** 
 289:C:/Files/Projects/Git/XMCLib/src\xmc4_scu.c **** /* API to enable Out of Range Comparator(ORC) for a desired group and a desired channel input */
 290:C:/Files/Projects/Git/XMCLib/src\xmc4_scu.c **** void XMC_SCU_DisableOutOfRangeComparator(const uint32_t group, const uint32_t channel)
 291:C:/Files/Projects/Git/XMCLib/src\xmc4_scu.c **** {
 351              	 .loc 1 291 0
 352              	 .cfi_startproc
 353              	 
 354              	 
 355              	 
 356              	.LVL20:
 357 0000 8000     	 lsls r0,r0,#2
 358              	.LVL21:
 359 0002 00F1A040 	 add r0,r0,#1342177280
 360 0006 00F58040 	 add r0,r0,#16384
 292:C:/Files/Projects/Git/XMCLib/src\xmc4_scu.c ****   XMC_ASSERT("XMC_SCU_DisableOutOfRangeComparator:Wrong Group Number",XMC_SCU_CHECK_GRPNUM(group));
 293:C:/Files/Projects/Git/XMCLib/src\xmc4_scu.c ****   XMC_ASSERT("XMC_SCU_DisableOutOfRangeComparator:Wrong Channel Number",XMC_SCU_CHECK_CHNUM(channel
 294:C:/Files/Projects/Git/XMCLib/src\xmc4_scu.c ****    
 295:C:/Files/Projects/Git/XMCLib/src\xmc4_scu.c ****   SCU_GENERAL->GORCEN[group] &= (uint32_t)~(1UL << channel);
 361              	 .loc 1 295 0
 362 000a D0F8A030 	 ldr r3,[r0,#160]
 363 000e 0122     	 movs r2,#1
 364 0010 8A40     	 lsls r2,r2,r1
 365 0012 23EA0203 	 bic r3,r3,r2
 366 0016 C0F8A030 	 str r3,[r0,#160]
 367 001a 7047     	 bx lr
 368              	 .cfi_endproc
 369              	.LFE186:
 371              	 .section .text.XMC_SCU_CalibrateTemperatureSensor,"ax",%progbits
 372              	 .align 2
 373              	 .global XMC_SCU_CalibrateTemperatureSensor
 374              	 .thumb
 375              	 .thumb_func
 377              	XMC_SCU_CalibrateTemperatureSensor:
 378              	.LFB187:
 296:C:/Files/Projects/Git/XMCLib/src\xmc4_scu.c **** }
 297:C:/Files/Projects/Git/XMCLib/src\xmc4_scu.c **** 
 298:C:/Files/Projects/Git/XMCLib/src\xmc4_scu.c **** /* API to calibrate temperature sensor */
 299:C:/Files/Projects/Git/XMCLib/src\xmc4_scu.c **** void XMC_SCU_CalibrateTemperatureSensor(uint32_t offset, uint32_t gain)
 300:C:/Files/Projects/Git/XMCLib/src\xmc4_scu.c **** {
 379              	 .loc 1 300 0
 380              	 .cfi_startproc
 381              	 
 382              	 
 383              	 
 384              	.LVL22:
 301:C:/Files/Projects/Git/XMCLib/src\xmc4_scu.c ****   SCU_GENERAL->DTSCON = ((uint32_t)(offset << SCU_GENERAL_DTSCON_OFFSET_Pos) |
 302:C:/Files/Projects/Git/XMCLib/src\xmc4_scu.c ****                         (uint32_t)(gain << SCU_GENERAL_DTSCON_GAIN_Pos) |
 385              	 .loc 1 302 0
 386 0000 C902     	 lsls r1,r1,#11
 387              	.LVL23:
 388 0002 41F40801 	 orr r1,r1,#8912896
 303:C:/Files/Projects/Git/XMCLib/src\xmc4_scu.c ****                         (uint32_t)(0x4UL << SCU_GENERAL_DTSCON_REFTRIM_Pos) |
 389              	 .loc 1 303 0
 390 0006 41EA0010 	 orr r0,r1,r0,lsl#4
 391              	.LVL24:
 301:C:/Files/Projects/Git/XMCLib/src\xmc4_scu.c ****   SCU_GENERAL->DTSCON = ((uint32_t)(offset << SCU_GENERAL_DTSCON_OFFSET_Pos) |
 392              	 .loc 1 301 0
 393 000a 024B     	 ldr r3,.L38
 394 000c C3F88C00 	 str r0,[r3,#140]
 395 0010 7047     	 bx lr
 396              	.L39:
 397 0012 00BF     	 .align 2
 398              	.L38:
 399 0014 00400050 	 .word 1342193664
 400              	 .cfi_endproc
 401              	.LFE187:
 403              	 .section .text.XMC_SCU_EnableTemperatureSensor,"ax",%progbits
 404              	 .align 2
 405              	 .global XMC_SCU_EnableTemperatureSensor
 406              	 .thumb
 407              	 .thumb_func
 409              	XMC_SCU_EnableTemperatureSensor:
 410              	.LFB188:
 304:C:/Files/Projects/Git/XMCLib/src\xmc4_scu.c ****                         (uint32_t)(0x8UL << SCU_GENERAL_DTSCON_BGTRIM_Pos));
 305:C:/Files/Projects/Git/XMCLib/src\xmc4_scu.c **** }
 306:C:/Files/Projects/Git/XMCLib/src\xmc4_scu.c **** /* API to enable die temperature measurement by powering the DTS module. */
 307:C:/Files/Projects/Git/XMCLib/src\xmc4_scu.c **** void XMC_SCU_EnableTemperatureSensor(void)
 308:C:/Files/Projects/Git/XMCLib/src\xmc4_scu.c **** {
 411              	 .loc 1 308 0
 412              	 .cfi_startproc
 413              	 
 414              	 
 415              	 
 309:C:/Files/Projects/Git/XMCLib/src\xmc4_scu.c ****   SCU_GENERAL->DTSCON &= (uint32_t)~(SCU_GENERAL_DTSCON_PWD_Msk);
 416              	 .loc 1 309 0
 417 0000 034A     	 ldr r2,.L41
 418 0002 D2F88C30 	 ldr r3,[r2,#140]
 419 0006 23F00103 	 bic r3,r3,#1
 420 000a C2F88C30 	 str r3,[r2,#140]
 421 000e 7047     	 bx lr
 422              	.L42:
 423              	 .align 2
 424              	.L41:
 425 0010 00400050 	 .word 1342193664
 426              	 .cfi_endproc
 427              	.LFE188:
 429              	 .section .text.XMC_SCU_DisableTemperatureSensor,"ax",%progbits
 430              	 .align 2
 431              	 .global XMC_SCU_DisableTemperatureSensor
 432              	 .thumb
 433              	 .thumb_func
 435              	XMC_SCU_DisableTemperatureSensor:
 436              	.LFB189:
 310:C:/Files/Projects/Git/XMCLib/src\xmc4_scu.c **** }
 311:C:/Files/Projects/Git/XMCLib/src\xmc4_scu.c **** 
 312:C:/Files/Projects/Git/XMCLib/src\xmc4_scu.c **** /* API to disable die temperature measurement by powering the DTS module off. */
 313:C:/Files/Projects/Git/XMCLib/src\xmc4_scu.c **** void XMC_SCU_DisableTemperatureSensor(void)
 314:C:/Files/Projects/Git/XMCLib/src\xmc4_scu.c **** {
 437              	 .loc 1 314 0
 438              	 .cfi_startproc
 439              	 
 440              	 
 441              	 
 315:C:/Files/Projects/Git/XMCLib/src\xmc4_scu.c ****   SCU_GENERAL->DTSCON |= (uint32_t)SCU_GENERAL_DTSCON_PWD_Msk;
 442              	 .loc 1 315 0
 443 0000 034A     	 ldr r2,.L44
 444 0002 D2F88C30 	 ldr r3,[r2,#140]
 445 0006 43F00103 	 orr r3,r3,#1
 446 000a C2F88C30 	 str r3,[r2,#140]
 447 000e 7047     	 bx lr
 448              	.L45:
 449              	 .align 2
 450              	.L44:
 451 0010 00400050 	 .word 1342193664
 452              	 .cfi_endproc
 453              	.LFE189:
 455              	 .section .text.XMC_SCU_IsTemperatureSensorEnabled,"ax",%progbits
 456              	 .align 2
 457              	 .global XMC_SCU_IsTemperatureSensorEnabled
 458              	 .thumb
 459              	 .thumb_func
 461              	XMC_SCU_IsTemperatureSensorEnabled:
 462              	.LFB190:
 316:C:/Files/Projects/Git/XMCLib/src\xmc4_scu.c **** }
 317:C:/Files/Projects/Git/XMCLib/src\xmc4_scu.c **** 
 318:C:/Files/Projects/Git/XMCLib/src\xmc4_scu.c **** /* API to provide the die temperature sensor power status. */
 319:C:/Files/Projects/Git/XMCLib/src\xmc4_scu.c **** bool XMC_SCU_IsTemperatureSensorEnabled(void)
 320:C:/Files/Projects/Git/XMCLib/src\xmc4_scu.c **** {
 463              	 .loc 1 320 0
 464              	 .cfi_startproc
 465              	 
 466              	 
 467              	 
 321:C:/Files/Projects/Git/XMCLib/src\xmc4_scu.c ****   return ((SCU_GENERAL->DTSCON & SCU_GENERAL_DTSCON_PWD_Msk) == 0U);
 468              	 .loc 1 321 0
 469 0000 034B     	 ldr r3,.L47
 470 0002 D3F88C00 	 ldr r0,[r3,#140]
 471 0006 80F00100 	 eor r0,r0,#1
 322:C:/Files/Projects/Git/XMCLib/src\xmc4_scu.c **** }
 472              	 .loc 1 322 0
 473 000a 00F00100 	 and r0,r0,#1
 474 000e 7047     	 bx lr
 475              	.L48:
 476              	 .align 2
 477              	.L47:
 478 0010 00400050 	 .word 1342193664
 479              	 .cfi_endproc
 480              	.LFE190:
 482              	 .section .text.XMC_SCU_IsTemperatureSensorReady,"ax",%progbits
 483              	 .align 2
 484              	 .global XMC_SCU_IsTemperatureSensorReady
 485              	 .thumb
 486              	 .thumb_func
 488              	XMC_SCU_IsTemperatureSensorReady:
 489              	.LFB191:
 323:C:/Files/Projects/Git/XMCLib/src\xmc4_scu.c **** 
 324:C:/Files/Projects/Git/XMCLib/src\xmc4_scu.c **** /* API to check if the die temperature sensor is ready to start a measurement. */
 325:C:/Files/Projects/Git/XMCLib/src\xmc4_scu.c **** bool XMC_SCU_IsTemperatureSensorReady(void)
 326:C:/Files/Projects/Git/XMCLib/src\xmc4_scu.c **** {
 490              	 .loc 1 326 0
 491              	 .cfi_startproc
 492              	 
 493              	 
 494              	 
 327:C:/Files/Projects/Git/XMCLib/src\xmc4_scu.c ****   return ((SCU_GENERAL->DTSSTAT & SCU_GENERAL_DTSSTAT_RDY_Msk) != 0U);
 495              	 .loc 1 327 0
 496 0000 024B     	 ldr r3,.L50
 497 0002 D3F89000 	 ldr r0,[r3,#144]
 328:C:/Files/Projects/Git/XMCLib/src\xmc4_scu.c **** }
 498              	 .loc 1 328 0
 499 0006 C0F38030 	 ubfx r0,r0,#14,#1
 500 000a 7047     	 bx lr
 501              	.L51:
 502              	 .align 2
 503              	.L50:
 504 000c 00400050 	 .word 1342193664
 505              	 .cfi_endproc
 506              	.LFE191:
 508              	 .section .text.XMC_SCU_GetTemperatureMeasurement,"ax",%progbits
 509              	 .align 2
 510              	 .global XMC_SCU_GetTemperatureMeasurement
 511              	 .thumb
 512              	 .thumb_func
 514              	XMC_SCU_GetTemperatureMeasurement:
 515              	.LFB193:
 329:C:/Files/Projects/Git/XMCLib/src\xmc4_scu.c **** /* API to start device temperature measurements */
 330:C:/Files/Projects/Git/XMCLib/src\xmc4_scu.c **** XMC_SCU_STATUS_t XMC_SCU_StartTemperatureMeasurement(void)
 331:C:/Files/Projects/Git/XMCLib/src\xmc4_scu.c **** {
 332:C:/Files/Projects/Git/XMCLib/src\xmc4_scu.c ****   XMC_SCU_STATUS_t status = XMC_SCU_STATUS_OK;
 333:C:/Files/Projects/Git/XMCLib/src\xmc4_scu.c **** 
 334:C:/Files/Projects/Git/XMCLib/src\xmc4_scu.c ****   if (XMC_SCU_IsTemperatureSensorEnabled() == false)
 335:C:/Files/Projects/Git/XMCLib/src\xmc4_scu.c ****   {
 336:C:/Files/Projects/Git/XMCLib/src\xmc4_scu.c ****     status = XMC_SCU_STATUS_ERROR;
 337:C:/Files/Projects/Git/XMCLib/src\xmc4_scu.c ****   }
 338:C:/Files/Projects/Git/XMCLib/src\xmc4_scu.c ****    
 339:C:/Files/Projects/Git/XMCLib/src\xmc4_scu.c ****   if (XMC_SCU_IsTemperatureSensorBusy() == true)
 340:C:/Files/Projects/Git/XMCLib/src\xmc4_scu.c ****   {
 341:C:/Files/Projects/Git/XMCLib/src\xmc4_scu.c ****     status = XMC_SCU_STATUS_BUSY;
 342:C:/Files/Projects/Git/XMCLib/src\xmc4_scu.c ****   }
 343:C:/Files/Projects/Git/XMCLib/src\xmc4_scu.c **** 
 344:C:/Files/Projects/Git/XMCLib/src\xmc4_scu.c ****   /* And start the measurement */
 345:C:/Files/Projects/Git/XMCLib/src\xmc4_scu.c ****   SCU_GENERAL->DTSCON |= (uint32_t)SCU_GENERAL_DTSCON_START_Msk;
 346:C:/Files/Projects/Git/XMCLib/src\xmc4_scu.c ****   
 347:C:/Files/Projects/Git/XMCLib/src\xmc4_scu.c ****   return (status);
 348:C:/Files/Projects/Git/XMCLib/src\xmc4_scu.c **** }
 349:C:/Files/Projects/Git/XMCLib/src\xmc4_scu.c **** 
 350:C:/Files/Projects/Git/XMCLib/src\xmc4_scu.c **** /* API to retrieve the temperature measured */
 351:C:/Files/Projects/Git/XMCLib/src\xmc4_scu.c **** uint32_t XMC_SCU_GetTemperatureMeasurement(void)
 352:C:/Files/Projects/Git/XMCLib/src\xmc4_scu.c **** {
 516              	 .loc 1 352 0
 517              	 .cfi_startproc
 518              	 
 519              	 
 520 0000 08B5     	 push {r3,lr}
 521              	.LCFI1:
 522              	 .cfi_def_cfa_offset 8
 523              	 .cfi_offset 3,-8
 524              	 .cfi_offset 14,-4
 353:C:/Files/Projects/Git/XMCLib/src\xmc4_scu.c ****   uint32_t temperature;
 354:C:/Files/Projects/Git/XMCLib/src\xmc4_scu.c **** 
 355:C:/Files/Projects/Git/XMCLib/src\xmc4_scu.c ****   if (XMC_SCU_IsTemperatureSensorEnabled() == false)
 525              	 .loc 1 355 0
 526 0002 FFF7FEFF 	 bl XMC_SCU_IsTemperatureSensorEnabled
 527              	.LVL25:
 528 0006 28B1     	 cbz r0,.L54
 356:C:/Files/Projects/Git/XMCLib/src\xmc4_scu.c ****   {
 357:C:/Files/Projects/Git/XMCLib/src\xmc4_scu.c ****     temperature = 0x7FFFFFFFUL;
 358:C:/Files/Projects/Git/XMCLib/src\xmc4_scu.c ****   }
 359:C:/Files/Projects/Git/XMCLib/src\xmc4_scu.c ****   else
 360:C:/Files/Projects/Git/XMCLib/src\xmc4_scu.c ****   {
 361:C:/Files/Projects/Git/XMCLib/src\xmc4_scu.c ****     temperature = (uint32_t)((SCU_GENERAL->DTSSTAT & SCU_GENERAL_DTSSTAT_RESULT_Msk) >> SCU_GENERAL
 529              	 .loc 1 361 0
 530 0008 044B     	 ldr r3,.L56
 531 000a D3F89000 	 ldr r0,[r3,#144]
 532 000e C0F30900 	 ubfx r0,r0,#0,#10
 533              	.LVL26:
 534 0012 08BD     	 pop {r3,pc}
 535              	.LVL27:
 536              	.L54:
 357:C:/Files/Projects/Git/XMCLib/src\xmc4_scu.c ****   }
 537              	 .loc 1 357 0
 538 0014 6FF00040 	 mvn r0,#-2147483648
 539              	.LVL28:
 362:C:/Files/Projects/Git/XMCLib/src\xmc4_scu.c ****   }
 363:C:/Files/Projects/Git/XMCLib/src\xmc4_scu.c ****   
 364:C:/Files/Projects/Git/XMCLib/src\xmc4_scu.c ****   return ((uint32_t)temperature);
 365:C:/Files/Projects/Git/XMCLib/src\xmc4_scu.c **** }
 540              	 .loc 1 365 0
 541 0018 08BD     	 pop {r3,pc}
 542              	.L57:
 543 001a 00BF     	 .align 2
 544              	.L56:
 545 001c 00400050 	 .word 1342193664
 546              	 .cfi_endproc
 547              	.LFE193:
 549              	 .section .text.XMC_SCU_IsTemperatureSensorBusy,"ax",%progbits
 550              	 .align 2
 551              	 .global XMC_SCU_IsTemperatureSensorBusy
 552              	 .thumb
 553              	 .thumb_func
 555              	XMC_SCU_IsTemperatureSensorBusy:
 556              	.LFB194:
 366:C:/Files/Projects/Git/XMCLib/src\xmc4_scu.c **** 
 367:C:/Files/Projects/Git/XMCLib/src\xmc4_scu.c **** /* API to know whether Die temperature sensor is busy */
 368:C:/Files/Projects/Git/XMCLib/src\xmc4_scu.c **** bool XMC_SCU_IsTemperatureSensorBusy(void)
 369:C:/Files/Projects/Git/XMCLib/src\xmc4_scu.c **** {
 557              	 .loc 1 369 0
 558              	 .cfi_startproc
 559              	 
 560              	 
 561              	 
 370:C:/Files/Projects/Git/XMCLib/src\xmc4_scu.c ****   return ((SCU_GENERAL->DTSSTAT & SCU_GENERAL_DTSSTAT_BUSY_Msk) != 0U);
 562              	 .loc 1 370 0
 563 0000 024B     	 ldr r3,.L59
 564 0002 D3F89000 	 ldr r0,[r3,#144]
 371:C:/Files/Projects/Git/XMCLib/src\xmc4_scu.c **** }
 565              	 .loc 1 371 0
 566 0006 C0F3C030 	 ubfx r0,r0,#15,#1
 567 000a 7047     	 bx lr
 568              	.L60:
 569              	 .align 2
 570              	.L59:
 571 000c 00400050 	 .word 1342193664
 572              	 .cfi_endproc
 573              	.LFE194:
 575              	 .section .text.XMC_SCU_StartTemperatureMeasurement,"ax",%progbits
 576              	 .align 2
 577              	 .global XMC_SCU_StartTemperatureMeasurement
 578              	 .thumb
 579              	 .thumb_func
 581              	XMC_SCU_StartTemperatureMeasurement:
 582              	.LFB192:
 331:C:/Files/Projects/Git/XMCLib/src\xmc4_scu.c ****   XMC_SCU_STATUS_t status = XMC_SCU_STATUS_OK;
 583              	 .loc 1 331 0
 584              	 .cfi_startproc
 585              	 
 586              	 
 587 0000 10B5     	 push {r4,lr}
 588              	.LCFI2:
 589              	 .cfi_def_cfa_offset 8
 590              	 .cfi_offset 4,-8
 591              	 .cfi_offset 14,-4
 592              	.LVL29:
 334:C:/Files/Projects/Git/XMCLib/src\xmc4_scu.c ****   {
 593              	 .loc 1 334 0
 594 0002 FFF7FEFF 	 bl XMC_SCU_IsTemperatureSensorEnabled
 595              	.LVL30:
 596 0006 0446     	 mov r4,r0
 597              	.LVL31:
 339:C:/Files/Projects/Git/XMCLib/src\xmc4_scu.c ****   {
 598              	 .loc 1 339 0
 599 0008 FFF7FEFF 	 bl XMC_SCU_IsTemperatureSensorBusy
 600              	.LVL32:
 601 000c 18B9     	 cbnz r0,.L63
 334:C:/Files/Projects/Git/XMCLib/src\xmc4_scu.c ****   {
 602              	 .loc 1 334 0
 603 000e 84F00100 	 eor r0,r4,#1
 332:C:/Files/Projects/Git/XMCLib/src\xmc4_scu.c **** 
 604              	 .loc 1 332 0
 605 0012 C0B2     	 uxtb r0,r0
 606 0014 00E0     	 b .L62
 607              	.L63:
 341:C:/Files/Projects/Git/XMCLib/src\xmc4_scu.c ****   }
 608              	 .loc 1 341 0
 609 0016 0220     	 movs r0,#2
 610              	.L62:
 611              	.LVL33:
 345:C:/Files/Projects/Git/XMCLib/src\xmc4_scu.c ****   
 612              	 .loc 1 345 0
 613 0018 034A     	 ldr r2,.L65
 614 001a D2F88C30 	 ldr r3,[r2,#140]
 615 001e 43F00203 	 orr r3,r3,#2
 616 0022 C2F88C30 	 str r3,[r2,#140]
 348:C:/Files/Projects/Git/XMCLib/src\xmc4_scu.c **** 
 617              	 .loc 1 348 0
 618 0026 10BD     	 pop {r4,pc}
 619              	.L66:
 620              	 .align 2
 621              	.L65:
 622 0028 00400050 	 .word 1342193664
 623              	 .cfi_endproc
 624              	.LFE192:
 626              	 .section .text.XMC_SCU_WriteToRetentionMemory,"ax",%progbits
 627              	 .align 2
 628              	 .global XMC_SCU_WriteToRetentionMemory
 629              	 .thumb
 630              	 .thumb_func
 632              	XMC_SCU_WriteToRetentionMemory:
 633              	.LFB195:
 372:C:/Files/Projects/Git/XMCLib/src\xmc4_scu.c **** 
 373:C:/Files/Projects/Git/XMCLib/src\xmc4_scu.c **** 
 374:C:/Files/Projects/Git/XMCLib/src\xmc4_scu.c **** #if defined(SCU_GENERAL_DTEMPLIM_LOWER_Msk) && defined(SCU_GENERAL_DTEMPLIM_UPPER_Msk)
 375:C:/Files/Projects/Git/XMCLib/src\xmc4_scu.c **** /* API to determine if device temperature has gone past the ceiling */
 376:C:/Files/Projects/Git/XMCLib/src\xmc4_scu.c **** bool XMC_SCU_HighTemperature(void)
 377:C:/Files/Projects/Git/XMCLib/src\xmc4_scu.c **** {
 378:C:/Files/Projects/Git/XMCLib/src\xmc4_scu.c ****   bool ret_val;
 379:C:/Files/Projects/Git/XMCLib/src\xmc4_scu.c ****   uint32_t   dtscon;
 380:C:/Files/Projects/Git/XMCLib/src\xmc4_scu.c ****   uint32_t   dtempalarm;
 381:C:/Files/Projects/Git/XMCLib/src\xmc4_scu.c ****   dtscon = SCU_GENERAL->DTSCON;
 382:C:/Files/Projects/Git/XMCLib/src\xmc4_scu.c ****   dtscon = dtscon & SCU_GENERAL_DTSCON_PWD_Msk;
 383:C:/Files/Projects/Git/XMCLib/src\xmc4_scu.c **** 
 384:C:/Files/Projects/Git/XMCLib/src\xmc4_scu.c ****   ret_val = false;
 385:C:/Files/Projects/Git/XMCLib/src\xmc4_scu.c **** 
 386:C:/Files/Projects/Git/XMCLib/src\xmc4_scu.c ****   /* Any audit makes sense only if the DTS were powered up */  
 387:C:/Files/Projects/Git/XMCLib/src\xmc4_scu.c ****   if(dtscon)
 388:C:/Files/Projects/Git/XMCLib/src\xmc4_scu.c ****   {
 389:C:/Files/Projects/Git/XMCLib/src\xmc4_scu.c ****     /* Powered down - return false */
 390:C:/Files/Projects/Git/XMCLib/src\xmc4_scu.c ****     ret_val = false;
 391:C:/Files/Projects/Git/XMCLib/src\xmc4_scu.c ****   }
 392:C:/Files/Projects/Git/XMCLib/src\xmc4_scu.c ****   else
 393:C:/Files/Projects/Git/XMCLib/src\xmc4_scu.c ****   {
 394:C:/Files/Projects/Git/XMCLib/src\xmc4_scu.c ****     /* Powered up - Read the overflow bit and decide accordingly*/
 395:C:/Files/Projects/Git/XMCLib/src\xmc4_scu.c ****     dtempalarm = SCU_GENERAL->DTEMPALARM;
 396:C:/Files/Projects/Git/XMCLib/src\xmc4_scu.c ****     dtempalarm = dtempalarm & SCU_GENERAL_DTEMPALARM_OVERFL_Msk;
 397:C:/Files/Projects/Git/XMCLib/src\xmc4_scu.c ****     
 398:C:/Files/Projects/Git/XMCLib/src\xmc4_scu.c ****     if(dtempalarm)
 399:C:/Files/Projects/Git/XMCLib/src\xmc4_scu.c ****     {
 400:C:/Files/Projects/Git/XMCLib/src\xmc4_scu.c ****       ret_val = true;
 401:C:/Files/Projects/Git/XMCLib/src\xmc4_scu.c ****     }
 402:C:/Files/Projects/Git/XMCLib/src\xmc4_scu.c ****     else
 403:C:/Files/Projects/Git/XMCLib/src\xmc4_scu.c ****     {
 404:C:/Files/Projects/Git/XMCLib/src\xmc4_scu.c ****       ret_val = false;
 405:C:/Files/Projects/Git/XMCLib/src\xmc4_scu.c ****     }
 406:C:/Files/Projects/Git/XMCLib/src\xmc4_scu.c ****   }
 407:C:/Files/Projects/Git/XMCLib/src\xmc4_scu.c ****   return (ret_val);
 408:C:/Files/Projects/Git/XMCLib/src\xmc4_scu.c **** }
 409:C:/Files/Projects/Git/XMCLib/src\xmc4_scu.c **** 
 410:C:/Files/Projects/Git/XMCLib/src\xmc4_scu.c **** /* API to program raw values of temperature limits into the DTS */
 411:C:/Files/Projects/Git/XMCLib/src\xmc4_scu.c **** void XMC_SCU_SetRawTempLimits(const uint32_t lower_temp, const uint32_t upper_temp)
 412:C:/Files/Projects/Git/XMCLib/src\xmc4_scu.c **** {
 413:C:/Files/Projects/Git/XMCLib/src\xmc4_scu.c ****   /* Power up the DTS module */
 414:C:/Files/Projects/Git/XMCLib/src\xmc4_scu.c ****   SCU_GENERAL->DTSCON &= (uint32_t)~SCU_GENERAL_DTSCON_PWD_Msk;
 415:C:/Files/Projects/Git/XMCLib/src\xmc4_scu.c ****   SCU_GENERAL->DTEMPLIM = 0;
 416:C:/Files/Projects/Git/XMCLib/src\xmc4_scu.c ****   SCU_GENERAL->DTEMPLIM = (lower_temp & SCU_GENERAL_DTEMPLIM_LOWER_Msk);
 417:C:/Files/Projects/Git/XMCLib/src\xmc4_scu.c ****   SCU_GENERAL->DTEMPLIM |= (uint32_t)((upper_temp & SCU_GENERAL_DTEMPLIM_LOWER_Msk) << SCU_GENERAL_
 418:C:/Files/Projects/Git/XMCLib/src\xmc4_scu.c **** }
 419:C:/Files/Projects/Git/XMCLib/src\xmc4_scu.c **** 
 420:C:/Files/Projects/Git/XMCLib/src\xmc4_scu.c **** /* API to determine if device temperature has gone below the stipulated limit */
 421:C:/Files/Projects/Git/XMCLib/src\xmc4_scu.c **** bool XMC_SCU_LowTemperature(void)
 422:C:/Files/Projects/Git/XMCLib/src\xmc4_scu.c **** {
 423:C:/Files/Projects/Git/XMCLib/src\xmc4_scu.c ****   bool ret_val;
 424:C:/Files/Projects/Git/XMCLib/src\xmc4_scu.c ****   uint32_t   dtscon;
 425:C:/Files/Projects/Git/XMCLib/src\xmc4_scu.c ****   uint32_t   dtempalarm;
 426:C:/Files/Projects/Git/XMCLib/src\xmc4_scu.c ****   dtscon = SCU_GENERAL->DTSCON;
 427:C:/Files/Projects/Git/XMCLib/src\xmc4_scu.c ****   dtscon = dtscon & SCU_GENERAL_DTSCON_PWD_Msk;
 428:C:/Files/Projects/Git/XMCLib/src\xmc4_scu.c **** 
 429:C:/Files/Projects/Git/XMCLib/src\xmc4_scu.c ****   ret_val = false;
 430:C:/Files/Projects/Git/XMCLib/src\xmc4_scu.c **** 
 431:C:/Files/Projects/Git/XMCLib/src\xmc4_scu.c ****   /* Any audit makes sense only if the DTS were powered up */  
 432:C:/Files/Projects/Git/XMCLib/src\xmc4_scu.c ****   if(dtscon)
 433:C:/Files/Projects/Git/XMCLib/src\xmc4_scu.c ****   {
 434:C:/Files/Projects/Git/XMCLib/src\xmc4_scu.c ****     /* Powered down - return false */
 435:C:/Files/Projects/Git/XMCLib/src\xmc4_scu.c ****     ret_val = false;
 436:C:/Files/Projects/Git/XMCLib/src\xmc4_scu.c ****   }
 437:C:/Files/Projects/Git/XMCLib/src\xmc4_scu.c ****   else
 438:C:/Files/Projects/Git/XMCLib/src\xmc4_scu.c ****   {
 439:C:/Files/Projects/Git/XMCLib/src\xmc4_scu.c ****     /* Powered up - Read the overflow bit and decide accordingly*/
 440:C:/Files/Projects/Git/XMCLib/src\xmc4_scu.c ****     dtempalarm = SCU_GENERAL->DTEMPALARM;
 441:C:/Files/Projects/Git/XMCLib/src\xmc4_scu.c ****     dtempalarm = dtempalarm & SCU_GENERAL_DTEMPALARM_UNDERFL_Msk;
 442:C:/Files/Projects/Git/XMCLib/src\xmc4_scu.c ****     
 443:C:/Files/Projects/Git/XMCLib/src\xmc4_scu.c ****     if(dtempalarm)
 444:C:/Files/Projects/Git/XMCLib/src\xmc4_scu.c ****     {
 445:C:/Files/Projects/Git/XMCLib/src\xmc4_scu.c ****       ret_val = true;
 446:C:/Files/Projects/Git/XMCLib/src\xmc4_scu.c ****     }
 447:C:/Files/Projects/Git/XMCLib/src\xmc4_scu.c ****     else
 448:C:/Files/Projects/Git/XMCLib/src\xmc4_scu.c ****     {
 449:C:/Files/Projects/Git/XMCLib/src\xmc4_scu.c ****       ret_val = false;
 450:C:/Files/Projects/Git/XMCLib/src\xmc4_scu.c ****     }
 451:C:/Files/Projects/Git/XMCLib/src\xmc4_scu.c ****   }
 452:C:/Files/Projects/Git/XMCLib/src\xmc4_scu.c ****   
 453:C:/Files/Projects/Git/XMCLib/src\xmc4_scu.c ****   return (ret_val);
 454:C:/Files/Projects/Git/XMCLib/src\xmc4_scu.c **** }
 455:C:/Files/Projects/Git/XMCLib/src\xmc4_scu.c **** #endif  
 456:C:/Files/Projects/Git/XMCLib/src\xmc4_scu.c **** 
 457:C:/Files/Projects/Git/XMCLib/src\xmc4_scu.c **** /* API to write into Retention memory in hibernate domain */
 458:C:/Files/Projects/Git/XMCLib/src\xmc4_scu.c **** void XMC_SCU_WriteToRetentionMemory(uint32_t address, uint32_t data)
 459:C:/Files/Projects/Git/XMCLib/src\xmc4_scu.c **** {
 634              	 .loc 1 459 0
 635              	 .cfi_startproc
 636              	 
 637              	 
 638              	 
 639              	.LVL34:
 460:C:/Files/Projects/Git/XMCLib/src\xmc4_scu.c ****   uint32_t rmacr;
 461:C:/Files/Projects/Git/XMCLib/src\xmc4_scu.c ****   
 462:C:/Files/Projects/Git/XMCLib/src\xmc4_scu.c ****   /* Get the address right */  
 463:C:/Files/Projects/Git/XMCLib/src\xmc4_scu.c ****   rmacr = (uint32_t)((address << SCU_GENERAL_RMACR_ADDR_Pos) & (uint32_t)SCU_GENERAL_RMACR_ADDR_Msk
 640              	 .loc 1 463 0
 641 0000 0004     	 lsls r0,r0,#16
 642              	.LVL35:
 643 0002 00F47020 	 and r0,r0,#983040
 644              	.LVL36:
 464:C:/Files/Projects/Git/XMCLib/src\xmc4_scu.c ****   
 465:C:/Files/Projects/Git/XMCLib/src\xmc4_scu.c ****   /* Transfer from RMDATA to Retention memory */
 466:C:/Files/Projects/Git/XMCLib/src\xmc4_scu.c ****   rmacr |= (uint32_t)(SCU_GENERAL_RMACR_RDWR_Msk);
 645              	 .loc 1 466 0
 646 0006 40F00100 	 orr r0,r0,#1
 647              	.LVL37:
 467:C:/Files/Projects/Git/XMCLib/src\xmc4_scu.c ****   
 468:C:/Files/Projects/Git/XMCLib/src\xmc4_scu.c ****   /* Write desired data into RMDATA register */  
 469:C:/Files/Projects/Git/XMCLib/src\xmc4_scu.c ****   SCU_GENERAL->RMDATA = data;
 648              	 .loc 1 469 0
 649 000a 064B     	 ldr r3,.L70
 650 000c C3F8CC10 	 str r1,[r3,#204]
 470:C:/Files/Projects/Git/XMCLib/src\xmc4_scu.c ****   
 471:C:/Files/Projects/Git/XMCLib/src\xmc4_scu.c ****   /* Write address & direction of transfer into RMACR register */  
 472:C:/Files/Projects/Git/XMCLib/src\xmc4_scu.c ****   SCU_GENERAL->RMACR = rmacr;
 651              	 .loc 1 472 0
 652 0010 C3F8C800 	 str r0,[r3,#200]
 473:C:/Files/Projects/Git/XMCLib/src\xmc4_scu.c ****   
 474:C:/Files/Projects/Git/XMCLib/src\xmc4_scu.c ****   /* Wait until the update of RMX register in hibernate domain is completed */
 475:C:/Files/Projects/Git/XMCLib/src\xmc4_scu.c ****   while((SCU_GENERAL->MIRRSTS) & SCU_GENERAL_MIRRSTS_RMX_Msk)
 653              	 .loc 1 475 0
 654 0014 1A46     	 mov r2,r3
 655              	.L68:
 656              	 .loc 1 475 0 is_stmt 0 discriminator 1
 657 0016 D2F8C430 	 ldr r3,[r2,#196]
 658 001a 13F4005F 	 tst r3,#8192
 659 001e FAD1     	 bne .L68
 476:C:/Files/Projects/Git/XMCLib/src\xmc4_scu.c ****   {
 477:C:/Files/Projects/Git/XMCLib/src\xmc4_scu.c ****   }
 478:C:/Files/Projects/Git/XMCLib/src\xmc4_scu.c **** }
 660              	 .loc 1 478 0 is_stmt 1
 661 0020 7047     	 bx lr
 662              	.L71:
 663 0022 00BF     	 .align 2
 664              	.L70:
 665 0024 00400050 	 .word 1342193664
 666              	 .cfi_endproc
 667              	.LFE195:
 669              	 .section .text.XMC_SCU_ReadFromRetentionMemory,"ax",%progbits
 670              	 .align 2
 671              	 .global XMC_SCU_ReadFromRetentionMemory
 672              	 .thumb
 673              	 .thumb_func
 675              	XMC_SCU_ReadFromRetentionMemory:
 676              	.LFB196:
 479:C:/Files/Projects/Git/XMCLib/src\xmc4_scu.c **** 
 480:C:/Files/Projects/Git/XMCLib/src\xmc4_scu.c **** /* API to read from Retention memory in hibernate domain */
 481:C:/Files/Projects/Git/XMCLib/src\xmc4_scu.c **** uint32_t XMC_SCU_ReadFromRetentionMemory(uint32_t address)
 482:C:/Files/Projects/Git/XMCLib/src\xmc4_scu.c **** {
 677              	 .loc 1 482 0
 678              	 .cfi_startproc
 679              	 
 680              	 
 681              	 
 682              	.LVL38:
 483:C:/Files/Projects/Git/XMCLib/src\xmc4_scu.c ****   uint32_t rmacr;
 484:C:/Files/Projects/Git/XMCLib/src\xmc4_scu.c **** 
 485:C:/Files/Projects/Git/XMCLib/src\xmc4_scu.c ****   /* Get the address right */  
 486:C:/Files/Projects/Git/XMCLib/src\xmc4_scu.c ****   rmacr = ((uint32_t)(address << SCU_GENERAL_RMACR_ADDR_Pos) & (uint32_t)SCU_GENERAL_RMACR_ADDR_Msk
 683              	 .loc 1 486 0
 684 0000 0004     	 lsls r0,r0,#16
 685              	.LVL39:
 487:C:/Files/Projects/Git/XMCLib/src\xmc4_scu.c ****   
 488:C:/Files/Projects/Git/XMCLib/src\xmc4_scu.c ****   /* Transfer from RMDATA to Retention memory */
 489:C:/Files/Projects/Git/XMCLib/src\xmc4_scu.c ****   rmacr &= ~((uint32_t)(SCU_GENERAL_RMACR_RDWR_Msk));
 686              	 .loc 1 489 0
 687 0002 00F47020 	 and r0,r0,#983040
 688              	.LVL40:
 490:C:/Files/Projects/Git/XMCLib/src\xmc4_scu.c ****   
 491:C:/Files/Projects/Git/XMCLib/src\xmc4_scu.c ****   /* Writing an adress & direction of transfer into RMACR register */  
 492:C:/Files/Projects/Git/XMCLib/src\xmc4_scu.c ****   SCU_GENERAL->RMACR = rmacr;
 689              	 .loc 1 492 0
 690 0006 064B     	 ldr r3,.L75
 691 0008 C3F8C800 	 str r0,[r3,#200]
 493:C:/Files/Projects/Git/XMCLib/src\xmc4_scu.c ****   
 494:C:/Files/Projects/Git/XMCLib/src\xmc4_scu.c ****   /* Wait until the update of RMX register in hibernate domain is completed */
 495:C:/Files/Projects/Git/XMCLib/src\xmc4_scu.c ****   while((SCU_GENERAL->MIRRSTS) & SCU_GENERAL_MIRRSTS_RMX_Msk)
 692              	 .loc 1 495 0
 693 000c 1A46     	 mov r2,r3
 694              	.L73:
 695              	 .loc 1 495 0 is_stmt 0 discriminator 1
 696 000e D2F8C430 	 ldr r3,[r2,#196]
 697 0012 13F4005F 	 tst r3,#8192
 698 0016 FAD1     	 bne .L73
 496:C:/Files/Projects/Git/XMCLib/src\xmc4_scu.c ****   {
 497:C:/Files/Projects/Git/XMCLib/src\xmc4_scu.c ****   }
 498:C:/Files/Projects/Git/XMCLib/src\xmc4_scu.c **** 
 499:C:/Files/Projects/Git/XMCLib/src\xmc4_scu.c ****   return (SCU_GENERAL->RMDATA);
 699              	 .loc 1 499 0 is_stmt 1
 700 0018 014B     	 ldr r3,.L75
 701 001a D3F8CC00 	 ldr r0,[r3,#204]
 702              	.LVL41:
 500:C:/Files/Projects/Git/XMCLib/src\xmc4_scu.c **** }
 703              	 .loc 1 500 0
 704 001e 7047     	 bx lr
 705              	.L76:
 706              	 .align 2
 707              	.L75:
 708 0020 00400050 	 .word 1342193664
 709              	 .cfi_endproc
 710              	.LFE196:
 712              	 .section .text.XMC_SCU_TRAP_Enable,"ax",%progbits
 713              	 .align 2
 714              	 .global XMC_SCU_TRAP_Enable
 715              	 .thumb
 716              	 .thumb_func
 718              	XMC_SCU_TRAP_Enable:
 719              	.LFB198:
 501:C:/Files/Projects/Git/XMCLib/src\xmc4_scu.c **** 
 502:C:/Files/Projects/Git/XMCLib/src\xmc4_scu.c **** /* API to initialize the clock tree */
 503:C:/Files/Projects/Git/XMCLib/src\xmc4_scu.c **** void XMC_SCU_CLOCK_Init(const XMC_SCU_CLOCK_CONFIG_t *const config)
 504:C:/Files/Projects/Git/XMCLib/src\xmc4_scu.c **** {
 505:C:/Files/Projects/Git/XMCLib/src\xmc4_scu.c ****   XMC_ASSERT("", config->fsys_clkdiv != 0);
 506:C:/Files/Projects/Git/XMCLib/src\xmc4_scu.c ****   XMC_ASSERT("", config->fcpu_clkdiv != 0);
 507:C:/Files/Projects/Git/XMCLib/src\xmc4_scu.c ****   XMC_ASSERT("", config->fccu_clkdiv != 0);
 508:C:/Files/Projects/Git/XMCLib/src\xmc4_scu.c ****   XMC_ASSERT("", config->fperipheral_clkdiv != 0);
 509:C:/Files/Projects/Git/XMCLib/src\xmc4_scu.c ****   XMC_ASSERT("", ((config->syspll_config.p_div != 0) &&
 510:C:/Files/Projects/Git/XMCLib/src\xmc4_scu.c ****                   (config->syspll_config.mode == XMC_SCU_CLOCK_SYSPLL_MODE_NORMAL)) ||
 511:C:/Files/Projects/Git/XMCLib/src\xmc4_scu.c ****                   (config->syspll_config.mode == XMC_SCU_CLOCK_SYSPLL_MODE_PRESCALAR));
 512:C:/Files/Projects/Git/XMCLib/src\xmc4_scu.c ****   XMC_ASSERT("", ((config->syspll_config.n_div != 0) &&
 513:C:/Files/Projects/Git/XMCLib/src\xmc4_scu.c ****                   (config->syspll_config.mode == XMC_SCU_CLOCK_SYSPLL_MODE_NORMAL)) ||
 514:C:/Files/Projects/Git/XMCLib/src\xmc4_scu.c ****                   (config->syspll_config.mode == XMC_SCU_CLOCK_SYSPLL_MODE_PRESCALAR));
 515:C:/Files/Projects/Git/XMCLib/src\xmc4_scu.c ****   XMC_ASSERT("", (config->syspll_config.k_div != 0) &&
 516:C:/Files/Projects/Git/XMCLib/src\xmc4_scu.c ****                  ((config->syspll_config.mode == XMC_SCU_CLOCK_SYSPLL_MODE_NORMAL) ||
 517:C:/Files/Projects/Git/XMCLib/src\xmc4_scu.c ****                   (config->syspll_config.mode == XMC_SCU_CLOCK_SYSPLL_MODE_PRESCALAR)));
 518:C:/Files/Projects/Git/XMCLib/src\xmc4_scu.c ****   XMC_ASSERT("", ((config->fsys_clksrc == XMC_SCU_CLOCK_SYSCLKSRC_PLL) ||
 519:C:/Files/Projects/Git/XMCLib/src\xmc4_scu.c ****                  (config->fsys_clksrc == XMC_SCU_CLOCK_SYSCLKSRC_OFI)) &&
 520:C:/Files/Projects/Git/XMCLib/src\xmc4_scu.c ****                  ((config->syspll_config.mode == XMC_SCU_CLOCK_SYSPLL_MODE_NORMAL) ||
 521:C:/Files/Projects/Git/XMCLib/src\xmc4_scu.c ****                   (config->syspll_config.mode == XMC_SCU_CLOCK_SYSPLL_MODE_PRESCALAR)));
 522:C:/Files/Projects/Git/XMCLib/src\xmc4_scu.c ****   XMC_ASSERT("", ((config->fstdby_clksrc == XMC_SCU_HIB_STDBYCLKSRC_OSCULP) && (config->enable_oscu
 523:C:/Files/Projects/Git/XMCLib/src\xmc4_scu.c ****                  (config->fstdby_clksrc != XMC_SCU_HIB_STDBYCLKSRC_OSCULP));
 524:C:/Files/Projects/Git/XMCLib/src\xmc4_scu.c ****   XMC_ASSERT("", ((config->syspll_config.clksrc == XMC_SCU_CLOCK_SYSPLLCLKSRC_OSCHP) &&
 525:C:/Files/Projects/Git/XMCLib/src\xmc4_scu.c ****                  (config->enable_oschp == true)) || (config->syspll_config.clksrc != XMC_SCU_CLOCK_
 526:C:/Files/Projects/Git/XMCLib/src\xmc4_scu.c **** 
 527:C:/Files/Projects/Git/XMCLib/src\xmc4_scu.c ****   XMC_SCU_CLOCK_SetSystemClockSource(XMC_SCU_CLOCK_SYSCLKSRC_OFI);
 528:C:/Files/Projects/Git/XMCLib/src\xmc4_scu.c **** 
 529:C:/Files/Projects/Git/XMCLib/src\xmc4_scu.c ****   XMC_SCU_HIB_EnableHibernateDomain();
 530:C:/Files/Projects/Git/XMCLib/src\xmc4_scu.c **** 
 531:C:/Files/Projects/Git/XMCLib/src\xmc4_scu.c ****   if (config->enable_osculp == true)
 532:C:/Files/Projects/Git/XMCLib/src\xmc4_scu.c ****   {
 533:C:/Files/Projects/Git/XMCLib/src\xmc4_scu.c ****     XMC_SCU_CLOCK_EnableLowPowerOscillator();
 534:C:/Files/Projects/Git/XMCLib/src\xmc4_scu.c ****     while (XMC_SCU_CLOCK_IsLowPowerOscillatorStable() == false);
 535:C:/Files/Projects/Git/XMCLib/src\xmc4_scu.c ****   }
 536:C:/Files/Projects/Git/XMCLib/src\xmc4_scu.c ****   
 537:C:/Files/Projects/Git/XMCLib/src\xmc4_scu.c ****   XMC_SCU_HIB_SetStandbyClockSource(config->fstdby_clksrc);  
 538:C:/Files/Projects/Git/XMCLib/src\xmc4_scu.c ****   while (XMC_SCU_GetMirrorStatus() != 0)
 539:C:/Files/Projects/Git/XMCLib/src\xmc4_scu.c ****   {
 540:C:/Files/Projects/Git/XMCLib/src\xmc4_scu.c ****     /* Wait until update of the stanby clock source is done in the HIB domain */    
 541:C:/Files/Projects/Git/XMCLib/src\xmc4_scu.c ****   }
 542:C:/Files/Projects/Git/XMCLib/src\xmc4_scu.c **** 
 543:C:/Files/Projects/Git/XMCLib/src\xmc4_scu.c ****   XMC_SCU_CLOCK_SetBackupClockCalibrationMode(config->calibration_mode);
 544:C:/Files/Projects/Git/XMCLib/src\xmc4_scu.c **** 
 545:C:/Files/Projects/Git/XMCLib/src\xmc4_scu.c ****   XMC_SCU_CLOCK_SetSystemClockDivider((uint32_t)config->fsys_clkdiv);
 546:C:/Files/Projects/Git/XMCLib/src\xmc4_scu.c ****   XMC_SCU_CLOCK_SetCpuClockDivider((uint32_t)config->fcpu_clkdiv);
 547:C:/Files/Projects/Git/XMCLib/src\xmc4_scu.c ****   XMC_SCU_CLOCK_SetCcuClockDivider((uint32_t)config->fccu_clkdiv);
 548:C:/Files/Projects/Git/XMCLib/src\xmc4_scu.c ****   XMC_SCU_CLOCK_SetPeripheralClockDivider((uint32_t)config->fperipheral_clkdiv);
 549:C:/Files/Projects/Git/XMCLib/src\xmc4_scu.c **** 
 550:C:/Files/Projects/Git/XMCLib/src\xmc4_scu.c ****   if (config->enable_oschp == true)
 551:C:/Files/Projects/Git/XMCLib/src\xmc4_scu.c ****   {
 552:C:/Files/Projects/Git/XMCLib/src\xmc4_scu.c ****     XMC_SCU_CLOCK_EnableHighPerformanceOscillator();
 553:C:/Files/Projects/Git/XMCLib/src\xmc4_scu.c ****     while(XMC_SCU_CLOCK_IsHighPerformanceOscillatorStable() == false);
 554:C:/Files/Projects/Git/XMCLib/src\xmc4_scu.c ****   }
 555:C:/Files/Projects/Git/XMCLib/src\xmc4_scu.c **** 
 556:C:/Files/Projects/Git/XMCLib/src\xmc4_scu.c ****   if (config->syspll_config.mode == XMC_SCU_CLOCK_SYSPLL_MODE_DISABLED)
 557:C:/Files/Projects/Git/XMCLib/src\xmc4_scu.c ****   {
 558:C:/Files/Projects/Git/XMCLib/src\xmc4_scu.c ****     XMC_SCU_CLOCK_DisableSystemPll();
 559:C:/Files/Projects/Git/XMCLib/src\xmc4_scu.c ****   }
 560:C:/Files/Projects/Git/XMCLib/src\xmc4_scu.c ****   else
 561:C:/Files/Projects/Git/XMCLib/src\xmc4_scu.c ****   {
 562:C:/Files/Projects/Git/XMCLib/src\xmc4_scu.c **** 
 563:C:/Files/Projects/Git/XMCLib/src\xmc4_scu.c ****     XMC_SCU_CLOCK_EnableSystemPll();
 564:C:/Files/Projects/Git/XMCLib/src\xmc4_scu.c ****     XMC_SCU_CLOCK_StartSystemPll(config->syspll_config.clksrc,
 565:C:/Files/Projects/Git/XMCLib/src\xmc4_scu.c ****                                  config->syspll_config.mode,
 566:C:/Files/Projects/Git/XMCLib/src\xmc4_scu.c ****                                  (uint32_t)config->syspll_config.p_div,
 567:C:/Files/Projects/Git/XMCLib/src\xmc4_scu.c ****                                  (uint32_t)config->syspll_config.n_div,
 568:C:/Files/Projects/Git/XMCLib/src\xmc4_scu.c ****                                  (uint32_t)config->syspll_config.k_div);
 569:C:/Files/Projects/Git/XMCLib/src\xmc4_scu.c ****   }
 570:C:/Files/Projects/Git/XMCLib/src\xmc4_scu.c **** 
 571:C:/Files/Projects/Git/XMCLib/src\xmc4_scu.c ****   /* use SYSPLL? */
 572:C:/Files/Projects/Git/XMCLib/src\xmc4_scu.c ****   if (config->fsys_clksrc == XMC_SCU_CLOCK_SYSCLKSRC_PLL)
 573:C:/Files/Projects/Git/XMCLib/src\xmc4_scu.c ****   {
 574:C:/Files/Projects/Git/XMCLib/src\xmc4_scu.c ****     XMC_SCU_CLOCK_SetSystemClockSource(XMC_SCU_CLOCK_SYSCLKSRC_PLL);    
 575:C:/Files/Projects/Git/XMCLib/src\xmc4_scu.c ****   }
 576:C:/Files/Projects/Git/XMCLib/src\xmc4_scu.c ****   SystemCoreClockUpdate();
 577:C:/Files/Projects/Git/XMCLib/src\xmc4_scu.c **** }
 578:C:/Files/Projects/Git/XMCLib/src\xmc4_scu.c **** 
 579:C:/Files/Projects/Git/XMCLib/src\xmc4_scu.c **** /* API to enable a trap source */
 580:C:/Files/Projects/Git/XMCLib/src\xmc4_scu.c **** void XMC_SCU_TRAP_Enable(const uint32_t trap)
 581:C:/Files/Projects/Git/XMCLib/src\xmc4_scu.c **** {
 720              	 .loc 1 581 0
 721              	 .cfi_startproc
 722              	 
 723              	 
 724              	 
 725              	.LVL42:
 582:C:/Files/Projects/Git/XMCLib/src\xmc4_scu.c ****   SCU_TRAP->TRAPDIS &= (uint32_t)~trap;
 726              	 .loc 1 582 0
 727 0000 024A     	 ldr r2,.L78
 728 0002 9368     	 ldr r3,[r2,#8]
 729 0004 23EA0000 	 bic r0,r3,r0
 730              	.LVL43:
 731 0008 9060     	 str r0,[r2,#8]
 732 000a 7047     	 bx lr
 733              	.L79:
 734              	 .align 2
 735              	.L78:
 736 000c 60410050 	 .word 1342194016
 737              	 .cfi_endproc
 738              	.LFE198:
 740              	 .section .text.XMC_SCU_TRAP_Disable,"ax",%progbits
 741              	 .align 2
 742              	 .global XMC_SCU_TRAP_Disable
 743              	 .thumb
 744              	 .thumb_func
 746              	XMC_SCU_TRAP_Disable:
 747              	.LFB199:
 583:C:/Files/Projects/Git/XMCLib/src\xmc4_scu.c **** }
 584:C:/Files/Projects/Git/XMCLib/src\xmc4_scu.c **** 
 585:C:/Files/Projects/Git/XMCLib/src\xmc4_scu.c **** /* API to disable a trap source */
 586:C:/Files/Projects/Git/XMCLib/src\xmc4_scu.c **** void XMC_SCU_TRAP_Disable(const uint32_t trap)
 587:C:/Files/Projects/Git/XMCLib/src\xmc4_scu.c **** {
 748              	 .loc 1 587 0
 749              	 .cfi_startproc
 750              	 
 751              	 
 752              	 
 753              	.LVL44:
 588:C:/Files/Projects/Git/XMCLib/src\xmc4_scu.c ****   SCU_TRAP->TRAPDIS |= (uint32_t)trap;
 754              	 .loc 1 588 0
 755 0000 024A     	 ldr r2,.L81
 756 0002 9368     	 ldr r3,[r2,#8]
 757 0004 1843     	 orrs r0,r0,r3
 758              	.LVL45:
 759 0006 9060     	 str r0,[r2,#8]
 760 0008 7047     	 bx lr
 761              	.L82:
 762 000a 00BF     	 .align 2
 763              	.L81:
 764 000c 60410050 	 .word 1342194016
 765              	 .cfi_endproc
 766              	.LFE199:
 768              	 .section .text.XMC_SCU_TRAP_GetStatus,"ax",%progbits
 769              	 .align 2
 770              	 .global XMC_SCU_TRAP_GetStatus
 771              	 .thumb
 772              	 .thumb_func
 774              	XMC_SCU_TRAP_GetStatus:
 775              	.LFB200:
 589:C:/Files/Projects/Git/XMCLib/src\xmc4_scu.c **** }
 590:C:/Files/Projects/Git/XMCLib/src\xmc4_scu.c **** 
 591:C:/Files/Projects/Git/XMCLib/src\xmc4_scu.c **** /* API to determine if a trap source has generated event */
 592:C:/Files/Projects/Git/XMCLib/src\xmc4_scu.c **** uint32_t XMC_SCU_TRAP_GetStatus(void)
 593:C:/Files/Projects/Git/XMCLib/src\xmc4_scu.c **** {
 776              	 .loc 1 593 0
 777              	 .cfi_startproc
 778              	 
 779              	 
 780              	 
 594:C:/Files/Projects/Git/XMCLib/src\xmc4_scu.c ****   return (SCU_TRAP->TRAPRAW);
 781              	 .loc 1 594 0
 782 0000 014B     	 ldr r3,.L84
 783 0002 5868     	 ldr r0,[r3,#4]
 595:C:/Files/Projects/Git/XMCLib/src\xmc4_scu.c **** }
 784              	 .loc 1 595 0
 785 0004 7047     	 bx lr
 786              	.L85:
 787 0006 00BF     	 .align 2
 788              	.L84:
 789 0008 60410050 	 .word 1342194016
 790              	 .cfi_endproc
 791              	.LFE200:
 793              	 .section .text.XMC_SCU_TRAP_Trigger,"ax",%progbits
 794              	 .align 2
 795              	 .global XMC_SCU_TRAP_Trigger
 796              	 .thumb
 797              	 .thumb_func
 799              	XMC_SCU_TRAP_Trigger:
 800              	.LFB201:
 596:C:/Files/Projects/Git/XMCLib/src\xmc4_scu.c **** 
 597:C:/Files/Projects/Git/XMCLib/src\xmc4_scu.c **** /* API to manually trigger a trap event */
 598:C:/Files/Projects/Git/XMCLib/src\xmc4_scu.c **** void XMC_SCU_TRAP_Trigger(const uint32_t trap)
 599:C:/Files/Projects/Git/XMCLib/src\xmc4_scu.c **** {
 801              	 .loc 1 599 0
 802              	 .cfi_startproc
 803              	 
 804              	 
 805              	 
 806              	.LVL46:
 600:C:/Files/Projects/Git/XMCLib/src\xmc4_scu.c ****   SCU_TRAP->TRAPSET = (uint32_t)trap;
 807              	 .loc 1 600 0
 808 0000 014B     	 ldr r3,.L87
 809 0002 1861     	 str r0,[r3,#16]
 810 0004 7047     	 bx lr
 811              	.L88:
 812 0006 00BF     	 .align 2
 813              	.L87:
 814 0008 60410050 	 .word 1342194016
 815              	 .cfi_endproc
 816              	.LFE201:
 818              	 .section .text.XMC_SCU_TRAP_ClearStatus,"ax",%progbits
 819              	 .align 2
 820              	 .global XMC_SCU_TRAP_ClearStatus
 821              	 .thumb
 822              	 .thumb_func
 824              	XMC_SCU_TRAP_ClearStatus:
 825              	.LFB202:
 601:C:/Files/Projects/Git/XMCLib/src\xmc4_scu.c **** }
 602:C:/Files/Projects/Git/XMCLib/src\xmc4_scu.c **** 
 603:C:/Files/Projects/Git/XMCLib/src\xmc4_scu.c **** /* API to clear a trap event */
 604:C:/Files/Projects/Git/XMCLib/src\xmc4_scu.c **** void XMC_SCU_TRAP_ClearStatus(const uint32_t trap)
 605:C:/Files/Projects/Git/XMCLib/src\xmc4_scu.c **** {
 826              	 .loc 1 605 0
 827              	 .cfi_startproc
 828              	 
 829              	 
 830              	 
 831              	.LVL47:
 606:C:/Files/Projects/Git/XMCLib/src\xmc4_scu.c ****   SCU_TRAP->TRAPCLR = (uint32_t)trap;
 832              	 .loc 1 606 0
 833 0000 014B     	 ldr r3,.L90
 834 0002 D860     	 str r0,[r3,#12]
 835 0004 7047     	 bx lr
 836              	.L91:
 837 0006 00BF     	 .align 2
 838              	.L90:
 839 0008 60410050 	 .word 1342194016
 840              	 .cfi_endproc
 841              	.LFE202:
 843              	 .section .text.XMC_SCU_PARITY_ClearStatus,"ax",%progbits
 844              	 .align 2
 845              	 .global XMC_SCU_PARITY_ClearStatus
 846              	 .thumb
 847              	 .thumb_func
 849              	XMC_SCU_PARITY_ClearStatus:
 850              	.LFB203:
 607:C:/Files/Projects/Git/XMCLib/src\xmc4_scu.c **** }
 608:C:/Files/Projects/Git/XMCLib/src\xmc4_scu.c **** 
 609:C:/Files/Projects/Git/XMCLib/src\xmc4_scu.c **** /* API to clear parity error event */
 610:C:/Files/Projects/Git/XMCLib/src\xmc4_scu.c **** void XMC_SCU_PARITY_ClearStatus(const uint32_t memory)
 611:C:/Files/Projects/Git/XMCLib/src\xmc4_scu.c **** {
 851              	 .loc 1 611 0
 852              	 .cfi_startproc
 853              	 
 854              	 
 855              	 
 856              	.LVL48:
 612:C:/Files/Projects/Git/XMCLib/src\xmc4_scu.c ****   SCU_PARITY->PEFLAG |= (uint32_t)memory; 
 857              	 .loc 1 612 0
 858 0000 024A     	 ldr r2,.L93
 859 0002 5369     	 ldr r3,[r2,#20]
 860 0004 1843     	 orrs r0,r0,r3
 861              	.LVL49:
 862 0006 5061     	 str r0,[r2,#20]
 863 0008 7047     	 bx lr
 864              	.L94:
 865 000a 00BF     	 .align 2
 866              	.L93:
 867 000c 3C410050 	 .word 1342193980
 868              	 .cfi_endproc
 869              	.LFE203:
 871              	 .section .text.XMC_SCU_PARITY_GetStatus,"ax",%progbits
 872              	 .align 2
 873              	 .global XMC_SCU_PARITY_GetStatus
 874              	 .thumb
 875              	 .thumb_func
 877              	XMC_SCU_PARITY_GetStatus:
 878              	.LFB204:
 613:C:/Files/Projects/Git/XMCLib/src\xmc4_scu.c **** }
 614:C:/Files/Projects/Git/XMCLib/src\xmc4_scu.c **** 
 615:C:/Files/Projects/Git/XMCLib/src\xmc4_scu.c **** /* API to determine if the specified parity error has occured or not */
 616:C:/Files/Projects/Git/XMCLib/src\xmc4_scu.c **** uint32_t XMC_SCU_PARITY_GetStatus(void)
 617:C:/Files/Projects/Git/XMCLib/src\xmc4_scu.c **** {
 879              	 .loc 1 617 0
 880              	 .cfi_startproc
 881              	 
 882              	 
 883              	 
 618:C:/Files/Projects/Git/XMCLib/src\xmc4_scu.c ****   return (SCU_PARITY->PEFLAG);
 884              	 .loc 1 618 0
 885 0000 014B     	 ldr r3,.L96
 886 0002 5869     	 ldr r0,[r3,#20]
 619:C:/Files/Projects/Git/XMCLib/src\xmc4_scu.c **** } 
 887              	 .loc 1 619 0
 888 0004 7047     	 bx lr
 889              	.L97:
 890 0006 00BF     	 .align 2
 891              	.L96:
 892 0008 3C410050 	 .word 1342193980
 893              	 .cfi_endproc
 894              	.LFE204:
 896              	 .section .text.XMC_SCU_PARITY_Enable,"ax",%progbits
 897              	 .align 2
 898              	 .global XMC_SCU_PARITY_Enable
 899              	 .thumb
 900              	 .thumb_func
 902              	XMC_SCU_PARITY_Enable:
 903              	.LFB205:
 620:C:/Files/Projects/Git/XMCLib/src\xmc4_scu.c **** 
 621:C:/Files/Projects/Git/XMCLib/src\xmc4_scu.c **** /* API to enable parity error checking for the selected on-chip RAM type */
 622:C:/Files/Projects/Git/XMCLib/src\xmc4_scu.c **** void XMC_SCU_PARITY_Enable(const uint32_t memory)
 623:C:/Files/Projects/Git/XMCLib/src\xmc4_scu.c **** {
 904              	 .loc 1 623 0
 905              	 .cfi_startproc
 906              	 
 907              	 
 908              	 
 909              	.LVL50:
 624:C:/Files/Projects/Git/XMCLib/src\xmc4_scu.c ****   SCU_PARITY->PEEN |= (uint32_t)memory; 
 910              	 .loc 1 624 0
 911 0000 024A     	 ldr r2,.L99
 912 0002 1368     	 ldr r3,[r2]
 913 0004 1843     	 orrs r0,r0,r3
 914              	.LVL51:
 915 0006 1060     	 str r0,[r2]
 916 0008 7047     	 bx lr
 917              	.L100:
 918 000a 00BF     	 .align 2
 919              	.L99:
 920 000c 3C410050 	 .word 1342193980
 921              	 .cfi_endproc
 922              	.LFE205:
 924              	 .section .text.XMC_SCU_PARITY_Disable,"ax",%progbits
 925              	 .align 2
 926              	 .global XMC_SCU_PARITY_Disable
 927              	 .thumb
 928              	 .thumb_func
 930              	XMC_SCU_PARITY_Disable:
 931              	.LFB206:
 625:C:/Files/Projects/Git/XMCLib/src\xmc4_scu.c **** }
 626:C:/Files/Projects/Git/XMCLib/src\xmc4_scu.c **** 
 627:C:/Files/Projects/Git/XMCLib/src\xmc4_scu.c **** /* API to disable parity error checking for the selected on-chip RAM type */
 628:C:/Files/Projects/Git/XMCLib/src\xmc4_scu.c **** void XMC_SCU_PARITY_Disable(const uint32_t memory)
 629:C:/Files/Projects/Git/XMCLib/src\xmc4_scu.c **** {
 932              	 .loc 1 629 0
 933              	 .cfi_startproc
 934              	 
 935              	 
 936              	 
 937              	.LVL52:
 630:C:/Files/Projects/Git/XMCLib/src\xmc4_scu.c ****   SCU_PARITY->PEEN &= (uint32_t)~memory; 
 938              	 .loc 1 630 0
 939 0000 024A     	 ldr r2,.L102
 940 0002 1368     	 ldr r3,[r2]
 941 0004 23EA0000 	 bic r0,r3,r0
 942              	.LVL53:
 943 0008 1060     	 str r0,[r2]
 944 000a 7047     	 bx lr
 945              	.L103:
 946              	 .align 2
 947              	.L102:
 948 000c 3C410050 	 .word 1342193980
 949              	 .cfi_endproc
 950              	.LFE206:
 952              	 .section .text.XMC_SCU_PARITY_EnableTrapGeneration,"ax",%progbits
 953              	 .align 2
 954              	 .global XMC_SCU_PARITY_EnableTrapGeneration
 955              	 .thumb
 956              	 .thumb_func
 958              	XMC_SCU_PARITY_EnableTrapGeneration:
 959              	.LFB207:
 631:C:/Files/Projects/Git/XMCLib/src\xmc4_scu.c **** }
 632:C:/Files/Projects/Git/XMCLib/src\xmc4_scu.c **** 
 633:C:/Files/Projects/Git/XMCLib/src\xmc4_scu.c **** /* API to enable trap assertion for the parity error source */
 634:C:/Files/Projects/Git/XMCLib/src\xmc4_scu.c **** void XMC_SCU_PARITY_EnableTrapGeneration(const uint32_t memory)
 635:C:/Files/Projects/Git/XMCLib/src\xmc4_scu.c **** {
 960              	 .loc 1 635 0
 961              	 .cfi_startproc
 962              	 
 963              	 
 964              	 
 965              	.LVL54:
 636:C:/Files/Projects/Git/XMCLib/src\xmc4_scu.c ****   SCU_PARITY->PETE |= (uint32_t)memory; 
 966              	 .loc 1 636 0
 967 0000 024A     	 ldr r2,.L105
 968 0002 9368     	 ldr r3,[r2,#8]
 969 0004 1843     	 orrs r0,r0,r3
 970              	.LVL55:
 971 0006 9060     	 str r0,[r2,#8]
 972 0008 7047     	 bx lr
 973              	.L106:
 974 000a 00BF     	 .align 2
 975              	.L105:
 976 000c 3C410050 	 .word 1342193980
 977              	 .cfi_endproc
 978              	.LFE207:
 980              	 .section .text.XMC_SCU_PARITY_DisableTrapGeneration,"ax",%progbits
 981              	 .align 2
 982              	 .global XMC_SCU_PARITY_DisableTrapGeneration
 983              	 .thumb
 984              	 .thumb_func
 986              	XMC_SCU_PARITY_DisableTrapGeneration:
 987              	.LFB208:
 637:C:/Files/Projects/Git/XMCLib/src\xmc4_scu.c **** }
 638:C:/Files/Projects/Git/XMCLib/src\xmc4_scu.c **** 
 639:C:/Files/Projects/Git/XMCLib/src\xmc4_scu.c **** /* API to disable the assertion of trap for the parity error source */
 640:C:/Files/Projects/Git/XMCLib/src\xmc4_scu.c **** void XMC_SCU_PARITY_DisableTrapGeneration(const uint32_t memory)
 641:C:/Files/Projects/Git/XMCLib/src\xmc4_scu.c **** {
 988              	 .loc 1 641 0
 989              	 .cfi_startproc
 990              	 
 991              	 
 992              	 
 993              	.LVL56:
 642:C:/Files/Projects/Git/XMCLib/src\xmc4_scu.c ****   SCU_PARITY->PETE &= (uint32_t)~memory; 
 994              	 .loc 1 642 0
 995 0000 024A     	 ldr r2,.L108
 996 0002 9368     	 ldr r3,[r2,#8]
 997 0004 23EA0000 	 bic r0,r3,r0
 998              	.LVL57:
 999 0008 9060     	 str r0,[r2,#8]
 1000 000a 7047     	 bx lr
 1001              	.L109:
 1002              	 .align 2
 1003              	.L108:
 1004 000c 3C410050 	 .word 1342193980
 1005              	 .cfi_endproc
 1006              	.LFE208:
 1008              	 .section .text.XMC_SCU_INTERRUPT_EnableNmiRequest,"ax",%progbits
 1009              	 .align 2
 1010              	 .global XMC_SCU_INTERRUPT_EnableNmiRequest
 1011              	 .thumb
 1012              	 .thumb_func
 1014              	XMC_SCU_INTERRUPT_EnableNmiRequest:
 1015              	.LFB209:
 643:C:/Files/Projects/Git/XMCLib/src\xmc4_scu.c **** }
 644:C:/Files/Projects/Git/XMCLib/src\xmc4_scu.c **** 
 645:C:/Files/Projects/Git/XMCLib/src\xmc4_scu.c **** /* Enables a NMI source */
 646:C:/Files/Projects/Git/XMCLib/src\xmc4_scu.c **** void XMC_SCU_INTERRUPT_EnableNmiRequest(const uint32_t request)
 647:C:/Files/Projects/Git/XMCLib/src\xmc4_scu.c **** {
 1016              	 .loc 1 647 0
 1017              	 .cfi_startproc
 1018              	 
 1019              	 
 1020              	 
 1021              	.LVL58:
 648:C:/Files/Projects/Git/XMCLib/src\xmc4_scu.c ****   SCU_INTERRUPT->NMIREQEN |= (uint32_t)request;
 1022              	 .loc 1 648 0
 1023 0000 024A     	 ldr r2,.L111
 1024 0002 5369     	 ldr r3,[r2,#20]
 1025 0004 1843     	 orrs r0,r0,r3
 1026              	.LVL59:
 1027 0006 5061     	 str r0,[r2,#20]
 1028 0008 7047     	 bx lr
 1029              	.L112:
 1030 000a 00BF     	 .align 2
 1031              	.L111:
 1032 000c 74400050 	 .word 1342193780
 1033              	 .cfi_endproc
 1034              	.LFE209:
 1036              	 .section .text.XMC_SCU_INTERRUPT_DisableNmiRequest,"ax",%progbits
 1037              	 .align 2
 1038              	 .global XMC_SCU_INTERRUPT_DisableNmiRequest
 1039              	 .thumb
 1040              	 .thumb_func
 1042              	XMC_SCU_INTERRUPT_DisableNmiRequest:
 1043              	.LFB210:
 649:C:/Files/Projects/Git/XMCLib/src\xmc4_scu.c **** }
 650:C:/Files/Projects/Git/XMCLib/src\xmc4_scu.c **** 
 651:C:/Files/Projects/Git/XMCLib/src\xmc4_scu.c **** /* Disables a NMI source */
 652:C:/Files/Projects/Git/XMCLib/src\xmc4_scu.c **** void XMC_SCU_INTERRUPT_DisableNmiRequest(const uint32_t request)
 653:C:/Files/Projects/Git/XMCLib/src\xmc4_scu.c **** {
 1044              	 .loc 1 653 0
 1045              	 .cfi_startproc
 1046              	 
 1047              	 
 1048              	 
 1049              	.LVL60:
 654:C:/Files/Projects/Git/XMCLib/src\xmc4_scu.c ****   SCU_INTERRUPT->NMIREQEN &= (uint32_t)~request;
 1050              	 .loc 1 654 0
 1051 0000 024A     	 ldr r2,.L114
 1052 0002 5369     	 ldr r3,[r2,#20]
 1053 0004 23EA0000 	 bic r0,r3,r0
 1054              	.LVL61:
 1055 0008 5061     	 str r0,[r2,#20]
 1056 000a 7047     	 bx lr
 1057              	.L115:
 1058              	 .align 2
 1059              	.L114:
 1060 000c 74400050 	 .word 1342193780
 1061              	 .cfi_endproc
 1062              	.LFE210:
 1064              	 .section .text.XMC_SCU_RESET_AssertPeripheralReset,"ax",%progbits
 1065              	 .align 2
 1066              	 .global XMC_SCU_RESET_AssertPeripheralReset
 1067              	 .thumb
 1068              	 .thumb_func
 1070              	XMC_SCU_RESET_AssertPeripheralReset:
 1071              	.LFB211:
 655:C:/Files/Projects/Git/XMCLib/src\xmc4_scu.c **** }
 656:C:/Files/Projects/Git/XMCLib/src\xmc4_scu.c **** 
 657:C:/Files/Projects/Git/XMCLib/src\xmc4_scu.c **** /* API to manually assert a reset request */
 658:C:/Files/Projects/Git/XMCLib/src\xmc4_scu.c **** void XMC_SCU_RESET_AssertPeripheralReset(const XMC_SCU_PERIPHERAL_RESET_t peripheral)
 659:C:/Files/Projects/Git/XMCLib/src\xmc4_scu.c **** {
 1072              	 .loc 1 659 0
 1073              	 .cfi_startproc
 1074              	 
 1075              	 
 1076              	 
 1077              	.LVL62:
 660:C:/Files/Projects/Git/XMCLib/src\xmc4_scu.c ****   uint32_t index = (uint32_t)((((uint32_t)peripheral) & 0xf0000000UL) >> 28UL);
 1078              	 .loc 1 660 0
 1079 0000 030F     	 lsrs r3,r0,#28
 1080              	.LVL63:
 661:C:/Files/Projects/Git/XMCLib/src\xmc4_scu.c ****   uint32_t mask = (((uint32_t)peripheral) & ((uint32_t)~0xf0000000UL));
 662:C:/Files/Projects/Git/XMCLib/src\xmc4_scu.c **** 
 663:C:/Files/Projects/Git/XMCLib/src\xmc4_scu.c ****   *(uint32_t *)(&(SCU_RESET->PRSET0) + (index * 3U)) = (uint32_t)mask;
 1081              	 .loc 1 663 0
 1082 0002 03EB4303 	 add r3,r3,r3,lsl#1
 1083              	.LVL64:
 661:C:/Files/Projects/Git/XMCLib/src\xmc4_scu.c ****   uint32_t mask = (((uint32_t)peripheral) & ((uint32_t)~0xf0000000UL));
 1084              	 .loc 1 661 0
 1085 0006 20F07040 	 bic r0,r0,#-268435456
 1086              	.LVL65:
 1087              	 .loc 1 663 0
 1088 000a 024A     	 ldr r2,.L117
 1089 000c 42F82300 	 str r0,[r2,r3,lsl#2]
 1090 0010 7047     	 bx lr
 1091              	.L118:
 1092 0012 00BF     	 .align 2
 1093              	.L117:
 1094 0014 10440050 	 .word 1342194704
 1095              	 .cfi_endproc
 1096              	.LFE211:
 1098              	 .section .text.XMC_SCU_RESET_DeassertPeripheralReset,"ax",%progbits
 1099              	 .align 2
 1100              	 .global XMC_SCU_RESET_DeassertPeripheralReset
 1101              	 .thumb
 1102              	 .thumb_func
 1104              	XMC_SCU_RESET_DeassertPeripheralReset:
 1105              	.LFB212:
 664:C:/Files/Projects/Git/XMCLib/src\xmc4_scu.c **** }
 665:C:/Files/Projects/Git/XMCLib/src\xmc4_scu.c **** 
 666:C:/Files/Projects/Git/XMCLib/src\xmc4_scu.c **** /* API to manually de-assert a reset request */
 667:C:/Files/Projects/Git/XMCLib/src\xmc4_scu.c **** void XMC_SCU_RESET_DeassertPeripheralReset(const XMC_SCU_PERIPHERAL_RESET_t peripheral)
 668:C:/Files/Projects/Git/XMCLib/src\xmc4_scu.c **** {
 1106              	 .loc 1 668 0
 1107              	 .cfi_startproc
 1108              	 
 1109              	 
 1110              	 
 1111              	.LVL66:
 669:C:/Files/Projects/Git/XMCLib/src\xmc4_scu.c ****   uint32_t index = (uint32_t)((((uint32_t)peripheral) & 0xf0000000UL) >> 28UL);
 1112              	 .loc 1 669 0
 1113 0000 030F     	 lsrs r3,r0,#28
 1114              	.LVL67:
 670:C:/Files/Projects/Git/XMCLib/src\xmc4_scu.c ****   uint32_t mask = (((uint32_t)peripheral) & ((uint32_t)~0xf0000000UL));
 671:C:/Files/Projects/Git/XMCLib/src\xmc4_scu.c **** 
 672:C:/Files/Projects/Git/XMCLib/src\xmc4_scu.c ****   *(uint32_t *)(&(SCU_RESET->PRCLR0) + (index * 3U)) = (uint32_t)mask;
 1115              	 .loc 1 672 0
 1116 0002 03EB4303 	 add r3,r3,r3,lsl#1
 1117              	.LVL68:
 670:C:/Files/Projects/Git/XMCLib/src\xmc4_scu.c ****   uint32_t mask = (((uint32_t)peripheral) & ((uint32_t)~0xf0000000UL));
 1118              	 .loc 1 670 0
 1119 0006 20F07040 	 bic r0,r0,#-268435456
 1120              	.LVL69:
 1121              	 .loc 1 672 0
 1122 000a 024A     	 ldr r2,.L120
 1123 000c 42F82300 	 str r0,[r2,r3,lsl#2]
 1124 0010 7047     	 bx lr
 1125              	.L121:
 1126 0012 00BF     	 .align 2
 1127              	.L120:
 1128 0014 14440050 	 .word 1342194708
 1129              	 .cfi_endproc
 1130              	.LFE212:
 1132              	 .section .text.XMC_SCU_RESET_IsPeripheralResetAsserted,"ax",%progbits
 1133              	 .align 2
 1134              	 .global XMC_SCU_RESET_IsPeripheralResetAsserted
 1135              	 .thumb
 1136              	 .thumb_func
 1138              	XMC_SCU_RESET_IsPeripheralResetAsserted:
 1139              	.LFB213:
 673:C:/Files/Projects/Git/XMCLib/src\xmc4_scu.c **** }
 674:C:/Files/Projects/Git/XMCLib/src\xmc4_scu.c **** 
 675:C:/Files/Projects/Git/XMCLib/src\xmc4_scu.c **** /* Find out if the peripheral reset is asserted */
 676:C:/Files/Projects/Git/XMCLib/src\xmc4_scu.c **** bool XMC_SCU_RESET_IsPeripheralResetAsserted(const XMC_SCU_PERIPHERAL_RESET_t peripheral)
 677:C:/Files/Projects/Git/XMCLib/src\xmc4_scu.c **** {
 1140              	 .loc 1 677 0
 1141              	 .cfi_startproc
 1142              	 
 1143              	 
 1144              	 
 1145              	.LVL70:
 678:C:/Files/Projects/Git/XMCLib/src\xmc4_scu.c ****   uint32_t index = (uint32_t)((((uint32_t)peripheral) & 0xf0000000UL) >> 28UL);
 679:C:/Files/Projects/Git/XMCLib/src\xmc4_scu.c ****   uint32_t mask = (((uint32_t)peripheral) & ((uint32_t)~0xf0000000UL));
 1146              	 .loc 1 679 0
 1147 0000 20F07042 	 bic r2,r0,#-268435456
 1148              	.LVL71:
 678:C:/Files/Projects/Git/XMCLib/src\xmc4_scu.c ****   uint32_t index = (uint32_t)((((uint32_t)peripheral) & 0xf0000000UL) >> 28UL);
 1149              	 .loc 1 678 0
 1150 0004 000F     	 lsrs r0,r0,#28
 1151              	.LVL72:
 680:C:/Files/Projects/Git/XMCLib/src\xmc4_scu.c **** 
 681:C:/Files/Projects/Git/XMCLib/src\xmc4_scu.c ****   return ((*(uint32_t *)(&(SCU_RESET->PRSTAT0) + (index * 3U)) & mask) != 0U);
 1152              	 .loc 1 681 0
 1153 0006 00EB4000 	 add r0,r0,r0,lsl#1
 1154              	.LVL73:
 1155 000a 044B     	 ldr r3,.L123
 1156 000c 53F82030 	 ldr r3,[r3,r0,lsl#2]
 1157 0010 1A42     	 tst r2,r3
 682:C:/Files/Projects/Git/XMCLib/src\xmc4_scu.c **** }
 1158              	 .loc 1 682 0
 1159 0012 14BF     	 ite ne
 1160 0014 0120     	 movne r0,#1
 1161 0016 0020     	 moveq r0,#0
 1162 0018 7047     	 bx lr
 1163              	.L124:
 1164 001a 00BF     	 .align 2
 1165              	.L123:
 1166 001c 0C440050 	 .word 1342194700
 1167              	 .cfi_endproc
 1168              	.LFE213:
 1170              	 .section .text.XMC_SCU_CLOCK_GetSystemPllClockSourceFrequency,"ax",%progbits
 1171              	 .align 2
 1172              	 .global XMC_SCU_CLOCK_GetSystemPllClockSourceFrequency
 1173              	 .thumb
 1174              	 .thumb_func
 1176              	XMC_SCU_CLOCK_GetSystemPllClockSourceFrequency:
 1177              	.LFB215:
 683:C:/Files/Projects/Git/XMCLib/src\xmc4_scu.c **** 
 684:C:/Files/Projects/Git/XMCLib/src\xmc4_scu.c **** /*
 685:C:/Files/Projects/Git/XMCLib/src\xmc4_scu.c ****  * API to retrieve frequency of System PLL output clock
 686:C:/Files/Projects/Git/XMCLib/src\xmc4_scu.c ****  */
 687:C:/Files/Projects/Git/XMCLib/src\xmc4_scu.c **** uint32_t XMC_SCU_CLOCK_GetSystemPllClockFrequency(void)
 688:C:/Files/Projects/Git/XMCLib/src\xmc4_scu.c **** {
 689:C:/Files/Projects/Git/XMCLib/src\xmc4_scu.c ****   uint32_t clock_frequency;
 690:C:/Files/Projects/Git/XMCLib/src\xmc4_scu.c ****   uint32_t p_div;
 691:C:/Files/Projects/Git/XMCLib/src\xmc4_scu.c ****   uint32_t n_div;
 692:C:/Files/Projects/Git/XMCLib/src\xmc4_scu.c ****   uint32_t k2_div;
 693:C:/Files/Projects/Git/XMCLib/src\xmc4_scu.c **** 
 694:C:/Files/Projects/Git/XMCLib/src\xmc4_scu.c ****   clock_frequency = XMC_SCU_CLOCK_GetSystemPllClockSourceFrequency();
 695:C:/Files/Projects/Git/XMCLib/src\xmc4_scu.c ****   if(SCU_PLL->PLLSTAT & SCU_PLL_PLLSTAT_VCOBYST_Msk)
 696:C:/Files/Projects/Git/XMCLib/src\xmc4_scu.c ****   {
 697:C:/Files/Projects/Git/XMCLib/src\xmc4_scu.c ****     /* Prescalar mode - fOSC is the parent*/
 698:C:/Files/Projects/Git/XMCLib/src\xmc4_scu.c ****     clock_frequency = (uint32_t)(clock_frequency / 
 699:C:/Files/Projects/Git/XMCLib/src\xmc4_scu.c ****                       ((((SCU_PLL->PLLCON1) & SCU_PLL_PLLCON1_K1DIV_Msk) >> SCU_PLL_PLLCON1_K1DIV_P
 700:C:/Files/Projects/Git/XMCLib/src\xmc4_scu.c ****   }
 701:C:/Files/Projects/Git/XMCLib/src\xmc4_scu.c ****   else
 702:C:/Files/Projects/Git/XMCLib/src\xmc4_scu.c ****   {
 703:C:/Files/Projects/Git/XMCLib/src\xmc4_scu.c ****     p_div  = (uint32_t)((((SCU_PLL->PLLCON1) & SCU_PLL_PLLCON1_PDIV_Msk) >> SCU_PLL_PLLCON1_PDIV_Po
 704:C:/Files/Projects/Git/XMCLib/src\xmc4_scu.c ****     n_div  = (uint32_t)((((SCU_PLL->PLLCON1) & SCU_PLL_PLLCON1_NDIV_Msk) >> SCU_PLL_PLLCON1_NDIV_Po
 705:C:/Files/Projects/Git/XMCLib/src\xmc4_scu.c ****     k2_div = (uint32_t)((((SCU_PLL->PLLCON1) & SCU_PLL_PLLCON1_K2DIV_Msk) >> SCU_PLL_PLLCON1_K2DIV_
 706:C:/Files/Projects/Git/XMCLib/src\xmc4_scu.c ****        
 707:C:/Files/Projects/Git/XMCLib/src\xmc4_scu.c ****     clock_frequency = (clock_frequency * n_div) / (p_div * k2_div);
 708:C:/Files/Projects/Git/XMCLib/src\xmc4_scu.c ****   }
 709:C:/Files/Projects/Git/XMCLib/src\xmc4_scu.c **** 
 710:C:/Files/Projects/Git/XMCLib/src\xmc4_scu.c ****   return (clock_frequency);
 711:C:/Files/Projects/Git/XMCLib/src\xmc4_scu.c **** }
 712:C:/Files/Projects/Git/XMCLib/src\xmc4_scu.c **** 
 713:C:/Files/Projects/Git/XMCLib/src\xmc4_scu.c **** /**
 714:C:/Files/Projects/Git/XMCLib/src\xmc4_scu.c ****  * API to retrieve frequency of System PLL VCO input clock
 715:C:/Files/Projects/Git/XMCLib/src\xmc4_scu.c ****  */
 716:C:/Files/Projects/Git/XMCLib/src\xmc4_scu.c **** uint32_t XMC_SCU_CLOCK_GetSystemPllClockSourceFrequency(void)
 717:C:/Files/Projects/Git/XMCLib/src\xmc4_scu.c **** {
 1178              	 .loc 1 717 0
 1179              	 .cfi_startproc
 1180              	 
 1181              	 
 1182 0000 08B5     	 push {r3,lr}
 1183              	.LCFI3:
 1184              	 .cfi_def_cfa_offset 8
 1185              	 .cfi_offset 3,-8
 1186              	 .cfi_offset 14,-4
 718:C:/Files/Projects/Git/XMCLib/src\xmc4_scu.c ****   uint32_t clock_frequency;
 719:C:/Files/Projects/Git/XMCLib/src\xmc4_scu.c **** 
 720:C:/Files/Projects/Git/XMCLib/src\xmc4_scu.c ****   /* Prescalar mode - fOSC is the parent*/
 721:C:/Files/Projects/Git/XMCLib/src\xmc4_scu.c ****   if((SCU_PLL->PLLCON2 & SCU_PLL_PLLCON2_PINSEL_Msk) == (uint32_t)XMC_SCU_CLOCK_SYSPLLCLKSRC_OSCHP)
 1187              	 .loc 1 721 0
 1188 0002 054B     	 ldr r3,.L129
 1189 0004 DB68     	 ldr r3,[r3,#12]
 1190 0006 13F0010F 	 tst r3,#1
 1191 000a 02D1     	 bne .L127
 722:C:/Files/Projects/Git/XMCLib/src\xmc4_scu.c ****   {
 723:C:/Files/Projects/Git/XMCLib/src\xmc4_scu.c ****     clock_frequency = OSCHP_GetFrequency();
 1192              	 .loc 1 723 0
 1193 000c FFF7FEFF 	 bl OSCHP_GetFrequency
 1194              	.LVL74:
 1195 0010 08BD     	 pop {r3,pc}
 1196              	.LVL75:
 1197              	.L127:
 724:C:/Files/Projects/Git/XMCLib/src\xmc4_scu.c ****   }
 725:C:/Files/Projects/Git/XMCLib/src\xmc4_scu.c ****   else
 726:C:/Files/Projects/Git/XMCLib/src\xmc4_scu.c ****   {
 727:C:/Files/Projects/Git/XMCLib/src\xmc4_scu.c ****     clock_frequency = OFI_FREQUENCY;
 1198              	 .loc 1 727 0
 1199 0012 0248     	 ldr r0,.L129+4
 1200              	.LVL76:
 728:C:/Files/Projects/Git/XMCLib/src\xmc4_scu.c ****   }
 729:C:/Files/Projects/Git/XMCLib/src\xmc4_scu.c ****   
 730:C:/Files/Projects/Git/XMCLib/src\xmc4_scu.c ****   return (clock_frequency);
 731:C:/Files/Projects/Git/XMCLib/src\xmc4_scu.c **** }
 1201              	 .loc 1 731 0
 1202 0014 08BD     	 pop {r3,pc}
 1203              	.L130:
 1204 0016 00BF     	 .align 2
 1205              	.L129:
 1206 0018 10470050 	 .word 1342195472
 1207 001c 00366E01 	 .word 24000000
 1208              	 .cfi_endproc
 1209              	.LFE215:
 1211              	 .section .text.XMC_SCU_CLOCK_GetSystemPllClockFrequency,"ax",%progbits
 1212              	 .align 2
 1213              	 .global XMC_SCU_CLOCK_GetSystemPllClockFrequency
 1214              	 .thumb
 1215              	 .thumb_func
 1217              	XMC_SCU_CLOCK_GetSystemPllClockFrequency:
 1218              	.LFB214:
 688:C:/Files/Projects/Git/XMCLib/src\xmc4_scu.c ****   uint32_t clock_frequency;
 1219              	 .loc 1 688 0
 1220              	 .cfi_startproc
 1221              	 
 1222              	 
 1223 0000 08B5     	 push {r3,lr}
 1224              	.LCFI4:
 1225              	 .cfi_def_cfa_offset 8
 1226              	 .cfi_offset 3,-8
 1227              	 .cfi_offset 14,-4
 694:C:/Files/Projects/Git/XMCLib/src\xmc4_scu.c ****   if(SCU_PLL->PLLSTAT & SCU_PLL_PLLSTAT_VCOBYST_Msk)
 1228              	 .loc 1 694 0
 1229 0002 FFF7FEFF 	 bl XMC_SCU_CLOCK_GetSystemPllClockSourceFrequency
 1230              	.LVL77:
 695:C:/Files/Projects/Git/XMCLib/src\xmc4_scu.c ****   {
 1231              	 .loc 1 695 0
 1232 0006 0F4B     	 ldr r3,.L135
 1233 0008 1B68     	 ldr r3,[r3]
 1234 000a 13F0010F 	 tst r3,#1
 1235 000e 07D0     	 beq .L132
 699:C:/Files/Projects/Git/XMCLib/src\xmc4_scu.c ****   }
 1236              	 .loc 1 699 0
 1237 0010 0C4B     	 ldr r3,.L135
 1238 0012 9B68     	 ldr r3,[r3,#8]
 1239 0014 03F07F03 	 and r3,r3,#127
 1240 0018 0133     	 adds r3,r3,#1
 698:C:/Files/Projects/Git/XMCLib/src\xmc4_scu.c ****                       ((((SCU_PLL->PLLCON1) & SCU_PLL_PLLCON1_K1DIV_Msk) >> SCU_PLL_PLLCON1_K1DIV_P
 1241              	 .loc 1 698 0
 1242 001a B0FBF3F0 	 udiv r0,r0,r3
 1243              	.LVL78:
 1244 001e 08BD     	 pop {r3,pc}
 1245              	.L132:
 703:C:/Files/Projects/Git/XMCLib/src\xmc4_scu.c ****     n_div  = (uint32_t)((((SCU_PLL->PLLCON1) & SCU_PLL_PLLCON1_NDIV_Msk) >> SCU_PLL_PLLCON1_NDIV_Po
 1246              	 .loc 1 703 0
 1247 0020 084B     	 ldr r3,.L135
 1248 0022 9A68     	 ldr r2,[r3,#8]
 1249              	.LVL79:
 704:C:/Files/Projects/Git/XMCLib/src\xmc4_scu.c ****     k2_div = (uint32_t)((((SCU_PLL->PLLCON1) & SCU_PLL_PLLCON1_K2DIV_Msk) >> SCU_PLL_PLLCON1_K2DIV_
 1250              	 .loc 1 704 0
 1251 0024 9968     	 ldr r1,[r3,#8]
 1252              	.LVL80:
 705:C:/Files/Projects/Git/XMCLib/src\xmc4_scu.c ****        
 1253              	 .loc 1 705 0
 1254 0026 9B68     	 ldr r3,[r3,#8]
 1255              	.LVL81:
 704:C:/Files/Projects/Git/XMCLib/src\xmc4_scu.c ****     k2_div = (uint32_t)((((SCU_PLL->PLLCON1) & SCU_PLL_PLLCON1_K2DIV_Msk) >> SCU_PLL_PLLCON1_K2DIV_
 1256              	 .loc 1 704 0
 1257 0028 C1F30621 	 ubfx r1,r1,#8,#7
 1258              	.LVL82:
 707:C:/Files/Projects/Git/XMCLib/src\xmc4_scu.c ****   }
 1259              	 .loc 1 707 0
 1260 002c 01FB0000 	 mla r0,r1,r0,r0
 1261              	.LVL83:
 705:C:/Files/Projects/Git/XMCLib/src\xmc4_scu.c ****        
 1262              	 .loc 1 705 0
 1263 0030 C3F30641 	 ubfx r1,r3,#16,#7
 703:C:/Files/Projects/Git/XMCLib/src\xmc4_scu.c ****     n_div  = (uint32_t)((((SCU_PLL->PLLCON1) & SCU_PLL_PLLCON1_NDIV_Msk) >> SCU_PLL_PLLCON1_NDIV_Po
 1264              	 .loc 1 703 0
 1265 0034 C2F30362 	 ubfx r2,r2,#24,#4
 1266              	.LVL84:
 1267 0038 531C     	 adds r3,r2,#1
 1268              	.LVL85:
 707:C:/Files/Projects/Git/XMCLib/src\xmc4_scu.c ****   }
 1269              	 .loc 1 707 0
 1270 003a 01FB0333 	 mla r3,r1,r3,r3
 1271 003e B0FBF3F0 	 udiv r0,r0,r3
 1272              	.LVL86:
 711:C:/Files/Projects/Git/XMCLib/src\xmc4_scu.c **** 
 1273              	 .loc 1 711 0
 1274 0042 08BD     	 pop {r3,pc}
 1275              	.L136:
 1276              	 .align 2
 1277              	.L135:
 1278 0044 10470050 	 .word 1342195472
 1279              	 .cfi_endproc
 1280              	.LFE214:
 1282              	 .section .text.XMC_SCU_CLOCK_GetUsbPllClockFrequency,"ax",%progbits
 1283              	 .align 2
 1284              	 .global XMC_SCU_CLOCK_GetUsbPllClockFrequency
 1285              	 .thumb
 1286              	 .thumb_func
 1288              	XMC_SCU_CLOCK_GetUsbPllClockFrequency:
 1289              	.LFB216:
 732:C:/Files/Projects/Git/XMCLib/src\xmc4_scu.c **** 
 733:C:/Files/Projects/Git/XMCLib/src\xmc4_scu.c **** /*
 734:C:/Files/Projects/Git/XMCLib/src\xmc4_scu.c ****  * API to retrieve frequency of USB PLL output clock
 735:C:/Files/Projects/Git/XMCLib/src\xmc4_scu.c ****  */
 736:C:/Files/Projects/Git/XMCLib/src\xmc4_scu.c **** uint32_t XMC_SCU_CLOCK_GetUsbPllClockFrequency(void)
 737:C:/Files/Projects/Git/XMCLib/src\xmc4_scu.c **** {
 1290              	 .loc 1 737 0
 1291              	 .cfi_startproc
 1292              	 
 1293              	 
 1294 0000 08B5     	 push {r3,lr}
 1295              	.LCFI5:
 1296              	 .cfi_def_cfa_offset 8
 1297              	 .cfi_offset 3,-8
 1298              	 .cfi_offset 14,-4
 738:C:/Files/Projects/Git/XMCLib/src\xmc4_scu.c ****   uint32_t clock_frequency;
 739:C:/Files/Projects/Git/XMCLib/src\xmc4_scu.c ****   uint32_t n_div;
 740:C:/Files/Projects/Git/XMCLib/src\xmc4_scu.c ****   uint32_t p_div;
 741:C:/Files/Projects/Git/XMCLib/src\xmc4_scu.c ****   
 742:C:/Files/Projects/Git/XMCLib/src\xmc4_scu.c ****   clock_frequency = OSCHP_GetFrequency();
 1299              	 .loc 1 742 0
 1300 0002 FFF7FEFF 	 bl OSCHP_GetFrequency
 1301              	.LVL87:
 743:C:/Files/Projects/Git/XMCLib/src\xmc4_scu.c ****   if((SCU_PLL->USBPLLSTAT & SCU_PLL_USBPLLSTAT_VCOBYST_Msk) == 0U)
 1302              	 .loc 1 743 0
 1303 0006 094B     	 ldr r3,.L140
 1304 0008 1B69     	 ldr r3,[r3,#16]
 1305 000a 13F0010F 	 tst r3,#1
 1306 000e 0CD1     	 bne .L138
 744:C:/Files/Projects/Git/XMCLib/src\xmc4_scu.c ****   {
 745:C:/Files/Projects/Git/XMCLib/src\xmc4_scu.c ****     /* Normal mode - fVCO is the parent*/
 746:C:/Files/Projects/Git/XMCLib/src\xmc4_scu.c ****     n_div = (uint32_t)((((SCU_PLL->USBPLLCON) & SCU_PLL_USBPLLCON_NDIV_Msk) >> SCU_PLL_USBPLLCON_ND
 1307              	 .loc 1 746 0
 1308 0010 064B     	 ldr r3,.L140
 1309 0012 5A69     	 ldr r2,[r3,#20]
 1310              	.LVL88:
 747:C:/Files/Projects/Git/XMCLib/src\xmc4_scu.c ****     p_div = (uint32_t)((((SCU_PLL->USBPLLCON) & SCU_PLL_USBPLLCON_PDIV_Msk) >> SCU_PLL_USBPLLCON_PD
 1311              	 .loc 1 747 0
 1312 0014 5B69     	 ldr r3,[r3,#20]
 1313              	.LVL89:
 746:C:/Files/Projects/Git/XMCLib/src\xmc4_scu.c ****     p_div = (uint32_t)((((SCU_PLL->USBPLLCON) & SCU_PLL_USBPLLCON_PDIV_Msk) >> SCU_PLL_USBPLLCON_PD
 1314              	 .loc 1 746 0
 1315 0016 C2F30622 	 ubfx r2,r2,#8,#7
 1316              	.LVL90:
 748:C:/Files/Projects/Git/XMCLib/src\xmc4_scu.c ****     clock_frequency = (uint32_t)((clock_frequency * n_div)/ (uint32_t)(p_div * 2UL));
 1317              	 .loc 1 748 0
 1318 001a 02FB0000 	 mla r0,r2,r0,r0
 1319              	.LVL91:
 747:C:/Files/Projects/Git/XMCLib/src\xmc4_scu.c ****     p_div = (uint32_t)((((SCU_PLL->USBPLLCON) & SCU_PLL_USBPLLCON_PDIV_Msk) >> SCU_PLL_USBPLLCON_PD
 1320              	 .loc 1 747 0
 1321 001e C3F30363 	 ubfx r3,r3,#24,#4
 1322              	.LVL92:
 1323 0022 0133     	 adds r3,r3,#1
 1324              	 .loc 1 748 0
 1325 0024 5B00     	 lsls r3,r3,#1
 1326 0026 B0FBF3F0 	 udiv r0,r0,r3
 1327              	.LVL93:
 1328              	.L138:
 749:C:/Files/Projects/Git/XMCLib/src\xmc4_scu.c ****   }
 750:C:/Files/Projects/Git/XMCLib/src\xmc4_scu.c ****   return (clock_frequency);
 751:C:/Files/Projects/Git/XMCLib/src\xmc4_scu.c **** }
 1329              	 .loc 1 751 0
 1330 002a 08BD     	 pop {r3,pc}
 1331              	.L141:
 1332              	 .align 2
 1333              	.L140:
 1334 002c 10470050 	 .word 1342195472
 1335              	 .cfi_endproc
 1336              	.LFE216:
 1338              	 .section .text.XMC_SCU_CLOCK_GetCcuClockFrequency,"ax",%progbits
 1339              	 .align 2
 1340              	 .global XMC_SCU_CLOCK_GetCcuClockFrequency
 1341              	 .thumb
 1342              	 .thumb_func
 1344              	XMC_SCU_CLOCK_GetCcuClockFrequency:
 1345              	.LFB217:
 752:C:/Files/Projects/Git/XMCLib/src\xmc4_scu.c **** 
 753:C:/Files/Projects/Git/XMCLib/src\xmc4_scu.c **** /*
 754:C:/Files/Projects/Git/XMCLib/src\xmc4_scu.c ****  * API to retrieve frequency of CCU clock frequency
 755:C:/Files/Projects/Git/XMCLib/src\xmc4_scu.c ****  */
 756:C:/Files/Projects/Git/XMCLib/src\xmc4_scu.c **** uint32_t XMC_SCU_CLOCK_GetCcuClockFrequency(void)
 757:C:/Files/Projects/Git/XMCLib/src\xmc4_scu.c **** {
 1346              	 .loc 1 757 0
 1347              	 .cfi_startproc
 1348              	 
 1349              	 
 1350              	 
 1351              	.LVL94:
 1352              	.LBB16:
 1353              	.LBB17:
 1354              	 .file 2 "C:/Files/Projects/Git/XMCLib/inc/xmc4_scu.h"
   1:C:/Files/Projects/Git/XMCLib/inc\xmc4_scu.h **** /**
   2:C:/Files/Projects/Git/XMCLib/inc\xmc4_scu.h ****  * @file xmc4_scu.h
   3:C:/Files/Projects/Git/XMCLib/inc\xmc4_scu.h ****  * @date 2019-02-18
   4:C:/Files/Projects/Git/XMCLib/inc\xmc4_scu.h ****  *
   5:C:/Files/Projects/Git/XMCLib/inc\xmc4_scu.h ****  * @cond
   6:C:/Files/Projects/Git/XMCLib/inc\xmc4_scu.h ****  **************************************************************************************************
   7:C:/Files/Projects/Git/XMCLib/inc\xmc4_scu.h ****  * XMClib v2.1.24 - XMC Peripheral Driver Library 
   8:C:/Files/Projects/Git/XMCLib/inc\xmc4_scu.h ****  *
   9:C:/Files/Projects/Git/XMCLib/inc\xmc4_scu.h ****  * Copyright (c) 2015-2019, Infineon Technologies AG
  10:C:/Files/Projects/Git/XMCLib/inc\xmc4_scu.h ****  * All rights reserved.                        
  11:C:/Files/Projects/Git/XMCLib/inc\xmc4_scu.h ****  *                                             
  12:C:/Files/Projects/Git/XMCLib/inc\xmc4_scu.h ****  * Redistribution and use in source and binary forms, with or without modification,are permitted pr
  13:C:/Files/Projects/Git/XMCLib/inc\xmc4_scu.h ****  * following conditions are met:   
  14:C:/Files/Projects/Git/XMCLib/inc\xmc4_scu.h ****  *                                                                              
  15:C:/Files/Projects/Git/XMCLib/inc\xmc4_scu.h ****  * Redistributions of source code must retain the above copyright notice, this list of conditions a
  16:C:/Files/Projects/Git/XMCLib/inc\xmc4_scu.h ****  * disclaimer.                        
  17:C:/Files/Projects/Git/XMCLib/inc\xmc4_scu.h ****  * 
  18:C:/Files/Projects/Git/XMCLib/inc\xmc4_scu.h ****  * Redistributions in binary form must reproduce the above copyright notice, this list of condition
  19:C:/Files/Projects/Git/XMCLib/inc\xmc4_scu.h ****  * disclaimer in the documentation and/or other materials provided with the distribution.          
  20:C:/Files/Projects/Git/XMCLib/inc\xmc4_scu.h ****  * 
  21:C:/Files/Projects/Git/XMCLib/inc\xmc4_scu.h ****  * Neither the name of the copyright holders nor the names of its contributors may be used to endor
  22:C:/Files/Projects/Git/XMCLib/inc\xmc4_scu.h ****  * products derived from this software without specific prior written permission.                  
  23:C:/Files/Projects/Git/XMCLib/inc\xmc4_scu.h ****  *                                                                              
  24:C:/Files/Projects/Git/XMCLib/inc\xmc4_scu.h ****  * THIS SOFTWARE IS PROVIDED BY THE COPYRIGHT HOLDERS AND CONTRIBUTORS "AS IS" AND ANY EXPRESS OR I
  25:C:/Files/Projects/Git/XMCLib/inc\xmc4_scu.h ****  * INCLUDING, BUT NOT LIMITED TO, THE IMPLIED WARRANTIES OF MERCHANTABILITY AND FITNESS FOR A PARTI
  26:C:/Files/Projects/Git/XMCLib/inc\xmc4_scu.h ****  * DISCLAIMED. IN NO EVENT SHALL THE COPYRIGHT HOLDER OR CONTRIBUTORS BE LIABLE  FOR ANY DIRECT, IN
  27:C:/Files/Projects/Git/XMCLib/inc\xmc4_scu.h ****  * SPECIAL, EXEMPLARY, OR CONSEQUENTIAL DAMAGES (INCLUDING, BUT NOT LIMITED TO, PROCUREMENT OF SUBS
  28:C:/Files/Projects/Git/XMCLib/inc\xmc4_scu.h ****  * SERVICES; LOSS OF USE, DATA, OR PROFITS; OR BUSINESS INTERRUPTION) HOWEVER CAUSED AND ON ANY THE
  29:C:/Files/Projects/Git/XMCLib/inc\xmc4_scu.h ****  * WHETHER IN CONTRACT, STRICT LIABILITY,OR TORT (INCLUDING NEGLIGENCE OR OTHERWISE) ARISING IN ANY
  30:C:/Files/Projects/Git/XMCLib/inc\xmc4_scu.h ****  * OF THIS SOFTWARE, EVEN IF ADVISED OF THE POSSIBILITY OF SUCH DAMAGE.                            
  31:C:/Files/Projects/Git/XMCLib/inc\xmc4_scu.h ****  *                                                                              
  32:C:/Files/Projects/Git/XMCLib/inc\xmc4_scu.h ****  * To improve the quality of the software, users are encouraged to share modifications, enhancement
  33:C:/Files/Projects/Git/XMCLib/inc\xmc4_scu.h ****  * Infineon Technologies AG dave@infineon.com).                                                    
  34:C:/Files/Projects/Git/XMCLib/inc\xmc4_scu.h ****  **************************************************************************************************
  35:C:/Files/Projects/Git/XMCLib/inc\xmc4_scu.h ****  *
  36:C:/Files/Projects/Git/XMCLib/inc\xmc4_scu.h ****  * Change History
  37:C:/Files/Projects/Git/XMCLib/inc\xmc4_scu.h ****  * --------------
  38:C:/Files/Projects/Git/XMCLib/inc\xmc4_scu.h ****  *
  39:C:/Files/Projects/Git/XMCLib/inc\xmc4_scu.h ****  * 2015-06-20:
  40:C:/Files/Projects/Git/XMCLib/inc\xmc4_scu.h ****  *     - Initial version
  41:C:/Files/Projects/Git/XMCLib/inc\xmc4_scu.h ****  *     - Documentation improved
  42:C:/Files/Projects/Git/XMCLib/inc\xmc4_scu.h ****  *
  43:C:/Files/Projects/Git/XMCLib/inc\xmc4_scu.h ****  * 2015-11-30:
  44:C:/Files/Projects/Git/XMCLib/inc\xmc4_scu.h ****  *     - Documentation improved
  45:C:/Files/Projects/Git/XMCLib/inc\xmc4_scu.h ****  *      
  46:C:/Files/Projects/Git/XMCLib/inc\xmc4_scu.h ****  * 2016-03-09:
  47:C:/Files/Projects/Git/XMCLib/inc\xmc4_scu.h ****  *     - Added XMC_SCU_POWER_EnableMonitor/XMC_SCU_POWER_DisableMonitor
  48:C:/Files/Projects/Git/XMCLib/inc\xmc4_scu.h ****  *             XMC_SCU_POWER_GetEVRStatus, XMC_SCU_POWER_GetEVR13Voltage, XMC_SCU_POWER_GetEVR33Vol
  49:C:/Files/Projects/Git/XMCLib/inc\xmc4_scu.h ****  *     - Added XMC_SCU_HIB_GetHibernateControlStatus,
  50:C:/Files/Projects/Git/XMCLib/inc\xmc4_scu.h ****  *             XMC_SCU_HIB_GetEventStatus, XMC_SCU_HIB_ClearEventStatus, XMC_SCU_HIB_TriggerEvent, 
  51:C:/Files/Projects/Git/XMCLib/inc\xmc4_scu.h ****  *             XMC_SCU_HIB_EnableEvent, XMC_SCU_HIB_DisableEvent
  52:C:/Files/Projects/Git/XMCLib/inc\xmc4_scu.h ****  *     - Added XMC_SCU_HIB_SetWakeupTriggerInput, XMC_SCU_HIB_SetPinMode, XMC_SCU_HIB_SetOutputPinL
  53:C:/Files/Projects/Git/XMCLib/inc\xmc4_scu.h ****  *             XMC_SCU_HIB_SetInput0, XMC_SCU_HIB_EnterHibernateState
  54:C:/Files/Projects/Git/XMCLib/inc\xmc4_scu.h ****  *
  55:C:/Files/Projects/Git/XMCLib/inc\xmc4_scu.h ****  * 2016-04-15:
  56:C:/Files/Projects/Git/XMCLib/inc\xmc4_scu.h ****  *     - Fixed naming of XMC_SCU_CLOCK_DEEPSLEEP_MODE_CONFIG peripheral clock.
  57:C:/Files/Projects/Git/XMCLib/inc\xmc4_scu.h ****  *       Added enable and disable for peripheral clocks       
  58:C:/Files/Projects/Git/XMCLib/inc\xmc4_scu.h ****  * 
  59:C:/Files/Projects/Git/XMCLib/inc\xmc4_scu.h ****  * 2016-05-19:
  60:C:/Files/Projects/Git/XMCLib/inc\xmc4_scu.h ****  *     - Added XMC_SCU_CLOCK_IsLowPowerOscillatorStable() and XMC_SCU_CLOCK_IsHighPerformanceOscill
  61:C:/Files/Projects/Git/XMCLib/inc\xmc4_scu.h ****  *     - Added XMC_SCU_POWER_WaitForInterrupt() and XMC_SCU_POWER_WaitForEvent()
  62:C:/Files/Projects/Git/XMCLib/inc\xmc4_scu.h ****  *     - Added XMC_SCU_CLOCK_EnableLowPowerOscillatorGeneralPurposeInput(), 
  63:C:/Files/Projects/Git/XMCLib/inc\xmc4_scu.h ****  *             XMC_SCU_CLOCK_DisableLowPowerOscillatorGeneralPurposeInput(),
  64:C:/Files/Projects/Git/XMCLib/inc\xmc4_scu.h ****  *             XMC_SCU_CLOCK_GetLowPowerOscillatorGeneralPurposeInputStatus()
  65:C:/Files/Projects/Git/XMCLib/inc\xmc4_scu.h ****  *     - Added XMC_SCU_CLOCK_EnableHighPerformanceOscillatorGeneralPurposeInput(), 
  66:C:/Files/Projects/Git/XMCLib/inc\xmc4_scu.h ****  *             XMC_SCU_CLOCK_DisableHighPerformanceOscillatorGeneralPurposeInput(),
  67:C:/Files/Projects/Git/XMCLib/inc\xmc4_scu.h ****  *             XMC_SCU_CLOCK_GetHighPerformanceOscillatorGeneralPurposeInputStatus()
  68:C:/Files/Projects/Git/XMCLib/inc\xmc4_scu.h ****  *     - Removed XMC_SCU_INTERRUPT_EVENT_OSCULSTAT_UPDATED, XMC_SCU_INTERRUPT_EVENT_HDSTAT_UPDATED
  69:C:/Files/Projects/Git/XMCLib/inc\xmc4_scu.h ****  *
  70:C:/Files/Projects/Git/XMCLib/inc\xmc4_scu.h ****  * 2016-06-14:
  71:C:/Files/Projects/Git/XMCLib/inc\xmc4_scu.h ****  *     - Added XMC_SCU_HIB_IsWakeupEventDetected() and XMC_SCU_HIB_ClearWakeupEventDetectionStatus(
  72:C:/Files/Projects/Git/XMCLib/inc\xmc4_scu.h ****  *
  73:C:/Files/Projects/Git/XMCLib/inc\xmc4_scu.h ****  * 2016-06-15:
  74:C:/Files/Projects/Git/XMCLib/inc\xmc4_scu.h ****  *     - Added XMC_SCU_HIB_EnterHibernateStateEx() which allows to select between external or inter
  75:C:/Files/Projects/Git/XMCLib/inc\xmc4_scu.h ****  *     - Extended wakeup hibernate events using LPAC wakeup on events. Only available in XMC44, XMC
  76:C:/Files/Projects/Git/XMCLib/inc\xmc4_scu.h ****  *     - Added LPAC APIs. Only available in XMC44, XMC42 and XMC41 series.
  77:C:/Files/Projects/Git/XMCLib/inc\xmc4_scu.h ****  *
  78:C:/Files/Projects/Git/XMCLib/inc\xmc4_scu.h ****  * 2019-02-18:
  79:C:/Files/Projects/Git/XMCLib/inc\xmc4_scu.h ****  *     - Fix conditional definition of XMC_SCU_PARITY_t elements
  80:C:/Files/Projects/Git/XMCLib/inc\xmc4_scu.h ****  *     - Added XMC_SCU_PARITY_OverrideParityBitLogic(uint32_t memory)
  81:C:/Files/Projects/Git/XMCLib/inc\xmc4_scu.h ****  *             XMC_SCU_PARITY_SelectMemoryTest(const XMC_SCU_PARITY_t memory)
  82:C:/Files/Projects/Git/XMCLib/inc\xmc4_scu.h ****  *             XMC_SCU_PARITY_SetParityWriteValue(uint8_t val)
  83:C:/Files/Projects/Git/XMCLib/inc\xmc4_scu.h ****  *             XMC_SCU_PARITY_GetParityReadValue(void)
  84:C:/Files/Projects/Git/XMCLib/inc\xmc4_scu.h ****  *
  85:C:/Files/Projects/Git/XMCLib/inc\xmc4_scu.h ****  * @endcond 
  86:C:/Files/Projects/Git/XMCLib/inc\xmc4_scu.h ****  *
  87:C:/Files/Projects/Git/XMCLib/inc\xmc4_scu.h ****  */
  88:C:/Files/Projects/Git/XMCLib/inc\xmc4_scu.h **** 
  89:C:/Files/Projects/Git/XMCLib/inc\xmc4_scu.h **** #ifndef XMC4_SCU_H
  90:C:/Files/Projects/Git/XMCLib/inc\xmc4_scu.h **** #define XMC4_SCU_H
  91:C:/Files/Projects/Git/XMCLib/inc\xmc4_scu.h **** 
  92:C:/Files/Projects/Git/XMCLib/inc\xmc4_scu.h **** /**************************************************************************************************
  93:C:/Files/Projects/Git/XMCLib/inc\xmc4_scu.h ****  * HEADER FILES
  94:C:/Files/Projects/Git/XMCLib/inc\xmc4_scu.h ****  **************************************************************************************************
  95:C:/Files/Projects/Git/XMCLib/inc\xmc4_scu.h **** 
  96:C:/Files/Projects/Git/XMCLib/inc\xmc4_scu.h **** #include "xmc_common.h"
  97:C:/Files/Projects/Git/XMCLib/inc\xmc4_scu.h **** 
  98:C:/Files/Projects/Git/XMCLib/inc\xmc4_scu.h **** #if UC_FAMILY == XMC4
  99:C:/Files/Projects/Git/XMCLib/inc\xmc4_scu.h **** 
 100:C:/Files/Projects/Git/XMCLib/inc\xmc4_scu.h **** /**
 101:C:/Files/Projects/Git/XMCLib/inc\xmc4_scu.h ****  * @addtogroup XMClib XMC Peripheral Library
 102:C:/Files/Projects/Git/XMCLib/inc\xmc4_scu.h ****  * @{
 103:C:/Files/Projects/Git/XMCLib/inc\xmc4_scu.h ****  */
 104:C:/Files/Projects/Git/XMCLib/inc\xmc4_scu.h ****  
 105:C:/Files/Projects/Git/XMCLib/inc\xmc4_scu.h **** /**
 106:C:/Files/Projects/Git/XMCLib/inc\xmc4_scu.h ****  * @addtogroup SCU
 107:C:/Files/Projects/Git/XMCLib/inc\xmc4_scu.h ****  * @{
 108:C:/Files/Projects/Git/XMCLib/inc\xmc4_scu.h ****  */
 109:C:/Files/Projects/Git/XMCLib/inc\xmc4_scu.h **** 
 110:C:/Files/Projects/Git/XMCLib/inc\xmc4_scu.h **** /**************************************************************************************************
 111:C:/Files/Projects/Git/XMCLib/inc\xmc4_scu.h ****  * MACROS
 112:C:/Files/Projects/Git/XMCLib/inc\xmc4_scu.h ****  **************************************************************************************************
 113:C:/Files/Projects/Git/XMCLib/inc\xmc4_scu.h **** #define PLL_PDIV_XTAL_8MHZ (1U)  /* PDIV value for main PLL settings, fPLL = 120MHz with fOSC = 8MH
 114:C:/Files/Projects/Git/XMCLib/inc\xmc4_scu.h **** #define PLL_NDIV_XTAL_8MHZ (89U)  /* NDIV value for main PLL settings, fPLL = 120MHz with fOSC = 8M
 115:C:/Files/Projects/Git/XMCLib/inc\xmc4_scu.h **** #define PLL_K2DIV_XTAL_8MHZ (2U)  /* K2DIV value for main PLL settings, fPLL = 120MHz with fOSC = 8
 116:C:/Files/Projects/Git/XMCLib/inc\xmc4_scu.h **** 
 117:C:/Files/Projects/Git/XMCLib/inc\xmc4_scu.h **** #define PLL_PDIV_XTAL_12MHZ (1U)  /* PDIV value for main PLL settings, fPLL = 120MHz with fOSC = 12
 118:C:/Files/Projects/Git/XMCLib/inc\xmc4_scu.h **** #define PLL_NDIV_XTAL_12MHZ (79U)  /* NDIV value for main PLL settings, fPLL = 120MHz with fOSC = 1
 119:C:/Files/Projects/Git/XMCLib/inc\xmc4_scu.h **** #define PLL_K2DIV_XTAL_12MHZ (3U)  /* K2DIV value for main PLL settings, fPLL = 120MHz with fOSC = 
 120:C:/Files/Projects/Git/XMCLib/inc\xmc4_scu.h **** 
 121:C:/Files/Projects/Git/XMCLib/inc\xmc4_scu.h **** #define PLL_PDIV_XTAL_16MHZ (1U)  /* PDIV value for main PLL settings, fPLL = 120MHz with fOSC = 16
 122:C:/Files/Projects/Git/XMCLib/inc\xmc4_scu.h **** #define PLL_NDIV_XTAL_16MHZ (59U)  /* NDIV value for main PLL settings, fPLL = 120MHz with fOSC = 1
 123:C:/Files/Projects/Git/XMCLib/inc\xmc4_scu.h **** #define PLL_K2DIV_XTAL_16MHZ (3U)  /* K2DIV value for main PLL settings, fPLL = 120MHz with fOSC = 
 124:C:/Files/Projects/Git/XMCLib/inc\xmc4_scu.h **** 
 125:C:/Files/Projects/Git/XMCLib/inc\xmc4_scu.h **** #define XMC_SCU_INTERRUPT_EVENT_WDT_WARN           SCU_INTERRUPT_SRSTAT_PRWARN_Msk /**< Watchdog pr
 126:C:/Files/Projects/Git/XMCLib/inc\xmc4_scu.h **** #define XMC_SCU_INTERRUPT_EVENT_RTC_PERIODIC       SCU_INTERRUPT_SRSTAT_PI_Msk     /**< RTC periodi
 127:C:/Files/Projects/Git/XMCLib/inc\xmc4_scu.h **** #define XMC_SCU_INTERRUPT_EVENT_RTC_ALARM          SCU_INTERRUPT_SRSTAT_AI_Msk     /**< RTC alarm e
 128:C:/Files/Projects/Git/XMCLib/inc\xmc4_scu.h **** #define XMC_SCU_INTERRUPT_EVENT_DLR_OVERRUN        SCU_INTERRUPT_SRSTAT_DLROVR_Msk /**< DLR overrun
 129:C:/Files/Projects/Git/XMCLib/inc\xmc4_scu.h **** #if defined(SCU_INTERRUPT_SRSTAT_LPACCR_Msk)
 130:C:/Files/Projects/Git/XMCLib/inc\xmc4_scu.h **** #define XMC_SCU_INTERRUPT_EVENT_LPACCR_UPDATED     SCU_INTERRUPT_SRSTAT_LPACCR_Msk /**< LPAC Contro
 131:C:/Files/Projects/Git/XMCLib/inc\xmc4_scu.h **** #endif
 132:C:/Files/Projects/Git/XMCLib/inc\xmc4_scu.h **** #if defined(SCU_INTERRUPT_SRSTAT_LPACTH0_Msk)
 133:C:/Files/Projects/Git/XMCLib/inc\xmc4_scu.h **** #define XMC_SCU_INTERRUPT_EVENT_LPACTH0_UPDATED    SCU_INTERRUPT_SRSTAT_LPACTH0_Msk /**< LPAC Thres
 134:C:/Files/Projects/Git/XMCLib/inc\xmc4_scu.h **** #endif
 135:C:/Files/Projects/Git/XMCLib/inc\xmc4_scu.h **** #if defined(SCU_INTERRUPT_SRSTAT_LPACTH1_Msk)
 136:C:/Files/Projects/Git/XMCLib/inc\xmc4_scu.h **** #define XMC_SCU_INTERRUPT_EVENT_LPACTH1_UPDATED    SCU_INTERRUPT_SRSTAT_LPACTH1_Msk  /**< LPAC Thre
 137:C:/Files/Projects/Git/XMCLib/inc\xmc4_scu.h **** #endif
 138:C:/Files/Projects/Git/XMCLib/inc\xmc4_scu.h **** #if defined(SCU_INTERRUPT_SRSTAT_LPACST_Msk)
 139:C:/Files/Projects/Git/XMCLib/inc\xmc4_scu.h **** #define XMC_SCU_INTERRUPT_EVENT_LPACST_UPDATED     SCU_INTERRUPT_SRSTAT_LPACST_Msk  /**< LPAC Statu
 140:C:/Files/Projects/Git/XMCLib/inc\xmc4_scu.h **** #endif
 141:C:/Files/Projects/Git/XMCLib/inc\xmc4_scu.h **** #if defined(SCU_INTERRUPT_SRSTAT_LPACCLR_Msk)
 142:C:/Files/Projects/Git/XMCLib/inc\xmc4_scu.h **** #define XMC_SCU_INTERRUPT_EVENT_LPACCLR_UPDATED    SCU_INTERRUPT_SRSTAT_LPACCLR_Msk /**< LPAC event
 143:C:/Files/Projects/Git/XMCLib/inc\xmc4_scu.h **** #endif
 144:C:/Files/Projects/Git/XMCLib/inc\xmc4_scu.h **** #if defined(SCU_INTERRUPT_SRSTAT_LPACSET_Msk)
 145:C:/Files/Projects/Git/XMCLib/inc\xmc4_scu.h **** #define XMC_SCU_INTERRUPT_EVENT_LPACSET_UPDATED    SCU_INTERRUPT_SRSTAT_LPACSET_Msk /**< LPAC event
 146:C:/Files/Projects/Git/XMCLib/inc\xmc4_scu.h **** #endif
 147:C:/Files/Projects/Git/XMCLib/inc\xmc4_scu.h **** #if defined(SCU_INTERRUPT_SRSTAT_HINTST_Msk)
 148:C:/Files/Projects/Git/XMCLib/inc\xmc4_scu.h **** #define XMC_SCU_INTERRUPT_EVENT_HINTST_UPDATED     SCU_INTERRUPT_SRSTAT_HINTST_Msk /**< HIB HINTST 
 149:C:/Files/Projects/Git/XMCLib/inc\xmc4_scu.h **** #endif
 150:C:/Files/Projects/Git/XMCLib/inc\xmc4_scu.h **** #if defined(SCU_INTERRUPT_SRSTAT_HINTCLR_Msk)
 151:C:/Files/Projects/Git/XMCLib/inc\xmc4_scu.h **** #define XMC_SCU_INTERRUPT_EVENT_HINTCLR_UPDATED    SCU_INTERRUPT_SRSTAT_HINTCLR_Msk /**< HIB HINTCL
 152:C:/Files/Projects/Git/XMCLib/inc\xmc4_scu.h **** #endif
 153:C:/Files/Projects/Git/XMCLib/inc\xmc4_scu.h **** #if defined(SCU_INTERRUPT_SRSTAT_HINTSET_Msk)
 154:C:/Files/Projects/Git/XMCLib/inc\xmc4_scu.h **** #define XMC_SCU_INTERRUPT_EVENT_HINTSET_UPDATED    SCU_INTERRUPT_SRSTAT_HINTSET_Msk /**< HIB HINTSE
 155:C:/Files/Projects/Git/XMCLib/inc\xmc4_scu.h **** #endif
 156:C:/Files/Projects/Git/XMCLib/inc\xmc4_scu.h **** #define XMC_SCU_INTERRUPT_EVENT_HDCLR_UPDATED      SCU_INTERRUPT_SRSTAT_HDCLR_Msk /**< HIB HDCLR re
 157:C:/Files/Projects/Git/XMCLib/inc\xmc4_scu.h **** #define XMC_SCU_INTERRUPT_EVENT_HDSET_UPDATED      SCU_INTERRUPT_SRSTAT_HDSET_Msk /**< HIB HDSET re
 158:C:/Files/Projects/Git/XMCLib/inc\xmc4_scu.h **** #define XMC_SCU_INTERRUPT_EVENT_HDCR_UPDATED       SCU_INTERRUPT_SRSTAT_HDCR_Msk /**< HIB HDCR regi
 159:C:/Files/Projects/Git/XMCLib/inc\xmc4_scu.h **** #define XMC_SCU_INTERRUPT_EVENT_OSCSICTRL_UPDATED  SCU_INTERRUPT_SRSTAT_OSCSICTRL_Msk /**< HIB OSCS
 160:C:/Files/Projects/Git/XMCLib/inc\xmc4_scu.h **** #define XMC_SCU_INTERRUPT_EVENT_OSCULCTRL_UPDATED  SCU_INTERRUPT_SRSTAT_OSCULCTRL_Msk /**< HIB OSCU
 161:C:/Files/Projects/Git/XMCLib/inc\xmc4_scu.h **** #define XMC_SCU_INTERRUPT_EVENT_RTCCTR_UPDATED     SCU_INTERRUPT_SRSTAT_RTC_CTR_Msk /**< HIB RTCCTR
 162:C:/Files/Projects/Git/XMCLib/inc\xmc4_scu.h **** #define XMC_SCU_INTERRUPT_EVENT_RTCATIM0_UPDATED   SCU_INTERRUPT_SRSTAT_RTC_ATIM0_Msk /**< HIB RTCA
 163:C:/Files/Projects/Git/XMCLib/inc\xmc4_scu.h **** #define XMC_SCU_INTERRUPT_EVENT_RTCATIM1_UPDATED   SCU_INTERRUPT_SRSTAT_RTC_ATIM1_Msk /**< HIB RTCA
 164:C:/Files/Projects/Git/XMCLib/inc\xmc4_scu.h **** #define XMC_SCU_INTERRUPT_EVENT_RTCTIM0_UPDATED    SCU_INTERRUPT_SRSTAT_RTC_TIM0_Msk /**< HIB TIM0 
 165:C:/Files/Projects/Git/XMCLib/inc\xmc4_scu.h **** #define XMC_SCU_INTERRUPT_EVENT_RTCTIM1_UPDATED    SCU_INTERRUPT_SRSTAT_RTC_TIM1_Msk /**< HIB TIM1 
 166:C:/Files/Projects/Git/XMCLib/inc\xmc4_scu.h **** #define XMC_SCU_INTERRUPT_EVENT_RMX_UPDATED        SCU_INTERRUPT_SRSTAT_RMX_Msk /**< HIB RMX regist
 167:C:/Files/Projects/Git/XMCLib/inc\xmc4_scu.h **** 
 168:C:/Files/Projects/Git/XMCLib/inc\xmc4_scu.h **** /**************************************************************************************************
 169:C:/Files/Projects/Git/XMCLib/inc\xmc4_scu.h ****  * ENUMS
 170:C:/Files/Projects/Git/XMCLib/inc\xmc4_scu.h ****  **************************************************************************************************
 171:C:/Files/Projects/Git/XMCLib/inc\xmc4_scu.h **** /**
 172:C:/Files/Projects/Git/XMCLib/inc\xmc4_scu.h ****  *  Defines Capture/Compare unit timer slice trigger, that enables synchronous start function avail
 173:C:/Files/Projects/Git/XMCLib/inc\xmc4_scu.h ****  *  CCUCON register. Use type \a XMC_SCU_CCU_TRIGGER_t for accessing these enum parameters.
 174:C:/Files/Projects/Git/XMCLib/inc\xmc4_scu.h ****  */
 175:C:/Files/Projects/Git/XMCLib/inc\xmc4_scu.h **** typedef enum XMC_SCU_CCU_TRIGGER
 176:C:/Files/Projects/Git/XMCLib/inc\xmc4_scu.h **** {
 177:C:/Files/Projects/Git/XMCLib/inc\xmc4_scu.h **** #if defined(CCU40)
 178:C:/Files/Projects/Git/XMCLib/inc\xmc4_scu.h ****   XMC_SCU_CCU_TRIGGER_CCU40 = SCU_GENERAL_CCUCON_GSC40_Msk, /**< Trigger mask used for Global Start
 179:C:/Files/Projects/Git/XMCLib/inc\xmc4_scu.h ****                                                                  CCU40 peripheral. */
 180:C:/Files/Projects/Git/XMCLib/inc\xmc4_scu.h **** #endif
 181:C:/Files/Projects/Git/XMCLib/inc\xmc4_scu.h **** #if defined(CCU41)
 182:C:/Files/Projects/Git/XMCLib/inc\xmc4_scu.h ****   XMC_SCU_CCU_TRIGGER_CCU41 = SCU_GENERAL_CCUCON_GSC41_Msk, /**< Trigger mask used for Global Start
 183:C:/Files/Projects/Git/XMCLib/inc\xmc4_scu.h ****                                                                  CCU41 peripheral. */
 184:C:/Files/Projects/Git/XMCLib/inc\xmc4_scu.h **** #endif
 185:C:/Files/Projects/Git/XMCLib/inc\xmc4_scu.h **** #if defined(CCU42)
 186:C:/Files/Projects/Git/XMCLib/inc\xmc4_scu.h ****   XMC_SCU_CCU_TRIGGER_CCU42 = SCU_GENERAL_CCUCON_GSC42_Msk, /**< Trigger mask used for Global Start
 187:C:/Files/Projects/Git/XMCLib/inc\xmc4_scu.h ****                                                                  CCU42 peripheral. */
 188:C:/Files/Projects/Git/XMCLib/inc\xmc4_scu.h **** #endif
 189:C:/Files/Projects/Git/XMCLib/inc\xmc4_scu.h **** #if defined(CCU43)
 190:C:/Files/Projects/Git/XMCLib/inc\xmc4_scu.h ****   XMC_SCU_CCU_TRIGGER_CCU43 = SCU_GENERAL_CCUCON_GSC43_Msk, /**< Trigger mask used for Global Start
 191:C:/Files/Projects/Git/XMCLib/inc\xmc4_scu.h ****                                                                  CCU43 peripheral. */
 192:C:/Files/Projects/Git/XMCLib/inc\xmc4_scu.h **** #endif
 193:C:/Files/Projects/Git/XMCLib/inc\xmc4_scu.h **** #if defined(CCU80)
 194:C:/Files/Projects/Git/XMCLib/inc\xmc4_scu.h ****   XMC_SCU_CCU_TRIGGER_CCU80 = SCU_GENERAL_CCUCON_GSC80_Msk, /**< Trigger mask used for Global Start
 195:C:/Files/Projects/Git/XMCLib/inc\xmc4_scu.h ****                                                                  CCU80 peripheral. */
 196:C:/Files/Projects/Git/XMCLib/inc\xmc4_scu.h **** #endif
 197:C:/Files/Projects/Git/XMCLib/inc\xmc4_scu.h **** #if defined(CCU81)
 198:C:/Files/Projects/Git/XMCLib/inc\xmc4_scu.h ****   XMC_SCU_CCU_TRIGGER_CCU81 = SCU_GENERAL_CCUCON_GSC81_Msk /**< Trigger mask used for Global Start 
 199:C:/Files/Projects/Git/XMCLib/inc\xmc4_scu.h ****                                                                  CCU81 peripheral. */
 200:C:/Files/Projects/Git/XMCLib/inc\xmc4_scu.h **** #endif
 201:C:/Files/Projects/Git/XMCLib/inc\xmc4_scu.h **** } XMC_SCU_CCU_TRIGGER_t;
 202:C:/Files/Projects/Git/XMCLib/inc\xmc4_scu.h **** 
 203:C:/Files/Projects/Git/XMCLib/inc\xmc4_scu.h **** /**
 204:C:/Files/Projects/Git/XMCLib/inc\xmc4_scu.h ****  *  Defines enumerations representing the status of trap cause. The cause of the trap gets automati
 205:C:/Files/Projects/Git/XMCLib/inc\xmc4_scu.h ****  *  the \a TRAPSTAT register and can be checked by user software to determine the state of the syst
 206:C:/Files/Projects/Git/XMCLib/inc\xmc4_scu.h ****  *  purpose. 
 207:C:/Files/Projects/Git/XMCLib/inc\xmc4_scu.h ****  *  Use type \a XMC_SCU_TRAP_t for accessing these enum parameters.
 208:C:/Files/Projects/Git/XMCLib/inc\xmc4_scu.h ****  */
 209:C:/Files/Projects/Git/XMCLib/inc\xmc4_scu.h **** typedef enum XMC_SCU_TRAP 
 210:C:/Files/Projects/Git/XMCLib/inc\xmc4_scu.h **** {
 211:C:/Files/Projects/Git/XMCLib/inc\xmc4_scu.h ****   XMC_SCU_TRAP_OSC_WDG      = SCU_TRAP_TRAPSTAT_SOSCWDGT_Msk, /**< OSC_HP Oscillator Watchdog trap.
 212:C:/Files/Projects/Git/XMCLib/inc\xmc4_scu.h ****   XMC_SCU_TRAP_VCO_LOCK     = SCU_TRAP_TRAPSTAT_SVCOLCKT_Msk, /**< PLL loss of lock trap. */
 213:C:/Files/Projects/Git/XMCLib/inc\xmc4_scu.h ****   XMC_SCU_TRAP_USB_VCO_LOCK = SCU_TRAP_TRAPSTAT_UVCOLCKT_Msk, /**< USB PLL loss of lock trap. */ 
 214:C:/Files/Projects/Git/XMCLib/inc\xmc4_scu.h ****   XMC_SCU_TRAP_PARITY_ERROR = SCU_TRAP_TRAPSTAT_PET_Msk,      /**< Memory Parity error trap. */  
 215:C:/Files/Projects/Git/XMCLib/inc\xmc4_scu.h ****   XMC_SCU_TRAP_BROWNOUT     = SCU_TRAP_TRAPSTAT_BRWNT_Msk,    /**< Brownout trap. */ 
 216:C:/Files/Projects/Git/XMCLib/inc\xmc4_scu.h ****   XMC_SCU_TRAP_ULP_WDG      = SCU_TRAP_TRAPSTAT_ULPWDGT_Msk,  /**< Unstable 32KHz clock trap. */ 
 217:C:/Files/Projects/Git/XMCLib/inc\xmc4_scu.h ****   XMC_SCU_TRAP_PER_BRIDGE0  = SCU_TRAP_TRAPSTAT_BWERR0T_Msk,  /**< Bad memory access of peripherals
 218:C:/Files/Projects/Git/XMCLib/inc\xmc4_scu.h ****   XMC_SCU_TRAP_PER_BRIDGE1  = SCU_TRAP_TRAPSTAT_BWERR1T_Msk,  /**< Bad memory access of peripherals
 219:C:/Files/Projects/Git/XMCLib/inc\xmc4_scu.h **** #if defined(SCU_TRAP_TRAPSTAT_TEMPHIT_Msk)
 220:C:/Files/Projects/Git/XMCLib/inc\xmc4_scu.h ****   XMC_SCU_TRAP_DIETEMP_HIGH = SCU_TRAP_TRAPSTAT_TEMPHIT_Msk,  /**< Die temperature higher than expe
 221:C:/Files/Projects/Git/XMCLib/inc\xmc4_scu.h **** #endif
 222:C:/Files/Projects/Git/XMCLib/inc\xmc4_scu.h **** #if defined(SCU_TRAP_TRAPSTAT_TEMPLOT_Msk)
 223:C:/Files/Projects/Git/XMCLib/inc\xmc4_scu.h ****   XMC_SCU_TRAP_DIETEMP_LOW  = SCU_TRAP_TRAPSTAT_TEMPLOT_Msk,  /**< Die temperature lower than expec
 224:C:/Files/Projects/Git/XMCLib/inc\xmc4_scu.h **** #endif
 225:C:/Files/Projects/Git/XMCLib/inc\xmc4_scu.h **** #if defined(ECAT0)
 226:C:/Files/Projects/Git/XMCLib/inc\xmc4_scu.h ****   XMC_SCU_TRAP_ECAT_RESET = SCU_TRAP_TRAPSTAT_ECAT0RST_Msk, /**< EtherCat Reset */ 
 227:C:/Files/Projects/Git/XMCLib/inc\xmc4_scu.h **** #endif
 228:C:/Files/Projects/Git/XMCLib/inc\xmc4_scu.h **** } XMC_SCU_TRAP_t;
 229:C:/Files/Projects/Git/XMCLib/inc\xmc4_scu.h **** 
 230:C:/Files/Projects/Git/XMCLib/inc\xmc4_scu.h **** /**
 231:C:/Files/Projects/Git/XMCLib/inc\xmc4_scu.h ****  *  Defines enumerations for different parity event generating modules that in turn generate a trap
 232:C:/Files/Projects/Git/XMCLib/inc\xmc4_scu.h ****  *  Parity can be enabled with \a PETE register in order to get the trap flag reflected in \a TRAPR
 233:C:/Files/Projects/Git/XMCLib/inc\xmc4_scu.h ****  *  configure parity error trap generation mechanism bits of \a PETE register.
 234:C:/Files/Projects/Git/XMCLib/inc\xmc4_scu.h ****  *  All the enum items are tabulated as per bits present in \a PETE register.
 235:C:/Files/Projects/Git/XMCLib/inc\xmc4_scu.h ****  *  Use type \a XMC_SCU_PARITY_t for accessing these enum parameters.
 236:C:/Files/Projects/Git/XMCLib/inc\xmc4_scu.h ****  */
 237:C:/Files/Projects/Git/XMCLib/inc\xmc4_scu.h **** typedef enum XMC_SCU_PARITY
 238:C:/Files/Projects/Git/XMCLib/inc\xmc4_scu.h **** {
 239:C:/Files/Projects/Git/XMCLib/inc\xmc4_scu.h ****   XMC_SCU_PARITY_PSRAM_MEM  = SCU_PARITY_PEEN_PEENPS_Msk,   /**< Program SRAM parity error trap. */
 240:C:/Files/Projects/Git/XMCLib/inc\xmc4_scu.h ****   XMC_SCU_PARITY_DSRAM1_MEM = SCU_PARITY_PEEN_PEENDS1_Msk,  /**< Data SRAM-1 parity error trap. */ 
 241:C:/Files/Projects/Git/XMCLib/inc\xmc4_scu.h **** #if defined(SCU_PARITY_PEEN_PEENDS2_Msk)
 242:C:/Files/Projects/Git/XMCLib/inc\xmc4_scu.h ****   XMC_SCU_PARITY_DSRAM2_MEM = SCU_PARITY_PEEN_PEENDS2_Msk,  /**< Data SRAM-2 parity error trap. */ 
 243:C:/Files/Projects/Git/XMCLib/inc\xmc4_scu.h **** #endif
 244:C:/Files/Projects/Git/XMCLib/inc\xmc4_scu.h ****   XMC_SCU_PARITY_USIC0_MEM  = SCU_PARITY_PEEN_PEENU0_Msk,   /**< USIC0 memory parity error trap. */
 245:C:/Files/Projects/Git/XMCLib/inc\xmc4_scu.h **** #if defined(SCU_PARITY_PEEN_PEENU1_Msk)
 246:C:/Files/Projects/Git/XMCLib/inc\xmc4_scu.h ****   XMC_SCU_PARITY_USIC1_MEM  = SCU_PARITY_PEEN_PEENU1_Msk,   /**< USIC1 memory parity error trap. */
 247:C:/Files/Projects/Git/XMCLib/inc\xmc4_scu.h **** #endif
 248:C:/Files/Projects/Git/XMCLib/inc\xmc4_scu.h **** #if defined(SCU_PARITY_PEEN_PEENU2_Msk)
 249:C:/Files/Projects/Git/XMCLib/inc\xmc4_scu.h ****   XMC_SCU_PARITY_USIC2_MEM  = SCU_PARITY_PEEN_PEENU2_Msk,   /**< USIC2 memory parity error trap. */
 250:C:/Files/Projects/Git/XMCLib/inc\xmc4_scu.h **** #endif
 251:C:/Files/Projects/Git/XMCLib/inc\xmc4_scu.h ****   XMC_SCU_PARITY_MCAN_MEM   = SCU_PARITY_PEEN_PEENMC_Msk,   /**< CAN memory parity error trap. */
 252:C:/Files/Projects/Git/XMCLib/inc\xmc4_scu.h ****   XMC_SCU_PARITY_PMU_MEM    = SCU_PARITY_PEEN_PEENPPRF_Msk, /**< PMU Prefetch memory parity error t
 253:C:/Files/Projects/Git/XMCLib/inc\xmc4_scu.h ****   XMC_SCU_PARITY_USB_MEM    = SCU_PARITY_PEEN_PEENUSB_Msk,  /**< USB memory parity error trap. */ 
 254:C:/Files/Projects/Git/XMCLib/inc\xmc4_scu.h **** #if defined(SCU_PARITY_PEEN_PEENETH0TX_Msk)
 255:C:/Files/Projects/Git/XMCLib/inc\xmc4_scu.h ****   XMC_SCU_PARITY_ETH_TXMEM  = SCU_PARITY_PEEN_PEENETH0TX_Msk, /**< Ethernet transmit memory parity 
 256:C:/Files/Projects/Git/XMCLib/inc\xmc4_scu.h **** #endif
 257:C:/Files/Projects/Git/XMCLib/inc\xmc4_scu.h **** #if defined(SCU_PARITY_PEEN_PEENETH0RX_Msk)
 258:C:/Files/Projects/Git/XMCLib/inc\xmc4_scu.h ****   XMC_SCU_PARITY_ETH_RXMEM  = SCU_PARITY_PEEN_PEENETH0RX_Msk, /**< Ethernet receive memory parity e
 259:C:/Files/Projects/Git/XMCLib/inc\xmc4_scu.h **** #endif
 260:C:/Files/Projects/Git/XMCLib/inc\xmc4_scu.h **** #if defined(SCU_PARITY_PEEN_PEENSD0_Msk)
 261:C:/Files/Projects/Git/XMCLib/inc\xmc4_scu.h ****   XMC_SCU_PARITY_SDMMC_MEM0 = SCU_PARITY_PEEN_PEENSD0_Msk, /**< SDMMC Memory-0 parity error trap. *
 262:C:/Files/Projects/Git/XMCLib/inc\xmc4_scu.h **** #endif
 263:C:/Files/Projects/Git/XMCLib/inc\xmc4_scu.h **** #if defined(SCU_PARITY_PEEN_PEENSD1_Msk)
 264:C:/Files/Projects/Git/XMCLib/inc\xmc4_scu.h ****   XMC_SCU_PARITY_SDMMC_MEM1 = SCU_PARITY_PEEN_PEENSD1_Msk, /**< SDMMC Memory-1 parity error trap. *
 265:C:/Files/Projects/Git/XMCLib/inc\xmc4_scu.h **** #endif
 266:C:/Files/Projects/Git/XMCLib/inc\xmc4_scu.h **** #if defined(SCU_PARITY_PEEN_PEENECAT0_Msk)
 267:C:/Files/Projects/Git/XMCLib/inc\xmc4_scu.h ****   XMC_SCU_PARITY_ECAT_MEM = SCU_PARITY_PEEN_PEENECAT0_Msk, /**< ECAT0 SRAM parity error trap. */ 
 268:C:/Files/Projects/Git/XMCLib/inc\xmc4_scu.h **** #endif
 269:C:/Files/Projects/Git/XMCLib/inc\xmc4_scu.h **** } XMC_SCU_PARITY_t;
 270:C:/Files/Projects/Git/XMCLib/inc\xmc4_scu.h **** 
 271:C:/Files/Projects/Git/XMCLib/inc\xmc4_scu.h **** /**
 272:C:/Files/Projects/Git/XMCLib/inc\xmc4_scu.h ****  *  Defines the different causes for last reset. The cause of the last reset gets automatically sto
 273:C:/Files/Projects/Git/XMCLib/inc\xmc4_scu.h ****  *  the \a SCU_RSTSTAT register and can be checked by user software to determine the state of the s
 274:C:/Files/Projects/Git/XMCLib/inc\xmc4_scu.h ****  *  purpose. All the enum items are tabulated as per bits present in \a SCU_RSTSTAT register.
 275:C:/Files/Projects/Git/XMCLib/inc\xmc4_scu.h ****  *  Use type \a XMC_SCU_RESET_REASON_t for accessing these enum parameters.
 276:C:/Files/Projects/Git/XMCLib/inc\xmc4_scu.h ****  */
 277:C:/Files/Projects/Git/XMCLib/inc\xmc4_scu.h **** typedef enum XMC_SCU_RESET_REASON
 278:C:/Files/Projects/Git/XMCLib/inc\xmc4_scu.h **** {
 279:C:/Files/Projects/Git/XMCLib/inc\xmc4_scu.h ****   XMC_SCU_RESET_REASON_PORST        = (1UL << SCU_RESET_RSTSTAT_RSTSTAT_Pos), /**< Reset due to Pow
 280:C:/Files/Projects/Git/XMCLib/inc\xmc4_scu.h ****   XMC_SCU_RESET_REASON_SWD          = (2UL << SCU_RESET_RSTSTAT_RSTSTAT_Pos), /**< Reset due to Sup
 281:C:/Files/Projects/Git/XMCLib/inc\xmc4_scu.h ****   XMC_SCU_RESET_REASON_PV           = (4UL << SCU_RESET_RSTSTAT_RSTSTAT_Pos), /**< Reset due to Pow
 282:C:/Files/Projects/Git/XMCLib/inc\xmc4_scu.h ****   XMC_SCU_RESET_REASON_SW           = (8UL << SCU_RESET_RSTSTAT_RSTSTAT_Pos), /**< Reset due to Sof
 283:C:/Files/Projects/Git/XMCLib/inc\xmc4_scu.h ****   XMC_SCU_RESET_REASON_LOCKUP       = (16UL << SCU_RESET_RSTSTAT_RSTSTAT_Pos), /**< Reset due to re
 284:C:/Files/Projects/Git/XMCLib/inc\xmc4_scu.h ****   XMC_SCU_RESET_REASON_WATCHDOG     = (32UL << SCU_RESET_RSTSTAT_RSTSTAT_Pos), /**< Reset due to Wa
 285:C:/Files/Projects/Git/XMCLib/inc\xmc4_scu.h ****   XMC_SCU_RESET_REASON_PARITY_ERROR = (128UL << SCU_RESET_RSTSTAT_RSTSTAT_Pos), /**< Reset due to r
 286:C:/Files/Projects/Git/XMCLib/inc\xmc4_scu.h **** } XMC_SCU_RESET_REASON_t;
 287:C:/Files/Projects/Git/XMCLib/inc\xmc4_scu.h **** 
 288:C:/Files/Projects/Git/XMCLib/inc\xmc4_scu.h **** /**
 289:C:/Files/Projects/Git/XMCLib/inc\xmc4_scu.h ****  *  Defines enumerations for events which can lead to interrupt. These enumeration values represent
 290:C:/Files/Projects/Git/XMCLib/inc\xmc4_scu.h ****  * status of one of the bits in \a SRSTAT register. 
 291:C:/Files/Projects/Git/XMCLib/inc\xmc4_scu.h ****  *  Use type \a XMC_SCU_INTERRUPT_EVENT_t for accessing these enum parameters.
 292:C:/Files/Projects/Git/XMCLib/inc\xmc4_scu.h ****  */
 293:C:/Files/Projects/Git/XMCLib/inc\xmc4_scu.h **** typedef uint32_t XMC_SCU_INTERRUPT_EVENT_t;
 294:C:/Files/Projects/Git/XMCLib/inc\xmc4_scu.h **** 
 295:C:/Files/Projects/Git/XMCLib/inc\xmc4_scu.h ****  
 296:C:/Files/Projects/Git/XMCLib/inc\xmc4_scu.h **** /**
 297:C:/Files/Projects/Git/XMCLib/inc\xmc4_scu.h ****  *  Defines enumeration for the events that can generate non maskable interrupt(NMI).
 298:C:/Files/Projects/Git/XMCLib/inc\xmc4_scu.h ****  *  The NMI generation can be enabled with \a NMIREQEN register. The event will be reflected in \a 
 299:C:/Files/Projects/Git/XMCLib/inc\xmc4_scu.h ****  *  mirrored in the TRAPSTAT register. These enums can be used to configure NMI request generation 
 300:C:/Files/Projects/Git/XMCLib/inc\xmc4_scu.h ****  *  NMIREQEN register.  Once configured, these events can generate non maskable interrupt.
 301:C:/Files/Projects/Git/XMCLib/inc\xmc4_scu.h ****  *  All the enum items are tabulated as per bits present in \a NMIREQEN register.
 302:C:/Files/Projects/Git/XMCLib/inc\xmc4_scu.h ****  *  Use type \a XMC_SCU_NMIREQ_t for accessing these enum parameters.
 303:C:/Files/Projects/Git/XMCLib/inc\xmc4_scu.h ****  */
 304:C:/Files/Projects/Git/XMCLib/inc\xmc4_scu.h **** typedef enum XMC_SCU_NMIREQ
 305:C:/Files/Projects/Git/XMCLib/inc\xmc4_scu.h **** {
 306:C:/Files/Projects/Git/XMCLib/inc\xmc4_scu.h ****   XMC_SCU_NMIREQ_WDT_WARN = SCU_INTERRUPT_NMIREQEN_PRWARN_Msk, /**< Watchdog timer Pre-Warning even
 307:C:/Files/Projects/Git/XMCLib/inc\xmc4_scu.h ****   XMC_SCU_NMIREQ_RTC_PI   = SCU_INTERRUPT_NMIREQEN_PI_Msk,     /**< RTC Periodic event */ 
 308:C:/Files/Projects/Git/XMCLib/inc\xmc4_scu.h ****   XMC_SCU_NMIREQ_RTC_AI   = SCU_INTERRUPT_NMIREQEN_AI_Msk,     /**< RTC Alarm event */ 
 309:C:/Files/Projects/Git/XMCLib/inc\xmc4_scu.h ****   XMC_SCU_NMIREQ_ERU0_0   = SCU_INTERRUPT_NMIREQEN_ERU00_Msk,  /**< Channel 0 event of ERU0 */  
 310:C:/Files/Projects/Git/XMCLib/inc\xmc4_scu.h ****   XMC_SCU_NMIREQ_ERU0_1   = SCU_INTERRUPT_NMIREQEN_ERU01_Msk,  /**< Channel 1 event of ERU0 */ 
 311:C:/Files/Projects/Git/XMCLib/inc\xmc4_scu.h ****   XMC_SCU_NMIREQ_ERU0_2   = SCU_INTERRUPT_NMIREQEN_ERU02_Msk,  /**< Channel 2 event of ERU0 */ 
 312:C:/Files/Projects/Git/XMCLib/inc\xmc4_scu.h ****   XMC_SCU_NMIREQ_ERU0_3   = SCU_INTERRUPT_NMIREQEN_ERU03_Msk   /**< Channel 3 event of ERU0 */ 
 313:C:/Files/Projects/Git/XMCLib/inc\xmc4_scu.h **** } XMC_SCU_NMIREQ_t;
 314:C:/Files/Projects/Git/XMCLib/inc\xmc4_scu.h ****   
 315:C:/Files/Projects/Git/XMCLib/inc\xmc4_scu.h **** 
 316:C:/Files/Projects/Git/XMCLib/inc\xmc4_scu.h **** /**
 317:C:/Files/Projects/Git/XMCLib/inc\xmc4_scu.h ****  *  Defines enumeration representing different peripheral reset bits in the \a PRSTAT registers.
 318:C:/Files/Projects/Git/XMCLib/inc\xmc4_scu.h ****  *  All the enum items are tabulated as per bits present in \a PRSTAT0,  \a PRSTAT1,  \a PRSTAT2,
 319:C:/Files/Projects/Git/XMCLib/inc\xmc4_scu.h ****  *  \a PRSTAT3 registers. Use type \a XMC_SCU_PERIPHERAL_RESET_t for accessing these enum parameter
 320:C:/Files/Projects/Git/XMCLib/inc\xmc4_scu.h ****  *  Note: Release of reset should be prevented when the peripheral clock is gated in cases where ke
 321:C:/Files/Projects/Git/XMCLib/inc\xmc4_scu.h ****  *  clock and bus interface clocks are shared, in order to avoid system hang-up.
 322:C:/Files/Projects/Git/XMCLib/inc\xmc4_scu.h ****  */
 323:C:/Files/Projects/Git/XMCLib/inc\xmc4_scu.h **** typedef enum XMC_SCU_PERIPHERAL_RESET
 324:C:/Files/Projects/Git/XMCLib/inc\xmc4_scu.h **** {
 325:C:/Files/Projects/Git/XMCLib/inc\xmc4_scu.h ****   XMC_SCU_PERIPHERAL_RESET_VADC   = SCU_RESET_PRSTAT0_VADCRS_Msk,   /**< VADC reset. */ 
 326:C:/Files/Projects/Git/XMCLib/inc\xmc4_scu.h **** #if defined(DSD)
 327:C:/Files/Projects/Git/XMCLib/inc\xmc4_scu.h ****   XMC_SCU_PERIPHERAL_RESET_DSD    = SCU_RESET_PRSTAT0_DSDRS_Msk,    /**< DSD reset. */
 328:C:/Files/Projects/Git/XMCLib/inc\xmc4_scu.h **** #endif
 329:C:/Files/Projects/Git/XMCLib/inc\xmc4_scu.h ****   XMC_SCU_PERIPHERAL_RESET_CCU40  = SCU_RESET_PRSTAT0_CCU40RS_Msk,  /**< CCU40 reset. */
 330:C:/Files/Projects/Git/XMCLib/inc\xmc4_scu.h **** #if defined(CCU41)
 331:C:/Files/Projects/Git/XMCLib/inc\xmc4_scu.h ****   XMC_SCU_PERIPHERAL_RESET_CCU41  = SCU_RESET_PRSTAT0_CCU41RS_Msk,  /**< CCU41 reset. */
 332:C:/Files/Projects/Git/XMCLib/inc\xmc4_scu.h **** #endif  
 333:C:/Files/Projects/Git/XMCLib/inc\xmc4_scu.h **** #if defined(CCU42)
 334:C:/Files/Projects/Git/XMCLib/inc\xmc4_scu.h ****   XMC_SCU_PERIPHERAL_RESET_CCU42  = SCU_RESET_PRSTAT0_CCU42RS_Msk,  /**< CCU42 reset. */
 335:C:/Files/Projects/Git/XMCLib/inc\xmc4_scu.h **** #endif
 336:C:/Files/Projects/Git/XMCLib/inc\xmc4_scu.h **** #if defined(CCU80)
 337:C:/Files/Projects/Git/XMCLib/inc\xmc4_scu.h ****   XMC_SCU_PERIPHERAL_RESET_CCU80  = SCU_RESET_PRSTAT0_CCU80RS_Msk,  /**< CCU80 reset. */
 338:C:/Files/Projects/Git/XMCLib/inc\xmc4_scu.h **** #endif  
 339:C:/Files/Projects/Git/XMCLib/inc\xmc4_scu.h **** #if defined(CCU81)
 340:C:/Files/Projects/Git/XMCLib/inc\xmc4_scu.h ****   XMC_SCU_PERIPHERAL_RESET_CCU81  = SCU_RESET_PRSTAT0_CCU81RS_Msk,  /**< CCU81 reset. */
 341:C:/Files/Projects/Git/XMCLib/inc\xmc4_scu.h **** #endif
 342:C:/Files/Projects/Git/XMCLib/inc\xmc4_scu.h **** #if defined(POSIF0)
 343:C:/Files/Projects/Git/XMCLib/inc\xmc4_scu.h ****   XMC_SCU_PERIPHERAL_RESET_POSIF0 = SCU_RESET_PRSTAT0_POSIF0RS_Msk, /**< POSIF0 reset. */
 344:C:/Files/Projects/Git/XMCLib/inc\xmc4_scu.h **** #endif  
 345:C:/Files/Projects/Git/XMCLib/inc\xmc4_scu.h **** #if defined(POSIF1)
 346:C:/Files/Projects/Git/XMCLib/inc\xmc4_scu.h ****   XMC_SCU_PERIPHERAL_RESET_POSIF1 = SCU_RESET_PRSTAT0_POSIF1RS_Msk, /**< POSIF1 reset.*/
 347:C:/Files/Projects/Git/XMCLib/inc\xmc4_scu.h **** #endif
 348:C:/Files/Projects/Git/XMCLib/inc\xmc4_scu.h ****   XMC_SCU_PERIPHERAL_RESET_USIC0  = SCU_RESET_PRSTAT0_USIC0RS_Msk,  /**< USIC0 reset. */
 349:C:/Files/Projects/Git/XMCLib/inc\xmc4_scu.h ****   XMC_SCU_PERIPHERAL_RESET_ERU1   = SCU_RESET_PRSTAT0_ERU1RS_Msk,   /**< ERU1 reset. */
 350:C:/Files/Projects/Git/XMCLib/inc\xmc4_scu.h **** #if defined(HRPWM0)
 351:C:/Files/Projects/Git/XMCLib/inc\xmc4_scu.h ****   XMC_SCU_PERIPHERAL_RESET_HRPWM0 = SCU_RESET_PRSTAT0_HRPWM0RS_Msk,  /**< HRPWM0 reset. */
 352:C:/Files/Projects/Git/XMCLib/inc\xmc4_scu.h **** #endif
 353:C:/Files/Projects/Git/XMCLib/inc\xmc4_scu.h **** #if defined(CCU43)
 354:C:/Files/Projects/Git/XMCLib/inc\xmc4_scu.h ****   XMC_SCU_PERIPHERAL_RESET_CCU43  = (SCU_RESET_PRSTAT1_CCU43RS_Msk | 0x10000000UL),   /**< CCU43 re
 355:C:/Files/Projects/Git/XMCLib/inc\xmc4_scu.h **** #endif
 356:C:/Files/Projects/Git/XMCLib/inc\xmc4_scu.h **** #if defined(LEDTS0)
 357:C:/Files/Projects/Git/XMCLib/inc\xmc4_scu.h ****   XMC_SCU_PERIPHERAL_RESET_LEDTS0 = (SCU_RESET_PRSTAT1_LEDTSCU0RS_Msk | 0x10000000UL), /**< LEDTS0 
 358:C:/Files/Projects/Git/XMCLib/inc\xmc4_scu.h **** #endif  
 359:C:/Files/Projects/Git/XMCLib/inc\xmc4_scu.h **** #if defined(CAN)
 360:C:/Files/Projects/Git/XMCLib/inc\xmc4_scu.h ****   XMC_SCU_PERIPHERAL_RESET_MCAN   = (SCU_RESET_PRSTAT1_MCAN0RS_Msk | 0x10000000UL), /**< MCAN reset
 361:C:/Files/Projects/Git/XMCLib/inc\xmc4_scu.h **** #endif  
 362:C:/Files/Projects/Git/XMCLib/inc\xmc4_scu.h **** #if defined(DAC)  
 363:C:/Files/Projects/Git/XMCLib/inc\xmc4_scu.h ****   XMC_SCU_PERIPHERAL_RESET_DAC    = (SCU_RESET_PRSTAT1_DACRS_Msk | 0x10000000UL),    /**< DAC reset
 364:C:/Files/Projects/Git/XMCLib/inc\xmc4_scu.h **** #endif  
 365:C:/Files/Projects/Git/XMCLib/inc\xmc4_scu.h **** #if defined(SDMMC)
 366:C:/Files/Projects/Git/XMCLib/inc\xmc4_scu.h ****   XMC_SCU_PERIPHERAL_RESET_SDMMC  = (SCU_RESET_PRSTAT1_MMCIRS_Msk | 0x10000000UL),     /**< SDMMC r
 367:C:/Files/Projects/Git/XMCLib/inc\xmc4_scu.h **** #endif
 368:C:/Files/Projects/Git/XMCLib/inc\xmc4_scu.h **** #if defined(USIC1)
 369:C:/Files/Projects/Git/XMCLib/inc\xmc4_scu.h ****   XMC_SCU_PERIPHERAL_RESET_USIC1  = (SCU_RESET_PRSTAT1_USIC1RS_Msk | 0x10000000UL),    /**< USIC1 r
 370:C:/Files/Projects/Git/XMCLib/inc\xmc4_scu.h **** #endif  
 371:C:/Files/Projects/Git/XMCLib/inc\xmc4_scu.h **** #if defined(USIC2)
 372:C:/Files/Projects/Git/XMCLib/inc\xmc4_scu.h ****   XMC_SCU_PERIPHERAL_RESET_USIC2  = (SCU_RESET_PRSTAT1_USIC2RS_Msk | 0x10000000UL),    /**< USIC2 r
 373:C:/Files/Projects/Git/XMCLib/inc\xmc4_scu.h **** #endif
 374:C:/Files/Projects/Git/XMCLib/inc\xmc4_scu.h ****   XMC_SCU_PERIPHERAL_RESET_PORTS  = (SCU_RESET_PRSTAT1_PPORTSRS_Msk | 0x10000000UL),   /**< PORTS r
 375:C:/Files/Projects/Git/XMCLib/inc\xmc4_scu.h ****   XMC_SCU_PERIPHERAL_RESET_WDT    = (SCU_RESET_PRSTAT2_WDTRS_Msk | 0x20000000UL),      /**< WDT res
 376:C:/Files/Projects/Git/XMCLib/inc\xmc4_scu.h **** #if defined(ETH0)
 377:C:/Files/Projects/Git/XMCLib/inc\xmc4_scu.h ****   XMC_SCU_PERIPHERAL_RESET_ETH0   = (SCU_RESET_PRSTAT2_ETH0RS_Msk | 0x20000000UL),     /**< ETH0 re
 378:C:/Files/Projects/Git/XMCLib/inc\xmc4_scu.h **** #endif
 379:C:/Files/Projects/Git/XMCLib/inc\xmc4_scu.h ****   XMC_SCU_PERIPHERAL_RESET_GPDMA0 = (SCU_RESET_PRSTAT2_DMA0RS_Msk | 0x20000000UL),     /**< DMA0 re
 380:C:/Files/Projects/Git/XMCLib/inc\xmc4_scu.h **** #if defined(GPDMA1)
 381:C:/Files/Projects/Git/XMCLib/inc\xmc4_scu.h ****   XMC_SCU_PERIPHERAL_RESET_GPDMA1 = (SCU_RESET_PRSTAT2_DMA1RS_Msk | 0x20000000UL),     /**< DMA1 re
 382:C:/Files/Projects/Git/XMCLib/inc\xmc4_scu.h **** #endif
 383:C:/Files/Projects/Git/XMCLib/inc\xmc4_scu.h **** #if defined(FCE)
 384:C:/Files/Projects/Git/XMCLib/inc\xmc4_scu.h ****   XMC_SCU_PERIPHERAL_RESET_FCE    = (SCU_RESET_PRSTAT2_FCERS_Msk | 0x20000000UL),      /**< FCE res
 385:C:/Files/Projects/Git/XMCLib/inc\xmc4_scu.h **** #endif
 386:C:/Files/Projects/Git/XMCLib/inc\xmc4_scu.h **** #if defined(USB0)  
 387:C:/Files/Projects/Git/XMCLib/inc\xmc4_scu.h ****   XMC_SCU_PERIPHERAL_RESET_USB0   = (SCU_RESET_PRSTAT2_USBRS_Msk | 0x20000000UL),      /**< USB0 re
 388:C:/Files/Projects/Git/XMCLib/inc\xmc4_scu.h **** #endif  
 389:C:/Files/Projects/Git/XMCLib/inc\xmc4_scu.h **** #if defined(ECAT0)  
 390:C:/Files/Projects/Git/XMCLib/inc\xmc4_scu.h ****   XMC_SCU_PERIPHERAL_RESET_ECAT0  = (SCU_RESET_PRSTAT2_ECAT0RS_Msk | 0x20000000UL),      /**< ECAT0
 391:C:/Files/Projects/Git/XMCLib/inc\xmc4_scu.h **** #endif  
 392:C:/Files/Projects/Git/XMCLib/inc\xmc4_scu.h **** #if defined(EBU)
 393:C:/Files/Projects/Git/XMCLib/inc\xmc4_scu.h ****   XMC_SCU_PERIPHERAL_RESET_EBU    = (SCU_RESET_PRSTAT3_EBURS_Msk | 0x30000000UL)       /**< EBU res
 394:C:/Files/Projects/Git/XMCLib/inc\xmc4_scu.h **** #endif
 395:C:/Files/Projects/Git/XMCLib/inc\xmc4_scu.h **** } XMC_SCU_PERIPHERAL_RESET_t;
 396:C:/Files/Projects/Git/XMCLib/inc\xmc4_scu.h **** 
 397:C:/Files/Projects/Git/XMCLib/inc\xmc4_scu.h **** /**
 398:C:/Files/Projects/Git/XMCLib/inc\xmc4_scu.h ****  *  Defines enumerations for disabling the clocks sources of peripherals. Disabling of the peripher
 399:C:/Files/Projects/Git/XMCLib/inc\xmc4_scu.h ****  *  clock is configured via the \a CLKCLR registers.
 400:C:/Files/Projects/Git/XMCLib/inc\xmc4_scu.h ****  *  Use type \a XMC_SCU_PERIPHERAL_CLOCK_t for accessing these enum parameters.
 401:C:/Files/Projects/Git/XMCLib/inc\xmc4_scu.h ****  */
 402:C:/Files/Projects/Git/XMCLib/inc\xmc4_scu.h **** typedef enum XMC_SCU_CLOCK
 403:C:/Files/Projects/Git/XMCLib/inc\xmc4_scu.h **** {
 404:C:/Files/Projects/Git/XMCLib/inc\xmc4_scu.h ****   XMC_SCU_CLOCK_USB = SCU_CLK_CLKCLR_USBCDI_Msk, /**< USB module clock. */
 405:C:/Files/Projects/Git/XMCLib/inc\xmc4_scu.h **** #if defined(SDMMC)
 406:C:/Files/Projects/Git/XMCLib/inc\xmc4_scu.h ****   XMC_SCU_CLOCK_MMC = SCU_CLK_CLKCLR_MMCCDI_Msk, /**< MMC module clock. */
 407:C:/Files/Projects/Git/XMCLib/inc\xmc4_scu.h **** #endif
 408:C:/Files/Projects/Git/XMCLib/inc\xmc4_scu.h **** #if defined(ETH0)
 409:C:/Files/Projects/Git/XMCLib/inc\xmc4_scu.h ****   XMC_SCU_CLOCK_ETH = SCU_CLK_CLKCLR_ETH0CDI_Msk, /**< Ethernet module clock. */
 410:C:/Files/Projects/Git/XMCLib/inc\xmc4_scu.h **** #endif
 411:C:/Files/Projects/Git/XMCLib/inc\xmc4_scu.h **** #if defined(EBU)
 412:C:/Files/Projects/Git/XMCLib/inc\xmc4_scu.h ****   XMC_SCU_CLOCK_EBU = SCU_CLK_CLKCLR_EBUCDI_Msk, /**< EBU module clock. */
 413:C:/Files/Projects/Git/XMCLib/inc\xmc4_scu.h **** #endif
 414:C:/Files/Projects/Git/XMCLib/inc\xmc4_scu.h ****   XMC_SCU_CLOCK_CCU = SCU_CLK_CLKCLR_CCUCDI_Msk, /**< CCU module clock. */
 415:C:/Files/Projects/Git/XMCLib/inc\xmc4_scu.h ****   XMC_SCU_CLOCK_WDT = SCU_CLK_CLKCLR_WDTCDI_Msk  /**< WDT module clock. */
 416:C:/Files/Projects/Git/XMCLib/inc\xmc4_scu.h **** } XMC_SCU_CLOCK_t;
 417:C:/Files/Projects/Git/XMCLib/inc\xmc4_scu.h **** 
 418:C:/Files/Projects/Git/XMCLib/inc\xmc4_scu.h **** #if(UC_SERIES != XMC45)
 419:C:/Files/Projects/Git/XMCLib/inc\xmc4_scu.h **** /**
 420:C:/Files/Projects/Git/XMCLib/inc\xmc4_scu.h ****  * Defines enumeration for peripherals that support clock gating. 
 421:C:/Files/Projects/Git/XMCLib/inc\xmc4_scu.h ****  * The enumerations can be used for gating or ungating the peripheral clocks.
 422:C:/Files/Projects/Git/XMCLib/inc\xmc4_scu.h ****  * All the enum items are tabulated as per bits present in \a CGATSTAT0 register.
 423:C:/Files/Projects/Git/XMCLib/inc\xmc4_scu.h ****  * Use type \a XMC_SCU_PERIPHERAL_CLOCK_t for accessing these enum parameters.
 424:C:/Files/Projects/Git/XMCLib/inc\xmc4_scu.h ****  */
 425:C:/Files/Projects/Git/XMCLib/inc\xmc4_scu.h **** typedef enum XMC_SCU_PERIPHERAL_CLOCK
 426:C:/Files/Projects/Git/XMCLib/inc\xmc4_scu.h **** {
 427:C:/Files/Projects/Git/XMCLib/inc\xmc4_scu.h ****   XMC_SCU_PERIPHERAL_CLOCK_VADC   = SCU_CLK_CGATSTAT0_VADC_Msk,  /**< VADC peripheral gating. */
 428:C:/Files/Projects/Git/XMCLib/inc\xmc4_scu.h **** #if defined(DSD)
 429:C:/Files/Projects/Git/XMCLib/inc\xmc4_scu.h ****   XMC_SCU_PERIPHERAL_CLOCK_DSD    = SCU_CLK_CGATSTAT0_DSD_Msk,   /**< DSD peripheral gating. */
 430:C:/Files/Projects/Git/XMCLib/inc\xmc4_scu.h **** #endif
 431:C:/Files/Projects/Git/XMCLib/inc\xmc4_scu.h ****   XMC_SCU_PERIPHERAL_CLOCK_CCU40  = SCU_CLK_CGATSTAT0_CCU40_Msk,  /**< CCU40 peripheral gating. */
 432:C:/Files/Projects/Git/XMCLib/inc\xmc4_scu.h **** #if defined(CCU41)
 433:C:/Files/Projects/Git/XMCLib/inc\xmc4_scu.h ****   XMC_SCU_PERIPHERAL_CLOCK_CCU41  = SCU_CLK_CGATSTAT0_CCU41_Msk,  /**< CCU41 peripheral gating. */
 434:C:/Files/Projects/Git/XMCLib/inc\xmc4_scu.h **** #endif  
 435:C:/Files/Projects/Git/XMCLib/inc\xmc4_scu.h **** #if defined(CCU42)
 436:C:/Files/Projects/Git/XMCLib/inc\xmc4_scu.h ****   XMC_SCU_PERIPHERAL_CLOCK_CCU42  = SCU_CLK_CGATSTAT0_CCU42_Msk,  /**< CCU42 peripheral gating. */
 437:C:/Files/Projects/Git/XMCLib/inc\xmc4_scu.h **** #endif
 438:C:/Files/Projects/Git/XMCLib/inc\xmc4_scu.h **** #if defined(CCU80)
 439:C:/Files/Projects/Git/XMCLib/inc\xmc4_scu.h ****   XMC_SCU_PERIPHERAL_CLOCK_CCU80  = SCU_CLK_CGATSTAT0_CCU80_Msk,  /**< CCU80 peripheral gating. */
 440:C:/Files/Projects/Git/XMCLib/inc\xmc4_scu.h **** #endif  
 441:C:/Files/Projects/Git/XMCLib/inc\xmc4_scu.h **** #if defined(CCU81)
 442:C:/Files/Projects/Git/XMCLib/inc\xmc4_scu.h ****   XMC_SCU_PERIPHERAL_CLOCK_CCU81  = SCU_CLK_CGATSTAT0_CCU81_Msk,  /**< CCU81 peripheral gating. */
 443:C:/Files/Projects/Git/XMCLib/inc\xmc4_scu.h **** #endif
 444:C:/Files/Projects/Git/XMCLib/inc\xmc4_scu.h **** #if defined(POSIF0)
 445:C:/Files/Projects/Git/XMCLib/inc\xmc4_scu.h ****   XMC_SCU_PERIPHERAL_CLOCK_POSIF0 = SCU_CLK_CGATSTAT0_POSIF0_Msk,  /**< POSIF0 peripheral gating. *
 446:C:/Files/Projects/Git/XMCLib/inc\xmc4_scu.h **** #endif  
 447:C:/Files/Projects/Git/XMCLib/inc\xmc4_scu.h **** #if defined(POSIF1)
 448:C:/Files/Projects/Git/XMCLib/inc\xmc4_scu.h ****   XMC_SCU_PERIPHERAL_CLOCK_POSIF1 = SCU_CLK_CGATSTAT0_POSIF1_Msk,   /**< POSIF1 peripheral gating. 
 449:C:/Files/Projects/Git/XMCLib/inc\xmc4_scu.h **** #endif
 450:C:/Files/Projects/Git/XMCLib/inc\xmc4_scu.h ****   XMC_SCU_PERIPHERAL_CLOCK_USIC0  = SCU_CLK_CGATSTAT0_USIC0_Msk,   /**< USIC0 peripheral gating. */
 451:C:/Files/Projects/Git/XMCLib/inc\xmc4_scu.h ****   XMC_SCU_PERIPHERAL_CLOCK_ERU1   = SCU_CLK_CGATSTAT0_ERU1_Msk,    /**< ERU1 peripheral gating. */
 452:C:/Files/Projects/Git/XMCLib/inc\xmc4_scu.h **** #if defined(HRPWM0)
 453:C:/Files/Projects/Git/XMCLib/inc\xmc4_scu.h ****   XMC_SCU_PERIPHERAL_CLOCK_HRPWM0 = SCU_CLK_CGATSTAT0_HRPWM0_Msk,  /**< HRPWM0 peripheral gating. *
 454:C:/Files/Projects/Git/XMCLib/inc\xmc4_scu.h **** #endif
 455:C:/Files/Projects/Git/XMCLib/inc\xmc4_scu.h **** #if defined(CCU43)
 456:C:/Files/Projects/Git/XMCLib/inc\xmc4_scu.h ****   XMC_SCU_PERIPHERAL_CLOCK_CCU43  = (SCU_CLK_CGATSTAT1_CCU43_Msk | 0x10000000UL),   /**< CCU43 peri
 457:C:/Files/Projects/Git/XMCLib/inc\xmc4_scu.h **** #endif
 458:C:/Files/Projects/Git/XMCLib/inc\xmc4_scu.h **** #if defined(LEDTS0)
 459:C:/Files/Projects/Git/XMCLib/inc\xmc4_scu.h ****   XMC_SCU_PERIPHERAL_CLOCK_LEDTS0 = (SCU_CLK_CGATSTAT1_LEDTSCU0_Msk | 0x10000000UL), /**< LEDTS0 pe
 460:C:/Files/Projects/Git/XMCLib/inc\xmc4_scu.h **** #endif  
 461:C:/Files/Projects/Git/XMCLib/inc\xmc4_scu.h **** #if defined(CAN)
 462:C:/Files/Projects/Git/XMCLib/inc\xmc4_scu.h ****   XMC_SCU_PERIPHERAL_CLOCK_MCAN   = (SCU_CLK_CGATSTAT1_MCAN0_Msk | 0x10000000UL),   /**< MCAN perip
 463:C:/Files/Projects/Git/XMCLib/inc\xmc4_scu.h **** #endif
 464:C:/Files/Projects/Git/XMCLib/inc\xmc4_scu.h **** #if defined(DAC)  
 465:C:/Files/Projects/Git/XMCLib/inc\xmc4_scu.h ****   XMC_SCU_PERIPHERAL_CLOCK_DAC    = (SCU_CLK_CGATSTAT1_DAC_Msk | 0x10000000UL),     /**< DAC periph
 466:C:/Files/Projects/Git/XMCLib/inc\xmc4_scu.h **** #endif  
 467:C:/Files/Projects/Git/XMCLib/inc\xmc4_scu.h **** #if defined(SDMMC)
 468:C:/Files/Projects/Git/XMCLib/inc\xmc4_scu.h ****   XMC_SCU_PERIPHERAL_CLOCK_SDMMC  = (SCU_CLK_CGATSTAT1_MMCI_Msk | 0x10000000UL),    /**< SDMMC peri
 469:C:/Files/Projects/Git/XMCLib/inc\xmc4_scu.h **** #endif
 470:C:/Files/Projects/Git/XMCLib/inc\xmc4_scu.h **** #if defined(USIC1)
 471:C:/Files/Projects/Git/XMCLib/inc\xmc4_scu.h ****   XMC_SCU_PERIPHERAL_CLOCK_USIC1  = (SCU_CLK_CGATSTAT1_USIC1_Msk | 0x10000000UL),   /**< USIC1 peri
 472:C:/Files/Projects/Git/XMCLib/inc\xmc4_scu.h **** #endif  
 473:C:/Files/Projects/Git/XMCLib/inc\xmc4_scu.h **** #if defined(USIC2)
 474:C:/Files/Projects/Git/XMCLib/inc\xmc4_scu.h ****   XMC_SCU_PERIPHERAL_CLOCK_USIC2  = (SCU_CLK_CGATSTAT1_USIC2_Msk | 0x10000000UL),    /**< USIC2 per
 475:C:/Files/Projects/Git/XMCLib/inc\xmc4_scu.h **** #endif
 476:C:/Files/Projects/Git/XMCLib/inc\xmc4_scu.h ****   XMC_SCU_PERIPHERAL_CLOCK_PORTS  = (SCU_CLK_CGATSTAT1_PPORTS_Msk | 0x10000000UL),   /**< PORTS per
 477:C:/Files/Projects/Git/XMCLib/inc\xmc4_scu.h ****   XMC_SCU_PERIPHERAL_CLOCK_WDT    = (SCU_CLK_CGATSTAT2_WDT_Msk | 0x20000000UL),      /**< WDT perip
 478:C:/Files/Projects/Git/XMCLib/inc\xmc4_scu.h **** #if defined(ETH0)
 479:C:/Files/Projects/Git/XMCLib/inc\xmc4_scu.h ****   XMC_SCU_PERIPHERAL_CLOCK_ETH0   = (SCU_CLK_CGATSTAT2_ETH0_Msk | 0x20000000UL),     /**< ETH0 peri
 480:C:/Files/Projects/Git/XMCLib/inc\xmc4_scu.h **** #endif
 481:C:/Files/Projects/Git/XMCLib/inc\xmc4_scu.h ****   XMC_SCU_PERIPHERAL_CLOCK_GPDMA0 = (SCU_CLK_CGATSTAT2_DMA0_Msk | 0x20000000UL),     /**< DMA0 peri
 482:C:/Files/Projects/Git/XMCLib/inc\xmc4_scu.h **** #if defined(GPDMA1)
 483:C:/Files/Projects/Git/XMCLib/inc\xmc4_scu.h ****   XMC_SCU_PERIPHERAL_CLOCK_GPDMA1 = (SCU_CLK_CGATSTAT2_DMA1_Msk | 0x20000000UL),     /**< DMA1 peri
 484:C:/Files/Projects/Git/XMCLib/inc\xmc4_scu.h **** #endif
 485:C:/Files/Projects/Git/XMCLib/inc\xmc4_scu.h **** #if defined(FCE)
 486:C:/Files/Projects/Git/XMCLib/inc\xmc4_scu.h ****   XMC_SCU_PERIPHERAL_CLOCK_FCE    = (SCU_CLK_CGATSTAT2_FCE_Msk | 0x20000000UL),      /**< FCE perip
 487:C:/Files/Projects/Git/XMCLib/inc\xmc4_scu.h **** #endif  
 488:C:/Files/Projects/Git/XMCLib/inc\xmc4_scu.h **** #if defined(USB0)
 489:C:/Files/Projects/Git/XMCLib/inc\xmc4_scu.h ****   XMC_SCU_PERIPHERAL_CLOCK_USB0   = (SCU_CLK_CGATSTAT2_USB_Msk | 0x20000000UL),      /**< USB0 peri
 490:C:/Files/Projects/Git/XMCLib/inc\xmc4_scu.h **** #endif  
 491:C:/Files/Projects/Git/XMCLib/inc\xmc4_scu.h **** #if defined(ECAT0)
 492:C:/Files/Projects/Git/XMCLib/inc\xmc4_scu.h ****   XMC_SCU_PERIPHERAL_CLOCK_ECAT0   = (SCU_CLK_CGATSTAT2_ECAT0_Msk | 0x20000000UL),      /**< ECAT0 
 493:C:/Files/Projects/Git/XMCLib/inc\xmc4_scu.h **** #endif  
 494:C:/Files/Projects/Git/XMCLib/inc\xmc4_scu.h **** #if defined(EBU)
 495:C:/Files/Projects/Git/XMCLib/inc\xmc4_scu.h ****   XMC_SCU_PERIPHERAL_CLOCK_EBU    = (SCU_CLK_CGATSTAT3_EBU_Msk | 0x30000000UL)       /**< EBU perip
 496:C:/Files/Projects/Git/XMCLib/inc\xmc4_scu.h **** #endif
 497:C:/Files/Projects/Git/XMCLib/inc\xmc4_scu.h **** } XMC_SCU_PERIPHERAL_CLOCK_t;
 498:C:/Files/Projects/Git/XMCLib/inc\xmc4_scu.h **** #endif
 499:C:/Files/Projects/Git/XMCLib/inc\xmc4_scu.h **** 
 500:C:/Files/Projects/Git/XMCLib/inc\xmc4_scu.h **** /**
 501:C:/Files/Projects/Git/XMCLib/inc\xmc4_scu.h ****  *  Defines options for system clock (fSYS) source. These enums are used to configure \a SYSSEL bit
 502:C:/Files/Projects/Git/XMCLib/inc\xmc4_scu.h ****  *  Clock Control Register. 
 503:C:/Files/Projects/Git/XMCLib/inc\xmc4_scu.h ****  *  Use type \a XMC_SCU_CLOCK_SYSCLKSRC_t for accessing these enum parameters.
 504:C:/Files/Projects/Git/XMCLib/inc\xmc4_scu.h ****  */ 
 505:C:/Files/Projects/Git/XMCLib/inc\xmc4_scu.h **** typedef enum XMC_SCU_CLOCK_SYSCLKSRC
 506:C:/Files/Projects/Git/XMCLib/inc\xmc4_scu.h **** {
 507:C:/Files/Projects/Git/XMCLib/inc\xmc4_scu.h ****   XMC_SCU_CLOCK_SYSCLKSRC_OFI = (0UL << SCU_CLK_SYSCLKCR_SYSSEL_Pos), /**< Internal Fast Clock (fOF
 508:C:/Files/Projects/Git/XMCLib/inc\xmc4_scu.h ****                                                                            source for system clock 
 509:C:/Files/Projects/Git/XMCLib/inc\xmc4_scu.h ****   XMC_SCU_CLOCK_SYSCLKSRC_PLL = (1UL << SCU_CLK_SYSCLKCR_SYSSEL_Pos)  /**< PLL output (fPLL) as a
 510:C:/Files/Projects/Git/XMCLib/inc\xmc4_scu.h ****                                                                            source for system clock 
 511:C:/Files/Projects/Git/XMCLib/inc\xmc4_scu.h **** } XMC_SCU_CLOCK_SYSCLKSRC_t;
 512:C:/Files/Projects/Git/XMCLib/inc\xmc4_scu.h **** 
 513:C:/Files/Projects/Git/XMCLib/inc\xmc4_scu.h **** /**
 514:C:/Files/Projects/Git/XMCLib/inc\xmc4_scu.h ****  *  Defines options for selecting the P-Divider input frequency. These enums are used to configure 
 515:C:/Files/Projects/Git/XMCLib/inc\xmc4_scu.h ****  *  register. 
 516:C:/Files/Projects/Git/XMCLib/inc\xmc4_scu.h ****  *  Use type \a XMC_SCU_CLOCK_OSCCLKSRC_t for accessing these enum parameters.
 517:C:/Files/Projects/Git/XMCLib/inc\xmc4_scu.h ****  */ 
 518:C:/Files/Projects/Git/XMCLib/inc\xmc4_scu.h **** typedef enum XMC_SCU_CLOCK_SYSPLLCLKSRC
 519:C:/Files/Projects/Git/XMCLib/inc\xmc4_scu.h **** {
 520:C:/Files/Projects/Git/XMCLib/inc\xmc4_scu.h ****   XMC_SCU_CLOCK_SYSPLLCLKSRC_OSCHP = 0UL,  /**< External crystal oscillator
 521:C:/Files/Projects/Git/XMCLib/inc\xmc4_scu.h ****                                                 (fOHP) as the source for P-Divider. */
 522:C:/Files/Projects/Git/XMCLib/inc\xmc4_scu.h ****   XMC_SCU_CLOCK_SYSPLLCLKSRC_OFI = SCU_PLL_PLLCON2_PINSEL_Msk | SCU_PLL_PLLCON2_K1INSEL_Msk /**< Ba
 523:C:/Files/Projects/Git/XMCLib/inc\xmc4_scu.h ****                                                                              as the source for P-Di
 524:C:/Files/Projects/Git/XMCLib/inc\xmc4_scu.h **** } XMC_SCU_CLOCK_SYSPLLCLKSRC_t;
 525:C:/Files/Projects/Git/XMCLib/inc\xmc4_scu.h **** 
 526:C:/Files/Projects/Git/XMCLib/inc\xmc4_scu.h **** /**
 527:C:/Files/Projects/Git/XMCLib/inc\xmc4_scu.h ****  * Defines options for selecting the USB clock source(fUSB/fSDMMC).
 528:C:/Files/Projects/Git/XMCLib/inc\xmc4_scu.h ****  * These enums are used to configure \a USBSEL bits of \a USBCLKCR
 529:C:/Files/Projects/Git/XMCLib/inc\xmc4_scu.h ****  * register. User can choose either fPLL or fUSBPLL clock as a source for USB clock. 
 530:C:/Files/Projects/Git/XMCLib/inc\xmc4_scu.h ****  * Use type \a XMC_SCU_CLOCK_USBCLKSRC_t for accessing these enum parameters.
 531:C:/Files/Projects/Git/XMCLib/inc\xmc4_scu.h ****  */ 
 532:C:/Files/Projects/Git/XMCLib/inc\xmc4_scu.h **** typedef enum XMC_SCU_CLOCK_USBCLKSRC
 533:C:/Files/Projects/Git/XMCLib/inc\xmc4_scu.h **** {
 534:C:/Files/Projects/Git/XMCLib/inc\xmc4_scu.h ****   XMC_SCU_CLOCK_USBCLKSRC_USBPLL = (0UL << SCU_CLK_USBCLKCR_USBSEL_Pos), /**< USB PLL(fUSB PLL) as 
 535:C:/Files/Projects/Git/XMCLib/inc\xmc4_scu.h ****                                                                            source for USB clock (fU
 536:C:/Files/Projects/Git/XMCLib/inc\xmc4_scu.h ****   XMC_SCU_CLOCK_USBCLKSRC_SYSPLL = (1UL << SCU_CLK_USBCLKCR_USBSEL_Pos)  /**< Main PLL output (fPLL
 537:C:/Files/Projects/Git/XMCLib/inc\xmc4_scu.h ****                                                                            source for USB clock (fU
 538:C:/Files/Projects/Git/XMCLib/inc\xmc4_scu.h **** } XMC_SCU_CLOCK_USBCLKSRC_t;
 539:C:/Files/Projects/Git/XMCLib/inc\xmc4_scu.h **** 
 540:C:/Files/Projects/Git/XMCLib/inc\xmc4_scu.h **** #if defined(ECAT0) 
 541:C:/Files/Projects/Git/XMCLib/inc\xmc4_scu.h **** /**
 542:C:/Files/Projects/Git/XMCLib/inc\xmc4_scu.h ****  * Defines options for selecting the ECAT clock source.
 543:C:/Files/Projects/Git/XMCLib/inc\xmc4_scu.h ****  */ 
 544:C:/Files/Projects/Git/XMCLib/inc\xmc4_scu.h **** typedef enum XMC_SCU_CLOCK_ECATCLKSRC
 545:C:/Files/Projects/Git/XMCLib/inc\xmc4_scu.h **** {
 546:C:/Files/Projects/Git/XMCLib/inc\xmc4_scu.h ****   XMC_SCU_CLOCK_ECATCLKSRC_USBPLL = (0UL << SCU_CLK_ECATCLKCR_ECATSEL_Pos), /**< USB PLL (fUSBPLL) 
 547:C:/Files/Projects/Git/XMCLib/inc\xmc4_scu.h ****   XMC_SCU_CLOCK_ECATCLKSRC_SYSPLL = (1UL << SCU_CLK_ECATCLKCR_ECATSEL_Pos)  /**< Main PLL output (f
 548:C:/Files/Projects/Git/XMCLib/inc\xmc4_scu.h **** } XMC_SCU_CLOCK_ECATCLKSRC_t;
 549:C:/Files/Projects/Git/XMCLib/inc\xmc4_scu.h **** #endif
 550:C:/Files/Projects/Git/XMCLib/inc\xmc4_scu.h **** 
 551:C:/Files/Projects/Git/XMCLib/inc\xmc4_scu.h **** /**
 552:C:/Files/Projects/Git/XMCLib/inc\xmc4_scu.h ****  *  Defines options for selecting the source of WDT clock(fWDT). These enums are used to configure 
 553:C:/Files/Projects/Git/XMCLib/inc\xmc4_scu.h ****  *  register. User can choose either fOFI or fPLL or fSTDBY clock as a source for WDT clock. 
 554:C:/Files/Projects/Git/XMCLib/inc\xmc4_scu.h ****  *  Use type \a XMC_SCU_CLOCK_USBCLKSRC_t for accessing these enum parameters.
 555:C:/Files/Projects/Git/XMCLib/inc\xmc4_scu.h ****  */ 
 556:C:/Files/Projects/Git/XMCLib/inc\xmc4_scu.h **** typedef enum XMC_SCU_CLOCK_WDTCLKSRC
 557:C:/Files/Projects/Git/XMCLib/inc\xmc4_scu.h **** {
 558:C:/Files/Projects/Git/XMCLib/inc\xmc4_scu.h ****   XMC_SCU_CLOCK_WDTCLKSRC_OFI = (0UL << SCU_CLK_WDTCLKCR_WDTSEL_Pos),  /**< Internal Fast Clock 
 559:C:/Files/Projects/Git/XMCLib/inc\xmc4_scu.h ****                                                                            (fOFI) as the source for
 560:C:/Files/Projects/Git/XMCLib/inc\xmc4_scu.h ****   XMC_SCU_CLOCK_WDTCLKSRC_STDBY = (1UL << SCU_CLK_WDTCLKCR_WDTSEL_Pos), /**< Standby clock 
 561:C:/Files/Projects/Git/XMCLib/inc\xmc4_scu.h ****                                                                            (fSTDBY) as the source f
 562:C:/Files/Projects/Git/XMCLib/inc\xmc4_scu.h ****   XMC_SCU_CLOCK_WDTCLKSRC_PLL = (2UL << SCU_CLK_WDTCLKCR_WDTSEL_Pos)   /**< PLL output (fPLL) as th
 563:C:/Files/Projects/Git/XMCLib/inc\xmc4_scu.h ****                                                                            source for WDT clock (fW
 564:C:/Files/Projects/Git/XMCLib/inc\xmc4_scu.h **** } XMC_SCU_CLOCK_WDTCLKSRC_t;
 565:C:/Files/Projects/Git/XMCLib/inc\xmc4_scu.h **** 
 566:C:/Files/Projects/Git/XMCLib/inc\xmc4_scu.h **** /**
 567:C:/Files/Projects/Git/XMCLib/inc\xmc4_scu.h ****  *  Defines options for selecting the source of external clock out (fEXT). These enums are used to 
 568:C:/Files/Projects/Git/XMCLib/inc\xmc4_scu.h ****  *  register. User can choose either fSYS or fPLL or fUSBPLL clock as a source for external clock o
 569:C:/Files/Projects/Git/XMCLib/inc\xmc4_scu.h ****  *  Use type \a XMC_SCU_CLOCK_EXTOUTCLKSRC_t for accessing these enum parameters.
 570:C:/Files/Projects/Git/XMCLib/inc\xmc4_scu.h ****  */ 
 571:C:/Files/Projects/Git/XMCLib/inc\xmc4_scu.h **** typedef enum XMC_SCU_CLOCK_EXTOUTCLKSRC
 572:C:/Files/Projects/Git/XMCLib/inc\xmc4_scu.h **** {
 573:C:/Files/Projects/Git/XMCLib/inc\xmc4_scu.h ****   XMC_SCU_CLOCK_EXTOUTCLKSRC_SYS = (0UL << SCU_CLK_EXTCLKCR_ECKSEL_Pos),  /**< System clock (fSYS) 
 574:C:/Files/Projects/Git/XMCLib/inc\xmc4_scu.h ****                                                                             the source for external
 575:C:/Files/Projects/Git/XMCLib/inc\xmc4_scu.h ****   XMC_SCU_CLOCK_EXTOUTCLKSRC_USB = (2UL << SCU_CLK_EXTCLKCR_ECKSEL_Pos), /**< USB PLL output(fUSB P
 576:C:/Files/Projects/Git/XMCLib/inc\xmc4_scu.h ****                                                                            source for external cloc
 577:C:/Files/Projects/Git/XMCLib/inc\xmc4_scu.h ****   XMC_SCU_CLOCK_EXTOUTCLKSRC_PLL = (3UL << SCU_CLK_EXTCLKCR_ECKSEL_Pos), /**< Main PLL output(fPLL)
 578:C:/Files/Projects/Git/XMCLib/inc\xmc4_scu.h ****                                                                            source for external cloc
 579:C:/Files/Projects/Git/XMCLib/inc\xmc4_scu.h **** #if ((UC_SERIES == XMC42) || (UC_SERIES == XMC41))
 580:C:/Files/Projects/Git/XMCLib/inc\xmc4_scu.h ****   XMC_SCU_CLOCK_EXTOUTCLKSRC_STDBY = (4UL << SCU_CLK_EXTCLKCR_ECKSEL_Pos), /**< Standby clock(fSTDB
 581:C:/Files/Projects/Git/XMCLib/inc\xmc4_scu.h ****                                                                            source for external cloc
 582:C:/Files/Projects/Git/XMCLib/inc\xmc4_scu.h **** #endif
 583:C:/Files/Projects/Git/XMCLib/inc\xmc4_scu.h **** } XMC_SCU_CLOCK_EXTOUTCLKSRC_t;
 584:C:/Files/Projects/Git/XMCLib/inc\xmc4_scu.h **** 
 585:C:/Files/Projects/Git/XMCLib/inc\xmc4_scu.h **** /**
 586:C:/Files/Projects/Git/XMCLib/inc\xmc4_scu.h ****  *  Defines options for selecting the source of RTC Clock (fRTC). These enums are used to configure
 587:C:/Files/Projects/Git/XMCLib/inc\xmc4_scu.h ****  *  User can choose either fOSI or fULP clock as a source for RTC Clock (fRTC).
 588:C:/Files/Projects/Git/XMCLib/inc\xmc4_scu.h ****  *  Use type \a XMC_SCU_HIB_RTCCLKSRC_t for accessing these enum parameters.
 589:C:/Files/Projects/Git/XMCLib/inc\xmc4_scu.h ****  */
 590:C:/Files/Projects/Git/XMCLib/inc\xmc4_scu.h **** typedef enum XMC_SCU_HIB_RTCCLKSRC
 591:C:/Files/Projects/Git/XMCLib/inc\xmc4_scu.h **** {
 592:C:/Files/Projects/Git/XMCLib/inc\xmc4_scu.h ****   XMC_SCU_HIB_RTCCLKSRC_OSI = (0UL << SCU_HIBERNATE_HDCR_RCS_Pos), /**< Internal Slow Clock
 593:C:/Files/Projects/Git/XMCLib/inc\xmc4_scu.h ****                                                                          (fOSI) as the source for R
 594:C:/Files/Projects/Git/XMCLib/inc\xmc4_scu.h ****   XMC_SCU_HIB_RTCCLKSRC_ULP = (1UL << SCU_HIBERNATE_HDCR_RCS_Pos) /**< Ultra Low Power Clock (fULP)
 595:C:/Files/Projects/Git/XMCLib/inc\xmc4_scu.h ****                                                                         as the source for RTC Clock
 596:C:/Files/Projects/Git/XMCLib/inc\xmc4_scu.h **** } XMC_SCU_HIB_RTCCLKSRC_t;
 597:C:/Files/Projects/Git/XMCLib/inc\xmc4_scu.h **** 
 598:C:/Files/Projects/Git/XMCLib/inc\xmc4_scu.h **** /**
 599:C:/Files/Projects/Git/XMCLib/inc\xmc4_scu.h ****  *  Defines options for selecting the source of Standby Clock (fSTDBY). These enums are used to con
 600:C:/Files/Projects/Git/XMCLib/inc\xmc4_scu.h ****  *  register. User can choose either fOSI or fULP clock as a source for Standby Clock (fSTDBY).
 601:C:/Files/Projects/Git/XMCLib/inc\xmc4_scu.h ****  *  Use type \a XMC_SCU_HIB_STDBYCLKSRC_t for accessing these enum parameters.
 602:C:/Files/Projects/Git/XMCLib/inc\xmc4_scu.h ****  */
 603:C:/Files/Projects/Git/XMCLib/inc\xmc4_scu.h **** typedef enum XMC_SCU_HIB_STDBYCLKSRC
 604:C:/Files/Projects/Git/XMCLib/inc\xmc4_scu.h **** {
 605:C:/Files/Projects/Git/XMCLib/inc\xmc4_scu.h ****   XMC_SCU_HIB_STDBYCLKSRC_OSI = (0UL << SCU_HIBERNATE_HDCR_STDBYSEL_Pos), /**< Internal Slow Clock 
 606:C:/Files/Projects/Git/XMCLib/inc\xmc4_scu.h ****                                                                           (fOSI) as the source for 
 607:C:/Files/Projects/Git/XMCLib/inc\xmc4_scu.h ****                                                                           (fSTDBY). */
 608:C:/Files/Projects/Git/XMCLib/inc\xmc4_scu.h ****   XMC_SCU_HIB_STDBYCLKSRC_OSCULP = (1UL << SCU_HIBERNATE_HDCR_STDBYSEL_Pos) /**< Ultra Low Power Cl
 609:C:/Files/Projects/Git/XMCLib/inc\xmc4_scu.h ****                                                                           (fULP) as the source for 
 610:C:/Files/Projects/Git/XMCLib/inc\xmc4_scu.h ****                                                                           (fSTDBY). */
 611:C:/Files/Projects/Git/XMCLib/inc\xmc4_scu.h **** } XMC_SCU_HIB_STDBYCLKSRC_t;
 612:C:/Files/Projects/Git/XMCLib/inc\xmc4_scu.h **** 
 613:C:/Files/Projects/Git/XMCLib/inc\xmc4_scu.h **** /**
 614:C:/Files/Projects/Git/XMCLib/inc\xmc4_scu.h ****  *  Defines options for backup clock trimming. These enums are used to configure \a AOTREN  \a FOTR
 615:C:/Files/Projects/Git/XMCLib/inc\xmc4_scu.h ****  *  PLLCON0 register. Use type \a XMC_SCU_CLOCK_BACKUP_TRIM_t for accessing these enum parameters.
 616:C:/Files/Projects/Git/XMCLib/inc\xmc4_scu.h ****  */
 617:C:/Files/Projects/Git/XMCLib/inc\xmc4_scu.h **** typedef enum XMC_SCU_CLOCK_FOFI_CALIBRATION_MODE
 618:C:/Files/Projects/Git/XMCLib/inc\xmc4_scu.h **** {
 619:C:/Files/Projects/Git/XMCLib/inc\xmc4_scu.h ****   XMC_SCU_CLOCK_FOFI_CALIBRATION_MODE_FACTORY   = 0UL,  /**< Factory Oscillator Calibration: 
 620:C:/Files/Projects/Git/XMCLib/inc\xmc4_scu.h ****                                                         Force adjustment of the internal oscillator
 621:C:/Files/Projects/Git/XMCLib/inc\xmc4_scu.h ****   XMC_SCU_CLOCK_FOFI_CALIBRATION_MODE_AUTOMATIC = 1UL   /**<  Automatic Oscillator Calibration adju
 622:C:/Files/Projects/Git/XMCLib/inc\xmc4_scu.h **** } XMC_SCU_CLOCK_FOFI_CALIBRATION_MODE_t;
 623:C:/Files/Projects/Git/XMCLib/inc\xmc4_scu.h **** 
 624:C:/Files/Projects/Git/XMCLib/inc\xmc4_scu.h **** 
 625:C:/Files/Projects/Git/XMCLib/inc\xmc4_scu.h **** /**
 626:C:/Files/Projects/Git/XMCLib/inc\xmc4_scu.h ****  *  Defines options for selecting device boot mode. These enums are used to configure \a SWCON bits
 627:C:/Files/Projects/Git/XMCLib/inc\xmc4_scu.h ****  *  User can choose among various boot modes by configuring SWCON bits.
 628:C:/Files/Projects/Git/XMCLib/inc\xmc4_scu.h ****  *  Use type \a XMC_SCU_BOOTMODE_t for accessing these enum parameters.
 629:C:/Files/Projects/Git/XMCLib/inc\xmc4_scu.h ****  */
 630:C:/Files/Projects/Git/XMCLib/inc\xmc4_scu.h **** typedef enum XMC_SCU_BOOTMODE 
 631:C:/Files/Projects/Git/XMCLib/inc\xmc4_scu.h **** {
 632:C:/Files/Projects/Git/XMCLib/inc\xmc4_scu.h ****   XMC_SCU_BOOTMODE_NORMAL     = (0UL << SCU_GENERAL_STCON_SWCON_Pos), /**< Boot from start of flash
 633:C:/Files/Projects/Git/XMCLib/inc\xmc4_scu.h ****   XMC_SCU_BOOTMODE_ASC_BSL    = (1UL << SCU_GENERAL_STCON_SWCON_Pos), /**< UART bootstrap. */
 634:C:/Files/Projects/Git/XMCLib/inc\xmc4_scu.h ****   XMC_SCU_BOOTMODE_BMI        = (2UL << SCU_GENERAL_STCON_SWCON_Pos), /**< Boot Mode Index - Custom
 635:C:/Files/Projects/Git/XMCLib/inc\xmc4_scu.h ****                                                                            sequence. */
 636:C:/Files/Projects/Git/XMCLib/inc\xmc4_scu.h ****   XMC_SCU_BOOTMODE_CAN_BSL    = (3UL << SCU_GENERAL_STCON_SWCON_Pos), /**< CAN bootstrap. */
 637:C:/Files/Projects/Git/XMCLib/inc\xmc4_scu.h ****   XMC_SCU_BOOTMODE_PSRAM_BOOT = (4UL << SCU_GENERAL_STCON_SWCON_Pos), /**< Boot from PSRAM. */
 638:C:/Files/Projects/Git/XMCLib/inc\xmc4_scu.h ****   XMC_SCU_BOOTMODE_ABM0       = (8UL << SCU_GENERAL_STCON_SWCON_Pos), /**< Boot from flash - fixed 
 639:C:/Files/Projects/Git/XMCLib/inc\xmc4_scu.h ****                                                                            address 0. */
 640:C:/Files/Projects/Git/XMCLib/inc\xmc4_scu.h ****   XMC_SCU_BOOTMODE_ABM1       = (12UL << SCU_GENERAL_STCON_SWCON_Pos), /**< Boot from flash - fixed
 641:C:/Files/Projects/Git/XMCLib/inc\xmc4_scu.h ****                                                                             address 1. */
 642:C:/Files/Projects/Git/XMCLib/inc\xmc4_scu.h ****   XMC_SCU_BOOTMODE_FABM       = (14UL << SCU_GENERAL_STCON_SWCON_Pos), /**< fallback Alternate Boot
 643:C:/Files/Projects/Git/XMCLib/inc\xmc4_scu.h ****                                                                             Try ABM-0 then try ABM-
 644:C:/Files/Projects/Git/XMCLib/inc\xmc4_scu.h **** } XMC_SCU_BOOTMODE_t;
 645:C:/Files/Projects/Git/XMCLib/inc\xmc4_scu.h **** 
 646:C:/Files/Projects/Git/XMCLib/inc\xmc4_scu.h **** 
 647:C:/Files/Projects/Git/XMCLib/inc\xmc4_scu.h **** /**
 648:C:/Files/Projects/Git/XMCLib/inc\xmc4_scu.h ****  *  Defines various PLL modes of operation. These enums are used to configure \a VCOBYP bit of \a P
 649:C:/Files/Projects/Git/XMCLib/inc\xmc4_scu.h ****  *  User can choose either normal or prescalar mode by configuring VCOBYP bit.
 650:C:/Files/Projects/Git/XMCLib/inc\xmc4_scu.h ****  *  Use type \a XMC_SCU_PLL_MODE_t for accessing these enum parameters.
 651:C:/Files/Projects/Git/XMCLib/inc\xmc4_scu.h ****  */
 652:C:/Files/Projects/Git/XMCLib/inc\xmc4_scu.h **** typedef enum XMC_SCU_CLOCK_SYSPLL_MODE
 653:C:/Files/Projects/Git/XMCLib/inc\xmc4_scu.h **** {
 654:C:/Files/Projects/Git/XMCLib/inc\xmc4_scu.h ****   XMC_SCU_CLOCK_SYSPLL_MODE_DISABLED, /**< fPLL derived from fOSC and PLL operating in prescalar mo
 655:C:/Files/Projects/Git/XMCLib/inc\xmc4_scu.h ****   XMC_SCU_CLOCK_SYSPLL_MODE_NORMAL,  /**< fPLL derived from fVCO and PLL operating in normal mode. 
 656:C:/Files/Projects/Git/XMCLib/inc\xmc4_scu.h ****   XMC_SCU_CLOCK_SYSPLL_MODE_PRESCALAR /**< fPLL derived from fOSC and PLL operating in prescalar mo
 657:C:/Files/Projects/Git/XMCLib/inc\xmc4_scu.h **** } XMC_SCU_CLOCK_SYSPLL_MODE_t;
 658:C:/Files/Projects/Git/XMCLib/inc\xmc4_scu.h **** 
 659:C:/Files/Projects/Git/XMCLib/inc\xmc4_scu.h **** /** 
 660:C:/Files/Projects/Git/XMCLib/inc\xmc4_scu.h ****  *  Defines the source of the system clock and peripherals clock gating in SLEEP state.
 661:C:/Files/Projects/Git/XMCLib/inc\xmc4_scu.h ****  *  Use this enum as parameter of XMC_SCU_CLOCK_SetSleepConfig before going to SLEEP state.
 662:C:/Files/Projects/Git/XMCLib/inc\xmc4_scu.h ****  *
 663:C:/Files/Projects/Git/XMCLib/inc\xmc4_scu.h ****  *  The SLEEP state of the system corresponds to the SLEEP state of the CPU. The state is
 664:C:/Files/Projects/Git/XMCLib/inc\xmc4_scu.h ****  *  entered via WFI or WFE instruction of the CPU. In this state the clock to the CPU is
 665:C:/Files/Projects/Git/XMCLib/inc\xmc4_scu.h ****  *  stopped. Peripherals are only clocked when configured to stay enabled. 
 666:C:/Files/Projects/Git/XMCLib/inc\xmc4_scu.h ****  *
 667:C:/Files/Projects/Git/XMCLib/inc\xmc4_scu.h ****  *  Peripherals can continue to operate unaffected and eventually generate an event to
 668:C:/Files/Projects/Git/XMCLib/inc\xmc4_scu.h ****  *  wake-up the CPU. Any interrupt to the NVIC will bring the CPU back to operation. The
 669:C:/Files/Projects/Git/XMCLib/inc\xmc4_scu.h ****  *  clock tree upon exit from SLEEP state is restored to what it was before entry into SLEEP
 670:C:/Files/Projects/Git/XMCLib/inc\xmc4_scu.h ****  *  state.
 671:C:/Files/Projects/Git/XMCLib/inc\xmc4_scu.h ****  *  
 672:C:/Files/Projects/Git/XMCLib/inc\xmc4_scu.h ****  */
 673:C:/Files/Projects/Git/XMCLib/inc\xmc4_scu.h **** typedef enum XMC_SCU_CLOCK_SLEEP_MODE_CONFIG
 674:C:/Files/Projects/Git/XMCLib/inc\xmc4_scu.h **** {
 675:C:/Files/Projects/Git/XMCLib/inc\xmc4_scu.h ****   XMC_SCU_CLOCK_SLEEP_MODE_CONFIG_SYSCLK_FOFI = 0,  /**< fOFI used as system clock source in SLEEP 
 676:C:/Files/Projects/Git/XMCLib/inc\xmc4_scu.h ****   XMC_SCU_CLOCK_SLEEP_MODE_CONFIG_SYSCLK_FPLL = SCU_CLK_SLEEPCR_SYSSEL_Msk,  /**< fPLL used as syst
 677:C:/Files/Projects/Git/XMCLib/inc\xmc4_scu.h **** #if defined(USB0)
 678:C:/Files/Projects/Git/XMCLib/inc\xmc4_scu.h ****   XMC_SCU_CLOCK_SLEEP_MODE_CONFIG_DISABLE_USB = 0,  /**< USB clock disabled in SLEEP state */
 679:C:/Files/Projects/Git/XMCLib/inc\xmc4_scu.h ****   XMC_SCU_CLOCK_SLEEP_MODE_CONFIG_ENABLE_USB = SCU_CLK_SLEEPCR_USBCR_Msk,  /**< USB clock enabled i
 680:C:/Files/Projects/Git/XMCLib/inc\xmc4_scu.h **** #endif  
 681:C:/Files/Projects/Git/XMCLib/inc\xmc4_scu.h **** #if defined(SDMMC)
 682:C:/Files/Projects/Git/XMCLib/inc\xmc4_scu.h ****   XMC_SCU_CLOCK_SLEEP_MODE_CONFIG_DISABLE_SDMMC = 0,/**< SDMMC clock disabled in SLEEP state */
 683:C:/Files/Projects/Git/XMCLib/inc\xmc4_scu.h ****   XMC_SCU_CLOCK_SLEEP_MODE_CONFIG_ENABLE_SDMMC = SCU_CLK_SLEEPCR_MMCCR_Msk,/**< SDMMC clock enabled
 684:C:/Files/Projects/Git/XMCLib/inc\xmc4_scu.h **** #endif  
 685:C:/Files/Projects/Git/XMCLib/inc\xmc4_scu.h **** #if defined(ETH0)
 686:C:/Files/Projects/Git/XMCLib/inc\xmc4_scu.h ****   XMC_SCU_CLOCK_SLEEP_MODE_CONFIG_DISABLE_ETH = 0,  /**< ETH clock disabled in SLEEP state */
 687:C:/Files/Projects/Git/XMCLib/inc\xmc4_scu.h ****   XMC_SCU_CLOCK_SLEEP_MODE_CONFIG_ENABLE_ETH = SCU_CLK_SLEEPCR_ETH0CR_Msk,  /**< ETH clock enabled 
 688:C:/Files/Projects/Git/XMCLib/inc\xmc4_scu.h **** #endif  
 689:C:/Files/Projects/Git/XMCLib/inc\xmc4_scu.h **** #if defined(EBU)
 690:C:/Files/Projects/Git/XMCLib/inc\xmc4_scu.h ****   XMC_SCU_CLOCK_SLEEP_MODE_CONFIG_DISABLE_EBU = 0,  /**< EBU clock disabled in SLEEP state */
 691:C:/Files/Projects/Git/XMCLib/inc\xmc4_scu.h ****   XMC_SCU_CLOCK_SLEEP_MODE_CONFIG_ENABLE_EBU = SCU_CLK_SLEEPCR_EBUCR_Msk,  /**< EBU clock enabled i
 692:C:/Files/Projects/Git/XMCLib/inc\xmc4_scu.h **** #endif  
 693:C:/Files/Projects/Git/XMCLib/inc\xmc4_scu.h ****   XMC_SCU_CLOCK_SLEEP_MODE_CONFIG_DISABLED_CCU = 0,  /**< CCU clock disabled in SLEEP state */
 694:C:/Files/Projects/Git/XMCLib/inc\xmc4_scu.h ****   XMC_SCU_CLOCK_SLEEP_MODE_CONFIG_ENABLE_CCU = SCU_CLK_SLEEPCR_CCUCR_Msk,  /**< CCU clock enabled i
 695:C:/Files/Projects/Git/XMCLib/inc\xmc4_scu.h ****   XMC_SCU_CLOCK_SLEEP_MODE_CONFIG_DISABLED_WDT = 0,  /**< WDT clock disabled in SLEEP state */
 696:C:/Files/Projects/Git/XMCLib/inc\xmc4_scu.h ****   XMC_SCU_CLOCK_SLEEP_MODE_CONFIG_ENABLE_WDT = SCU_CLK_SLEEPCR_WDTCR_Msk,  /**< WDT clock enabled i
 697:C:/Files/Projects/Git/XMCLib/inc\xmc4_scu.h **** } XMC_SCU_CLOCK_SLEEP_MODE_CONFIG_t;
 698:C:/Files/Projects/Git/XMCLib/inc\xmc4_scu.h **** 
 699:C:/Files/Projects/Git/XMCLib/inc\xmc4_scu.h **** /** 
 700:C:/Files/Projects/Git/XMCLib/inc\xmc4_scu.h ****  *  Defines the source of the system clock and peripherals clock gating in DEEPSLEEP state.
 701:C:/Files/Projects/Git/XMCLib/inc\xmc4_scu.h ****  *  In addition the state of FLASH, PLL and PLLVCO during DEEPSLEEP state.
 702:C:/Files/Projects/Git/XMCLib/inc\xmc4_scu.h ****  *  Use this enum as parameter of XMC_SCU_CLOCK_SetDeepSleepConfig before going to DEEPSLEEP state.
 703:C:/Files/Projects/Git/XMCLib/inc\xmc4_scu.h ****  *
 704:C:/Files/Projects/Git/XMCLib/inc\xmc4_scu.h ****  *  The DEEPSLEEP state of the system corresponds to the DEEPSLEEP state of the CPU. The state is
 705:C:/Files/Projects/Git/XMCLib/inc\xmc4_scu.h ****  *  entered via WFI or WFE instruction of the CPU. In this state the clock to the CPU is
 706:C:/Files/Projects/Git/XMCLib/inc\xmc4_scu.h ****  *  stopped. 
 707:C:/Files/Projects/Git/XMCLib/inc\xmc4_scu.h ****  *
 708:C:/Files/Projects/Git/XMCLib/inc\xmc4_scu.h ****  *  In Deep Sleep state the OSC_HP and the PLL may be switched off. The wake-up logic in the NVIC i
 709:C:/Files/Projects/Git/XMCLib/inc\xmc4_scu.h ****  *  by a free-running clock. Peripherals are only clocked when configured to stay enabled. 
 710:C:/Files/Projects/Git/XMCLib/inc\xmc4_scu.h ****  *  Configuration of peripherals and any SRAM content is preserved.
 711:C:/Files/Projects/Git/XMCLib/inc\xmc4_scu.h ****  *  The Flash module can be put into low-power mode to achieve a further power reduction.
 712:C:/Files/Projects/Git/XMCLib/inc\xmc4_scu.h ****  *  On wake-up Flash module will be restarted again before instructions or data access is possible.
 713:C:/Files/Projects/Git/XMCLib/inc\xmc4_scu.h ****  *  Any interrupt will bring the system back to operation via the NVIC.The clock setup before
 714:C:/Files/Projects/Git/XMCLib/inc\xmc4_scu.h ****  *  entering Deep Sleep state is restored upon wake-up.
 715:C:/Files/Projects/Git/XMCLib/inc\xmc4_scu.h ****  */
 716:C:/Files/Projects/Git/XMCLib/inc\xmc4_scu.h **** typedef enum XMC_SCU_CLOCK_DEEPSLEEP_MODE_CONFIG
 717:C:/Files/Projects/Git/XMCLib/inc\xmc4_scu.h **** {
 718:C:/Files/Projects/Git/XMCLib/inc\xmc4_scu.h ****   XMC_SCU_CLOCK_DEEPSLEEP_MODE_CONFIG_SYSCLK_FOFI = 0,  /**< fOFI used as system clock source in DE
 719:C:/Files/Projects/Git/XMCLib/inc\xmc4_scu.h ****   XMC_SCU_CLOCK_DEEPSLEEP_MODE_CONFIG_SYSCLK_FPLL = SCU_CLK_DSLEEPCR_SYSSEL_Msk,  /**< fPLL used as
 720:C:/Files/Projects/Git/XMCLib/inc\xmc4_scu.h ****   XMC_SCU_CLOCK_DEEPSLEEP_MODE_CONFIG_FLASH_POWERDOWN = SCU_CLK_DSLEEPCR_FPDN_Msk,/**< Flash power 
 721:C:/Files/Projects/Git/XMCLib/inc\xmc4_scu.h ****   XMC_SCU_CLOCK_DEEPSLEEP_MODE_CONFIG_PLL_POWERDOWN = SCU_CLK_DSLEEPCR_PLLPDN_Msk,  /**<  Switch of
 722:C:/Files/Projects/Git/XMCLib/inc\xmc4_scu.h ****   XMC_SCU_CLOCK_DEEPSLEEP_MODE_CONFIG_VCO_POWERDOWN = SCU_CLK_DSLEEPCR_VCOPDN_Msk,  /**<  Switch of
 723:C:/Files/Projects/Git/XMCLib/inc\xmc4_scu.h **** #if defined(USB0)
 724:C:/Files/Projects/Git/XMCLib/inc\xmc4_scu.h ****   XMC_SCU_CLOCK_DEEPSLEEP_MODE_CONFIG_DISABLE_USB = 0,  /**< USB clock disabled in DEEPSLEEP state 
 725:C:/Files/Projects/Git/XMCLib/inc\xmc4_scu.h ****   XMC_SCU_CLOCK_DEEPSLEEP_MODE_CONFIG_ENABLE_USB = SCU_CLK_DSLEEPCR_USBCR_Msk,  /**< USB clock enab
 726:C:/Files/Projects/Git/XMCLib/inc\xmc4_scu.h **** #endif  
 727:C:/Files/Projects/Git/XMCLib/inc\xmc4_scu.h **** #if defined(SDMMC)
 728:C:/Files/Projects/Git/XMCLib/inc\xmc4_scu.h ****   XMC_SCU_CLOCK_DEEPSLEEP_MODE_CONFIG_DISABLE_SDMMC = 0,/**< SDMMC clock disabled in DEEPSLEEP stat
 729:C:/Files/Projects/Git/XMCLib/inc\xmc4_scu.h ****   XMC_SCU_CLOCK_DEEPSLEEP_MODE_CONFIG_ENABLE_SDMMC = SCU_CLK_DSLEEPCR_MMCCR_Msk,/**< SDMMC clock en
 730:C:/Files/Projects/Git/XMCLib/inc\xmc4_scu.h **** #endif  
 731:C:/Files/Projects/Git/XMCLib/inc\xmc4_scu.h **** #if defined(ETH0)
 732:C:/Files/Projects/Git/XMCLib/inc\xmc4_scu.h ****   XMC_SCU_CLOCK_DEEPSLEEP_MODE_CONFIG_DISABLE_ETH = 0,  /**< ETH clock disabled in DEEPSLEEP state 
 733:C:/Files/Projects/Git/XMCLib/inc\xmc4_scu.h ****   XMC_SCU_CLOCK_DEEPSLEEP_MODE_CONFIG_ENABLE_ETH = SCU_CLK_DSLEEPCR_ETH0CR_Msk,  /**< ETH clock ena
 734:C:/Files/Projects/Git/XMCLib/inc\xmc4_scu.h **** #endif  
 735:C:/Files/Projects/Git/XMCLib/inc\xmc4_scu.h **** #if defined(EBU)
 736:C:/Files/Projects/Git/XMCLib/inc\xmc4_scu.h ****   XMC_SCU_CLOCK_DEEPSLEEP_MODE_CONFIG_DISABLE_EBU = 0,  /**< EBU clock disabled in DEEPSLEEP state 
 737:C:/Files/Projects/Git/XMCLib/inc\xmc4_scu.h ****   XMC_SCU_CLOCK_DEEPSLEEP_MODE_CONFIG_ENABLE_EBU = SCU_CLK_DSLEEPCR_EBUCR_Msk,  /**< EBU clock enab
 738:C:/Files/Projects/Git/XMCLib/inc\xmc4_scu.h **** #endif  
 739:C:/Files/Projects/Git/XMCLib/inc\xmc4_scu.h ****   XMC_SCU_CLOCK_DEEPSLEEP_MODE_CONFIG_DISABLE_CCU = 0,  /**< CCU clock disabled in DEEPSLEEP state 
 740:C:/Files/Projects/Git/XMCLib/inc\xmc4_scu.h ****   XMC_SCU_CLOCK_DEEPSLEEP_MODE_CONFIG_ENABLE_CCU = SCU_CLK_DSLEEPCR_CCUCR_Msk,  /**< CCU clock enab
 741:C:/Files/Projects/Git/XMCLib/inc\xmc4_scu.h ****   XMC_SCU_CLOCK_DEEPSLEEP_MODE_CONFIG_DISABLE_WDT = 0,  /**< WDT clock disabled in DEEPSLEEP state 
 742:C:/Files/Projects/Git/XMCLib/inc\xmc4_scu.h ****   XMC_SCU_CLOCK_DEEPSLEEP_MODE_CONFIG_ENABLE_WDT = SCU_CLK_DSLEEPCR_WDTCR_Msk,  /**< WDT clock enab
 743:C:/Files/Projects/Git/XMCLib/inc\xmc4_scu.h **** } XMC_SCU_CLOCK_DEEPSLEEP_MODE_CONFIG_t;
 744:C:/Files/Projects/Git/XMCLib/inc\xmc4_scu.h **** 
 745:C:/Files/Projects/Git/XMCLib/inc\xmc4_scu.h **** /** 
 746:C:/Files/Projects/Git/XMCLib/inc\xmc4_scu.h ****  * Defines status of EVR13 regulator
 747:C:/Files/Projects/Git/XMCLib/inc\xmc4_scu.h ****  */
 748:C:/Files/Projects/Git/XMCLib/inc\xmc4_scu.h **** typedef enum XMC_SCU_POWER_EVR_STATUS
 749:C:/Files/Projects/Git/XMCLib/inc\xmc4_scu.h **** {
 750:C:/Files/Projects/Git/XMCLib/inc\xmc4_scu.h ****   XMC_SCU_POWER_EVR_STATUS_OK = 0, /**< EVR13 regulator No overvoltage condition */
 751:C:/Files/Projects/Git/XMCLib/inc\xmc4_scu.h ****   XMC_SCU_POWER_EVR_STATUS_EVR13_OVERVOLTAGE = SCU_POWER_EVRSTAT_OV13_Msk /**< EVR13 regulator is i
 752:C:/Files/Projects/Git/XMCLib/inc\xmc4_scu.h **** } XMC_SCU_POWER_EVR_STATUS_t;
 753:C:/Files/Projects/Git/XMCLib/inc\xmc4_scu.h **** 
 754:C:/Files/Projects/Git/XMCLib/inc\xmc4_scu.h **** /**
 755:C:/Files/Projects/Git/XMCLib/inc\xmc4_scu.h ****  * Define status of external hibernate control  
 756:C:/Files/Projects/Git/XMCLib/inc\xmc4_scu.h ****  */
 757:C:/Files/Projects/Git/XMCLib/inc\xmc4_scu.h **** typedef enum XMC_SCU_HIB_CTRL_STATUS
 758:C:/Files/Projects/Git/XMCLib/inc\xmc4_scu.h **** {
 759:C:/Files/Projects/Git/XMCLib/inc\xmc4_scu.h ****   XMC_SCU_HIB_CTRL_STATUS_NO_ACTIVE = 0, /**< Hibernate not driven active to pads */
 760:C:/Files/Projects/Git/XMCLib/inc\xmc4_scu.h ****   XMC_SCU_HIB_CTRL_STATUS_ACTIVE = SCU_HIBERNATE_HDSTAT_HIBNOUT_Msk, /**< Hibernate driven active t
 761:C:/Files/Projects/Git/XMCLib/inc\xmc4_scu.h **** } XMC_SCU_HIB_CTRL_STATUS_t;
 762:C:/Files/Projects/Git/XMCLib/inc\xmc4_scu.h **** 
 763:C:/Files/Projects/Git/XMCLib/inc\xmc4_scu.h **** /** 
 764:C:/Files/Projects/Git/XMCLib/inc\xmc4_scu.h ****  *  Hibernate domain event status
 765:C:/Files/Projects/Git/XMCLib/inc\xmc4_scu.h ****  */
 766:C:/Files/Projects/Git/XMCLib/inc\xmc4_scu.h **** typedef enum XMC_SCU_HIB_EVENT
 767:C:/Files/Projects/Git/XMCLib/inc\xmc4_scu.h **** {
 768:C:/Files/Projects/Git/XMCLib/inc\xmc4_scu.h ****   XMC_SCU_HIB_EVENT_WAKEUP_ON_POS_EDGE = SCU_HIBERNATE_HDCR_WKPEP_Msk, /**< Wake-up on positive edg
 769:C:/Files/Projects/Git/XMCLib/inc\xmc4_scu.h ****   XMC_SCU_HIB_EVENT_WAKEUP_ON_NEG_EDGE = SCU_HIBERNATE_HDCR_WKPEN_Msk, /**< Wake-up on negative edg
 770:C:/Files/Projects/Git/XMCLib/inc\xmc4_scu.h ****   XMC_SCU_HIB_EVENT_WAKEUP_ON_RTC = SCU_HIBERNATE_HDCR_RTCE_Msk, /**< Wake-up on RTC event */
 771:C:/Files/Projects/Git/XMCLib/inc\xmc4_scu.h ****   XMC_SCU_HIB_EVENT_ULPWDG = SCU_HIBERNATE_HDCR_ULPWDGEN_Msk, /**< ULP watchdog alarm status */
 772:C:/Files/Projects/Git/XMCLib/inc\xmc4_scu.h **** #if (defined(DOXYGEN) || (UC_SERIES == XMC44) || (UC_SERIES == XMC42) || (UC_SERIES == XMC41))
 773:C:/Files/Projects/Git/XMCLib/inc\xmc4_scu.h ****   XMC_SCU_HIB_EVENT_LPAC_VBAT_POSEDGE = SCU_HIBERNATE_HDSTAT_VBATPEV_Msk, /**< Wake-up on LPAC posi
 774:C:/Files/Projects/Git/XMCLib/inc\xmc4_scu.h ****   XMC_SCU_HIB_EVENT_LPAC_VBAT_NEGEDGE = SCU_HIBERNATE_HDSTAT_VBATNEV_Msk, /**< Wake-up on LPAC nega
 775:C:/Files/Projects/Git/XMCLib/inc\xmc4_scu.h ****   XMC_SCU_HIB_EVENT_LPAC_HIB_IO_0_POSEDGE = SCU_HIBERNATE_HDSTAT_AHIBIO0PEV_Msk, /**< Wake-up on LP
 776:C:/Files/Projects/Git/XMCLib/inc\xmc4_scu.h ****   XMC_SCU_HIB_EVENT_LPAC_HIB_IO_0_NEGEDGE = SCU_HIBERNATE_HDSTAT_AHIBIO0NEV_Msk, /**< Wake-up on LP
 777:C:/Files/Projects/Git/XMCLib/inc\xmc4_scu.h **** #if (defined(DOXYGEN) || ((UC_SERIES == XMC44) && (UC_PACKAGE == LQFP100)))
 778:C:/Files/Projects/Git/XMCLib/inc\xmc4_scu.h ****   XMC_SCU_HIB_EVENT_LPAC_HIB_IO_1_POSEDGE = SCU_HIBERNATE_HDSTAT_AHIBIO1PEV_Msk, /**< Wake-up on LP
 779:C:/Files/Projects/Git/XMCLib/inc\xmc4_scu.h ****   XMC_SCU_HIB_EVENT_LPAC_HIB_IO_1_NEGEDGE = SCU_HIBERNATE_HDSTAT_AHIBIO1NEV_Msk, /**< Wake-up on LP
 780:C:/Files/Projects/Git/XMCLib/inc\xmc4_scu.h **** #endif
 781:C:/Files/Projects/Git/XMCLib/inc\xmc4_scu.h **** #endif  
 782:C:/Files/Projects/Git/XMCLib/inc\xmc4_scu.h **** } XMC_SCU_HIB_EVENT_t;
 783:C:/Files/Projects/Git/XMCLib/inc\xmc4_scu.h **** 
 784:C:/Files/Projects/Git/XMCLib/inc\xmc4_scu.h **** /** 
 785:C:/Files/Projects/Git/XMCLib/inc\xmc4_scu.h ****   * Hibernate domain dedicated pins
 786:C:/Files/Projects/Git/XMCLib/inc\xmc4_scu.h ****   */
 787:C:/Files/Projects/Git/XMCLib/inc\xmc4_scu.h **** typedef enum XMC_SCU_HIB_IO
 788:C:/Files/Projects/Git/XMCLib/inc\xmc4_scu.h **** {
 789:C:/Files/Projects/Git/XMCLib/inc\xmc4_scu.h ****   XMC_SCU_HIB_IO_0 = 0, /**< HIB_IO_0 pin. 
 790:C:/Files/Projects/Git/XMCLib/inc\xmc4_scu.h ****                              At the first power-up and with every reset of the hibernate domain thi
 791:C:/Files/Projects/Git/XMCLib/inc\xmc4_scu.h **** #if (defined(DOXYGEN) || (UC_PACKAGE == BGA196) || (UC_PACKAGE == BGA144) || (UC_PACKAGE == LQFP144
 792:C:/Files/Projects/Git/XMCLib/inc\xmc4_scu.h ****   XMC_SCU_HIB_IO_1 = 1 /**< HIB_IO_1 pin. 
 793:C:/Files/Projects/Git/XMCLib/inc\xmc4_scu.h ****                             At the first power-up and with every reset of the hibernate domain this
 794:C:/Files/Projects/Git/XMCLib/inc\xmc4_scu.h ****                             @note : Only available in certain packages*/
 795:C:/Files/Projects/Git/XMCLib/inc\xmc4_scu.h **** #endif  
 796:C:/Files/Projects/Git/XMCLib/inc\xmc4_scu.h **** } XMC_SCU_HIB_IO_t;
 797:C:/Files/Projects/Git/XMCLib/inc\xmc4_scu.h **** 
 798:C:/Files/Projects/Git/XMCLib/inc\xmc4_scu.h **** /**
 799:C:/Files/Projects/Git/XMCLib/inc\xmc4_scu.h ****  * HIB_IOx pin I/O control
 800:C:/Files/Projects/Git/XMCLib/inc\xmc4_scu.h ****  */
 801:C:/Files/Projects/Git/XMCLib/inc\xmc4_scu.h **** typedef enum XMC_SCU_HIB_PIN_MODE
 802:C:/Files/Projects/Git/XMCLib/inc\xmc4_scu.h **** {
 803:C:/Files/Projects/Git/XMCLib/inc\xmc4_scu.h ****   XMC_SCU_HIB_PIN_MODE_INPUT_PULL_NONE = 0 << SCU_HIBERNATE_HDCR_HIBIO0SEL_Pos, /**< Direct input, 
 804:C:/Files/Projects/Git/XMCLib/inc\xmc4_scu.h ****   XMC_SCU_HIB_PIN_MODE_INPUT_PULL_DOWN = 1 << SCU_HIBERNATE_HDCR_HIBIO0SEL_Pos, /**< Direct input, 
 805:C:/Files/Projects/Git/XMCLib/inc\xmc4_scu.h ****   XMC_SCU_HIB_PIN_MODE_INPUT_PULL_UP = 2 << SCU_HIBERNATE_HDCR_HIBIO0SEL_Pos, /**< Direct input, in
 806:C:/Files/Projects/Git/XMCLib/inc\xmc4_scu.h ****   XMC_SCU_HIB_PIN_MODE_OUTPUT_PUSH_PULL_HIBCTRL = 8 << SCU_HIBERNATE_HDCR_HIBIO0SEL_Pos, /**< Push-
 807:C:/Files/Projects/Git/XMCLib/inc\xmc4_scu.h ****   XMC_SCU_HIB_PIN_MODE_OUTPUT_PUSH_PULL_WDTSRV = 9 << SCU_HIBERNATE_HDCR_HIBIO0SEL_Pos, /**< Push-p
 808:C:/Files/Projects/Git/XMCLib/inc\xmc4_scu.h ****   XMC_SCU_HIB_PIN_MODE_OUTPUT_PUSH_PULL_GPIO = 10 << SCU_HIBERNATE_HDCR_HIBIO0SEL_Pos, /**< Push-pu
 809:C:/Files/Projects/Git/XMCLib/inc\xmc4_scu.h ****   XMC_SCU_HIB_PIN_MODE_OUTPUT_OPEN_DRAIN_HIBCTRL = 12 << SCU_HIBERNATE_HDCR_HIBIO0SEL_Pos, /**< Ope
 810:C:/Files/Projects/Git/XMCLib/inc\xmc4_scu.h ****   XMC_SCU_HIB_PIN_MODE_OUTPUT_OPEN_DRAIN_WDTSRV = 13 << SCU_HIBERNATE_HDCR_HIBIO0SEL_Pos, /**< Open
 811:C:/Files/Projects/Git/XMCLib/inc\xmc4_scu.h ****   XMC_SCU_HIB_PIN_MODE_OUTPUT_OPEN_DRAIN_GPIO = 14 << SCU_HIBERNATE_HDCR_HIBIO0SEL_Pos, /**< Open d
 812:C:/Files/Projects/Git/XMCLib/inc\xmc4_scu.h **** } XMC_SCU_HIB_PIN_MODE_t;
 813:C:/Files/Projects/Git/XMCLib/inc\xmc4_scu.h **** 
 814:C:/Files/Projects/Git/XMCLib/inc\xmc4_scu.h **** /**
 815:C:/Files/Projects/Git/XMCLib/inc\xmc4_scu.h ****  * Selects the output polarity of the HIB_IOx
 816:C:/Files/Projects/Git/XMCLib/inc\xmc4_scu.h ****  */
 817:C:/Files/Projects/Git/XMCLib/inc\xmc4_scu.h **** typedef enum XMC_SCU_HIB_IO_OUTPUT_LEVEL
 818:C:/Files/Projects/Git/XMCLib/inc\xmc4_scu.h **** {
 819:C:/Files/Projects/Git/XMCLib/inc\xmc4_scu.h ****   XMC_SCU_HIB_IO_OUTPUT_LEVEL_LOW = 0 << SCU_HIBERNATE_HDCR_HIBIO0POL_Pos, /**< Direct value */
 820:C:/Files/Projects/Git/XMCLib/inc\xmc4_scu.h ****   XMC_SCU_HIB_IO_OUTPUT_LEVEL_HIGH = 1 << SCU_HIBERNATE_HDCR_HIBIO0POL_Pos /**< Inverted value */
 821:C:/Files/Projects/Git/XMCLib/inc\xmc4_scu.h **** } XMC_SCU_HIB_IO_OUTPUT_LEVEL_t;
 822:C:/Files/Projects/Git/XMCLib/inc\xmc4_scu.h **** 
 823:C:/Files/Projects/Git/XMCLib/inc\xmc4_scu.h **** /**
 824:C:/Files/Projects/Git/XMCLib/inc\xmc4_scu.h ****  * Selects hibernate mode
 825:C:/Files/Projects/Git/XMCLib/inc\xmc4_scu.h ****  */
 826:C:/Files/Projects/Git/XMCLib/inc\xmc4_scu.h **** typedef enum XMC_SCU_HIB_HIBERNATE_MODE
 827:C:/Files/Projects/Git/XMCLib/inc\xmc4_scu.h **** {
 828:C:/Files/Projects/Git/XMCLib/inc\xmc4_scu.h ****   XMC_SCU_HIB_HIBERNATE_MODE_EXTERNAL = 0, /**< Request external hibernate mode */
 829:C:/Files/Projects/Git/XMCLib/inc\xmc4_scu.h **** #if (defined(DOXYGEN) || (UC_SERIES == XMC44) || (UC_SERIES == XMC42) || (UC_SERIES == XMC41))
 830:C:/Files/Projects/Git/XMCLib/inc\xmc4_scu.h ****   XMC_SCU_HIB_HIBERNATE_MODE_INTERNAL = 1, /**< Request internal hibernate mode. @note Only availab
 831:C:/Files/Projects/Git/XMCLib/inc\xmc4_scu.h **** #endif
 832:C:/Files/Projects/Git/XMCLib/inc\xmc4_scu.h **** } XMC_SCU_HIB_HIBERNATE_MODE_t;
 833:C:/Files/Projects/Git/XMCLib/inc\xmc4_scu.h **** 
 834:C:/Files/Projects/Git/XMCLib/inc\xmc4_scu.h **** /**
 835:C:/Files/Projects/Git/XMCLib/inc\xmc4_scu.h ****  * Selects input signal HIB_SR0 of ERU0
 836:C:/Files/Projects/Git/XMCLib/inc\xmc4_scu.h ****  */
 837:C:/Files/Projects/Git/XMCLib/inc\xmc4_scu.h **** typedef enum XMC_SCU_HIB_SR0_INPUT
 838:C:/Files/Projects/Git/XMCLib/inc\xmc4_scu.h **** {
 839:C:/Files/Projects/Git/XMCLib/inc\xmc4_scu.h ****   XMC_SCU_HIB_SR0_INPUT_HIB_IO_0 = SCU_HIBERNATE_HDCR_GPI0SEL_Msk, /**< Set HIB_SR0 to HIB_IO_0 dig
 840:C:/Files/Projects/Git/XMCLib/inc\xmc4_scu.h **** #if (defined(DOXYGEN) || (UC_PACKAGE == BGA196) || (UC_PACKAGE == BGA144) || (UC_PACKAGE == LQFP144
 841:C:/Files/Projects/Git/XMCLib/inc\xmc4_scu.h ****   XMC_SCU_HIB_SR0_INPUT_HIB_IO_1 = 0, /**< Set HIB_SR0 to HIB_IO_1 digital input. @note Only availa
 842:C:/Files/Projects/Git/XMCLib/inc\xmc4_scu.h **** #endif  
 843:C:/Files/Projects/Git/XMCLib/inc\xmc4_scu.h **** #if (defined(DOXYGEN) || (UC_SERIES == XMC44) || (UC_SERIES == XMC42) || (UC_SERIES == XMC41))
 844:C:/Files/Projects/Git/XMCLib/inc\xmc4_scu.h ****   XMC_SCU_HIB_SR0_INPUT_ACMP0 = SCU_HIBERNATE_HDCR_ADIG0SEL_Msk,  /**< Set HIB_SR0 to LPAC CMP0. @n
 845:C:/Files/Projects/Git/XMCLib/inc\xmc4_scu.h **** #endif
 846:C:/Files/Projects/Git/XMCLib/inc\xmc4_scu.h **** } XMC_SCU_HIB_SR0_INPUT_t;
 847:C:/Files/Projects/Git/XMCLib/inc\xmc4_scu.h **** 
 848:C:/Files/Projects/Git/XMCLib/inc\xmc4_scu.h **** #if (defined(DOXYGEN) || (UC_SERIES == XMC44) || (UC_SERIES == XMC42) || (UC_SERIES == XMC41))
 849:C:/Files/Projects/Git/XMCLib/inc\xmc4_scu.h **** 
 850:C:/Files/Projects/Git/XMCLib/inc\xmc4_scu.h **** #if ((UC_SERIES == XMC44) && (UC_PACKAGE == LQFP100))
 851:C:/Files/Projects/Git/XMCLib/inc\xmc4_scu.h **** /**
 852:C:/Files/Projects/Git/XMCLib/inc\xmc4_scu.h ****  * Selects input signal HIB_SR1 of ERU0. @note Only available in XMC44 in certain packages.
 853:C:/Files/Projects/Git/XMCLib/inc\xmc4_scu.h ****  */
 854:C:/Files/Projects/Git/XMCLib/inc\xmc4_scu.h **** typedef enum XMC_SCU_HIB_SR1_INPUT
 855:C:/Files/Projects/Git/XMCLib/inc\xmc4_scu.h **** {
 856:C:/Files/Projects/Git/XMCLib/inc\xmc4_scu.h ****   XMC_SCU_HIB_SR1_INPUT_HIB_IO_0 = SCU_HIBERNATE_HDCR_GPI1SEL_Msk, /**< Set HIB_SR1 to HIB_IO_0 dig
 857:C:/Files/Projects/Git/XMCLib/inc\xmc4_scu.h ****   XMC_SCU_HIB_SR1_INPUT_HIB_IO_1 = 0, /**< Set HIB_SR1 to HIB_IO_1 digital input.  */
 858:C:/Files/Projects/Git/XMCLib/inc\xmc4_scu.h ****   XMC_SCU_HIB_SR1_INPUT_ACMP1 = SCU_HIBERNATE_HDCR_ADIG1SEL_Msk,  /**< Set HIB_SR0 to LPAC CMP1. */
 859:C:/Files/Projects/Git/XMCLib/inc\xmc4_scu.h ****   XMC_SCU_HIB_SR1_INPUT_XTAL_GPI = SCU_HIBERNATE_HDCR_XTALGPI1SEL_Msk,  /**< Set HIB_SR0 to RTC_XTA
 860:C:/Files/Projects/Git/XMCLib/inc\xmc4_scu.h **** } XMC_SCU_HIB_SR1_INPUT_t;
 861:C:/Files/Projects/Git/XMCLib/inc\xmc4_scu.h **** #endif
 862:C:/Files/Projects/Git/XMCLib/inc\xmc4_scu.h **** 
 863:C:/Files/Projects/Git/XMCLib/inc\xmc4_scu.h **** /**
 864:C:/Files/Projects/Git/XMCLib/inc\xmc4_scu.h ****  * HIB LPAC input selection
 865:C:/Files/Projects/Git/XMCLib/inc\xmc4_scu.h ****  */
 866:C:/Files/Projects/Git/XMCLib/inc\xmc4_scu.h **** typedef enum XMC_SCU_HIB_LPAC_INPUT
 867:C:/Files/Projects/Git/XMCLib/inc\xmc4_scu.h **** {
 868:C:/Files/Projects/Git/XMCLib/inc\xmc4_scu.h ****   XMC_SCU_HIB_LPAC_INPUT_DISABLED = 0 << SCU_HIBERNATE_LPACCONF_CMPEN_Pos, /**< Comparator permanen
 869:C:/Files/Projects/Git/XMCLib/inc\xmc4_scu.h ****   XMC_SCU_HIB_LPAC_INPUT_VBAT = 0x1 << SCU_HIBERNATE_LPACCONF_CMPEN_Pos, /**< Comparator activated 
 870:C:/Files/Projects/Git/XMCLib/inc\xmc4_scu.h ****   XMC_SCU_HIB_LPAC_INPUT_HIB_IO_0 = 0x2 << SCU_HIBERNATE_LPACCONF_CMPEN_Pos, /**< Comparator activa
 871:C:/Files/Projects/Git/XMCLib/inc\xmc4_scu.h **** #if (defined(DOXYGEN) || ((UC_SERIES == XMC44) && (UC_PACKAGE == LQFP100)))      
 872:C:/Files/Projects/Git/XMCLib/inc\xmc4_scu.h ****   XMC_SCU_HIB_LPAC_INPUT_HIB_IO_1 = 0x4 << SCU_HIBERNATE_LPACCONF_CMPEN_Pos, /**< Comparator activa
 873:C:/Files/Projects/Git/XMCLib/inc\xmc4_scu.h **** #endif  
 874:C:/Files/Projects/Git/XMCLib/inc\xmc4_scu.h **** } XMC_SCU_HIB_LPAC_INPUT_t;
 875:C:/Files/Projects/Git/XMCLib/inc\xmc4_scu.h **** 
 876:C:/Files/Projects/Git/XMCLib/inc\xmc4_scu.h **** /**
 877:C:/Files/Projects/Git/XMCLib/inc\xmc4_scu.h ****  * HIB LPAC start trigger selection for selected inputs
 878:C:/Files/Projects/Git/XMCLib/inc\xmc4_scu.h ****  */
 879:C:/Files/Projects/Git/XMCLib/inc\xmc4_scu.h **** typedef enum XMC_SCU_HIB_LPAC_TRIGGER
 880:C:/Files/Projects/Git/XMCLib/inc\xmc4_scu.h **** {
 881:C:/Files/Projects/Git/XMCLib/inc\xmc4_scu.h ****   XMC_SCU_HIB_LPAC_TRIGGER_SUBSECOND_INTERVAL_COUNTER = 0 << SCU_HIBERNATE_LPACCONF_TRIGSEL_Pos, /*
 882:C:/Files/Projects/Git/XMCLib/inc\xmc4_scu.h ****   XMC_SCU_HIB_LPAC_TRIGGER_RTC_ALARM_EVENT = 0x1 << SCU_HIBERNATE_LPACCONF_TRIGSEL_Pos, /**< RTC al
 883:C:/Files/Projects/Git/XMCLib/inc\xmc4_scu.h ****   XMC_SCU_HIB_LPAC_TRIGGER_RTC_PERIODIC_EVENT = 0x2 << SCU_HIBERNATE_LPACCONF_TRIGSEL_Pos, /**< RTC
 884:C:/Files/Projects/Git/XMCLib/inc\xmc4_scu.h ****   XMC_SCU_HIB_LPAC_TRIGGER_ON_WAKEUP_POSITIVE_EDGE_EVENT = 0x3 << SCU_HIBERNATE_LPACCONF_TRIGSEL_Po
 885:C:/Files/Projects/Git/XMCLib/inc\xmc4_scu.h ****   XMC_SCU_HIB_LPAC_TRIGGER_ON_WAKEUP_NEGATIVE_EDGE_EVENT = 0x5 << SCU_HIBERNATE_LPACCONF_TRIGSEL_Po
 886:C:/Files/Projects/Git/XMCLib/inc\xmc4_scu.h ****   XMC_SCU_HIB_LPAC_TRIGGER_CONTINOUS = 0x6 << SCU_HIBERNATE_LPACCONF_TRIGSEL_Pos, /**< Continuous m
 887:C:/Files/Projects/Git/XMCLib/inc\xmc4_scu.h ****   XMC_SCU_HIB_LPAC_TRIGGER_SINGLE_SHOT = 0x7 << SCU_HIBERNATE_LPACCONF_TRIGSEL_Pos, /**< Single sho
 888:C:/Files/Projects/Git/XMCLib/inc\xmc4_scu.h **** } XMC_SCU_HIB_LPAC_TRIGGER_t;
 889:C:/Files/Projects/Git/XMCLib/inc\xmc4_scu.h **** 
 890:C:/Files/Projects/Git/XMCLib/inc\xmc4_scu.h **** /**
 891:C:/Files/Projects/Git/XMCLib/inc\xmc4_scu.h ****  * HIB LPAC status
 892:C:/Files/Projects/Git/XMCLib/inc\xmc4_scu.h ****  */
 893:C:/Files/Projects/Git/XMCLib/inc\xmc4_scu.h **** typedef enum XMC_SCU_HIB_LPAC_STATUS
 894:C:/Files/Projects/Git/XMCLib/inc\xmc4_scu.h **** {
 895:C:/Files/Projects/Git/XMCLib/inc\xmc4_scu.h ****   XMC_SCU_HIB_LPAC_STATUS_VBAT_COMPARE_DONE = SCU_HIBERNATE_LPACST_VBATSCMP_Msk, /**< VBAT compare 
 896:C:/Files/Projects/Git/XMCLib/inc\xmc4_scu.h ****   XMC_SCU_HIB_LPAC_STATUS_HIB_IO_0_COMPARE_DONE = SCU_HIBERNATE_LPACST_AHIBIO0SCMP_Msk, /**< HBI_IO
 897:C:/Files/Projects/Git/XMCLib/inc\xmc4_scu.h **** #if (defined(DOXYGEN) || ((UC_SERIES == XMC44) && (UC_PACKAGE == LQFP100)))        
 898:C:/Files/Projects/Git/XMCLib/inc\xmc4_scu.h ****   XMC_SCU_HIB_LPAC_STATUS_HIB_IO_1_COMPARE_DONE = SCU_HIBERNATE_LPACST_AHIBIO1SCMP_Msk, /**< HBI_IO
 899:C:/Files/Projects/Git/XMCLib/inc\xmc4_scu.h **** #endif  
 900:C:/Files/Projects/Git/XMCLib/inc\xmc4_scu.h ****   XMC_SCU_HIB_LPAC_STATUS_VBAT_ABOVE_THRESHOLD = SCU_HIBERNATE_LPACST_VBATVAL_Msk, /**< VBAT compar
 901:C:/Files/Projects/Git/XMCLib/inc\xmc4_scu.h ****   XMC_SCU_HIB_LPAC_STATUS_HIB_IO_0_ABOVE_THRESHOLD = SCU_HIBERNATE_LPACST_AHIBIO0VAL_Msk, /**< HBI_
 902:C:/Files/Projects/Git/XMCLib/inc\xmc4_scu.h **** #if (defined(DOXYGEN) || ((UC_SERIES == XMC44) && (UC_PACKAGE == LQFP100)))        
 903:C:/Files/Projects/Git/XMCLib/inc\xmc4_scu.h ****   XMC_SCU_HIB_LPAC_STATUS_HIB_IO_1_ABOVE_THRESHOLD = SCU_HIBERNATE_LPACST_AHIBIO1VAL_Msk, /**< HBI_
 904:C:/Files/Projects/Git/XMCLib/inc\xmc4_scu.h **** #endif  
 905:C:/Files/Projects/Git/XMCLib/inc\xmc4_scu.h **** } XMC_SCU_HIB_LPAC_STATUS_t;
 906:C:/Files/Projects/Git/XMCLib/inc\xmc4_scu.h **** 
 907:C:/Files/Projects/Git/XMCLib/inc\xmc4_scu.h **** #endif /* (defined(DOXYGEN) || (UC_SERIES == XMC44) || (UC_SERIES == XMC42) || (UC_SERIES == XMC41)
 908:C:/Files/Projects/Git/XMCLib/inc\xmc4_scu.h **** 
 909:C:/Files/Projects/Git/XMCLib/inc\xmc4_scu.h **** /**************************************************************************************************
 910:C:/Files/Projects/Git/XMCLib/inc\xmc4_scu.h ****  * DATA STRUCTURES
 911:C:/Files/Projects/Git/XMCLib/inc\xmc4_scu.h ****  **************************************************************************************************
 912:C:/Files/Projects/Git/XMCLib/inc\xmc4_scu.h **** 
 913:C:/Files/Projects/Git/XMCLib/inc\xmc4_scu.h **** /**
 914:C:/Files/Projects/Git/XMCLib/inc\xmc4_scu.h ****  *  Defines a data structure for initializing the PLL functional block.
 915:C:/Files/Projects/Git/XMCLib/inc\xmc4_scu.h ****  *  Structure holds divider values for N-DIV, P-DIV, K1-DIV, K2-DIV in order to generate desired 
 916:C:/Files/Projects/Git/XMCLib/inc\xmc4_scu.h ****  *  frequency using VCO. It holds the PLL mode of operation either normal or prescaler (VCO bypasse
 917:C:/Files/Projects/Git/XMCLib/inc\xmc4_scu.h ****  *  Use type \a XMC_SCU_CLOCK_PLL_CONFIG_t for accessing these structure parameters.
 918:C:/Files/Projects/Git/XMCLib/inc\xmc4_scu.h ****  */
 919:C:/Files/Projects/Git/XMCLib/inc\xmc4_scu.h **** typedef struct XMC_SCU_CLOCK_SYSPLL_CONFIG
 920:C:/Files/Projects/Git/XMCLib/inc\xmc4_scu.h **** {
 921:C:/Files/Projects/Git/XMCLib/inc\xmc4_scu.h ****   uint8_t n_div;                       /**<  PLL N-Divider value. */
 922:C:/Files/Projects/Git/XMCLib/inc\xmc4_scu.h ****   uint8_t p_div;                       /**<  PLL P-Divider value. */
 923:C:/Files/Projects/Git/XMCLib/inc\xmc4_scu.h ****   uint8_t k_div;                       /**<  K1-Divider(Prescalar mode) or K2-Divider (Normal mode)
 924:C:/Files/Projects/Git/XMCLib/inc\xmc4_scu.h ****   XMC_SCU_CLOCK_SYSPLL_MODE_t mode;    /**<  PLL mode of operation. */
 925:C:/Files/Projects/Git/XMCLib/inc\xmc4_scu.h ****   XMC_SCU_CLOCK_SYSPLLCLKSRC_t clksrc; /**<  PLL divider input frequency. */
 926:C:/Files/Projects/Git/XMCLib/inc\xmc4_scu.h **** } XMC_SCU_CLOCK_SYSPLL_CONFIG_t;
 927:C:/Files/Projects/Git/XMCLib/inc\xmc4_scu.h **** 
 928:C:/Files/Projects/Git/XMCLib/inc\xmc4_scu.h **** /**
 929:C:/Files/Projects/Git/XMCLib/inc\xmc4_scu.h ****  *  Defines a data structure used for initializing the clock functional block.
 930:C:/Files/Projects/Git/XMCLib/inc\xmc4_scu.h ****  *  Clock functional block configures clock source needed for various peripheral and its divider va
 931:C:/Files/Projects/Git/XMCLib/inc\xmc4_scu.h ****  *  Use type \a XMC_SCU_CLOCK_CONFIG_t for accessing these structure parameters.
 932:C:/Files/Projects/Git/XMCLib/inc\xmc4_scu.h ****  */
 933:C:/Files/Projects/Git/XMCLib/inc\xmc4_scu.h **** typedef struct XMC_SCU_CLOCK_CONFIG
 934:C:/Files/Projects/Git/XMCLib/inc\xmc4_scu.h **** {
 935:C:/Files/Projects/Git/XMCLib/inc\xmc4_scu.h ****   XMC_SCU_CLOCK_SYSPLL_CONFIG_t         syspll_config;      /**< PLL configuration */
 936:C:/Files/Projects/Git/XMCLib/inc\xmc4_scu.h ****   bool                                  enable_oschp;       /**< Enable external high precision osc
 937:C:/Files/Projects/Git/XMCLib/inc\xmc4_scu.h ****                                                                  Should be enabled when fOHP has to
 938:C:/Files/Projects/Git/XMCLib/inc\xmc4_scu.h ****   bool                                  enable_osculp;      /**< Enable external ultra low power os
 939:C:/Files/Projects/Git/XMCLib/inc\xmc4_scu.h ****                                                                  Should be enabled when fULP has to
 940:C:/Files/Projects/Git/XMCLib/inc\xmc4_scu.h ****   XMC_SCU_CLOCK_FOFI_CALIBRATION_MODE_t calibration_mode;   /**< Backup clock trimming mode. */
 941:C:/Files/Projects/Git/XMCLib/inc\xmc4_scu.h ****   XMC_SCU_HIB_STDBYCLKSRC_t             fstdby_clksrc;      /**< Standby clock source. */
 942:C:/Files/Projects/Git/XMCLib/inc\xmc4_scu.h ****   XMC_SCU_CLOCK_SYSCLKSRC_t             fsys_clksrc;        /**< Choice of system clock. */
 943:C:/Files/Projects/Git/XMCLib/inc\xmc4_scu.h ****   uint8_t                               fsys_clkdiv;        /**< Ratio of fPLL to fSYS. */
 944:C:/Files/Projects/Git/XMCLib/inc\xmc4_scu.h ****   uint8_t                               fcpu_clkdiv;        /**< Ratio of fSys to fCPU. */
 945:C:/Files/Projects/Git/XMCLib/inc\xmc4_scu.h ****   uint8_t                               fccu_clkdiv;        /**< Ratio of fSys to fCCU. */
 946:C:/Files/Projects/Git/XMCLib/inc\xmc4_scu.h ****   uint8_t                               fperipheral_clkdiv; /**< Ratio of fSYS to fPERI. */
 947:C:/Files/Projects/Git/XMCLib/inc\xmc4_scu.h **** } const XMC_SCU_CLOCK_CONFIG_t;
 948:C:/Files/Projects/Git/XMCLib/inc\xmc4_scu.h **** 
 949:C:/Files/Projects/Git/XMCLib/inc\xmc4_scu.h **** /**
 950:C:/Files/Projects/Git/XMCLib/inc\xmc4_scu.h ****  * Low power modes
 951:C:/Files/Projects/Git/XMCLib/inc\xmc4_scu.h ****  */
 952:C:/Files/Projects/Git/XMCLib/inc\xmc4_scu.h **** typedef enum XMC_SCU_POWER_MODE_t
 953:C:/Files/Projects/Git/XMCLib/inc\xmc4_scu.h **** {
 954:C:/Files/Projects/Git/XMCLib/inc\xmc4_scu.h ****   XMC_SCU_POWER_MODE_SLEEP = 0, /**< sleep mode stops the processor clock */
 955:C:/Files/Projects/Git/XMCLib/inc\xmc4_scu.h ****   XMC_SCU_POWER_MODE_DEEPSLEEP = SCB_SCR_SLEEPDEEP_Msk /**< deep sleep mode stops the system clock 
 956:C:/Files/Projects/Git/XMCLib/inc\xmc4_scu.h **** } XMC_SCU_POWER_MODE_t;
 957:C:/Files/Projects/Git/XMCLib/inc\xmc4_scu.h **** 
 958:C:/Files/Projects/Git/XMCLib/inc\xmc4_scu.h **** /**************************************************************************************************
 959:C:/Files/Projects/Git/XMCLib/inc\xmc4_scu.h ****  * API PROTOTYPES
 960:C:/Files/Projects/Git/XMCLib/inc\xmc4_scu.h ****  **************************************************************************************************
 961:C:/Files/Projects/Git/XMCLib/inc\xmc4_scu.h **** 
 962:C:/Files/Projects/Git/XMCLib/inc\xmc4_scu.h **** #ifdef __cplusplus
 963:C:/Files/Projects/Git/XMCLib/inc\xmc4_scu.h **** extern "C" {
 964:C:/Files/Projects/Git/XMCLib/inc\xmc4_scu.h **** #endif
 965:C:/Files/Projects/Git/XMCLib/inc\xmc4_scu.h **** 
 966:C:/Files/Projects/Git/XMCLib/inc\xmc4_scu.h **** /**
 967:C:/Files/Projects/Git/XMCLib/inc\xmc4_scu.h ****  * 
 968:C:/Files/Projects/Git/XMCLib/inc\xmc4_scu.h ****  * @param group   ADC Group to which the channel being monitored belongs to.\n
 969:C:/Files/Projects/Git/XMCLib/inc\xmc4_scu.h ****  *                 \b Range: 0 or 1.
 970:C:/Files/Projects/Git/XMCLib/inc\xmc4_scu.h ****  * @param channel  The channel whose voltage range has to be monitored.\n
 971:C:/Files/Projects/Git/XMCLib/inc\xmc4_scu.h ****  *                 \b Range: 6 or 7. Value identifies the channel in the selected ADC group.
 972:C:/Files/Projects/Git/XMCLib/inc\xmc4_scu.h ****  *
 973:C:/Files/Projects/Git/XMCLib/inc\xmc4_scu.h ****  * @return None
 974:C:/Files/Projects/Git/XMCLib/inc\xmc4_scu.h ****  *
 975:C:/Files/Projects/Git/XMCLib/inc\xmc4_scu.h ****  * \par<b>Description</b><br>
 976:C:/Files/Projects/Git/XMCLib/inc\xmc4_scu.h ****  * Enables out of range comparator for the selected ADC group and channel. \n\n
 977:C:/Files/Projects/Git/XMCLib/inc\xmc4_scu.h ****  * The ADC channel input is compared by Out of Range Comparator (ORC) for overvoltage monitoring
 978:C:/Files/Projects/Git/XMCLib/inc\xmc4_scu.h ****  * or for detection of out of range analog inputs. ORC must be turned on explicitly
 979:C:/Files/Projects/Git/XMCLib/inc\xmc4_scu.h ****  * to leverage the auditing feature. ORC is enabled by setting the enable bit in the GORCEN registe
 980:C:/Files/Projects/Git/XMCLib/inc\xmc4_scu.h ****  * \par<b>Related APIs:</b><BR>
 981:C:/Files/Projects/Git/XMCLib/inc\xmc4_scu.h ****  * XMC_SCU_DisableOutOfRangeComparator()\n\n\n
 982:C:/Files/Projects/Git/XMCLib/inc\xmc4_scu.h ****  */
 983:C:/Files/Projects/Git/XMCLib/inc\xmc4_scu.h **** void XMC_SCU_EnableOutOfRangeComparator(const uint32_t group, const uint32_t channel);
 984:C:/Files/Projects/Git/XMCLib/inc\xmc4_scu.h **** 
 985:C:/Files/Projects/Git/XMCLib/inc\xmc4_scu.h **** /**
 986:C:/Files/Projects/Git/XMCLib/inc\xmc4_scu.h ****  * 
 987:C:/Files/Projects/Git/XMCLib/inc\xmc4_scu.h ****  * @param group   ADC Group to which the channel being monitored belongs to.\n
 988:C:/Files/Projects/Git/XMCLib/inc\xmc4_scu.h ****  *                 \b Range: 0 or 1.
 989:C:/Files/Projects/Git/XMCLib/inc\xmc4_scu.h ****  * @param channel  The channel whose voltage range has to be monitored.\n
 990:C:/Files/Projects/Git/XMCLib/inc\xmc4_scu.h ****  *                 \b Range: 6 or 7. Value identifies the channel in the selected ADC group.
 991:C:/Files/Projects/Git/XMCLib/inc\xmc4_scu.h ****  *
 992:C:/Files/Projects/Git/XMCLib/inc\xmc4_scu.h ****  * @return None
 993:C:/Files/Projects/Git/XMCLib/inc\xmc4_scu.h ****  *
 994:C:/Files/Projects/Git/XMCLib/inc\xmc4_scu.h ****  * \par<b>Description</b><br>
 995:C:/Files/Projects/Git/XMCLib/inc\xmc4_scu.h ****  * Disables the out of range comparator for the selected ADC group and the channel. \n\n
 996:C:/Files/Projects/Git/XMCLib/inc\xmc4_scu.h ****  * Out of range comparator is disabled by clearing the enable bit in the GORCEN register.
 997:C:/Files/Projects/Git/XMCLib/inc\xmc4_scu.h ****  * \par<b>Related APIs:</b><BR>
 998:C:/Files/Projects/Git/XMCLib/inc\xmc4_scu.h ****  * XMC_SCU_EnableOutOfRangeComparator()\n\n\n
 999:C:/Files/Projects/Git/XMCLib/inc\xmc4_scu.h ****  */
1000:C:/Files/Projects/Git/XMCLib/inc\xmc4_scu.h **** void XMC_SCU_DisableOutOfRangeComparator(const uint32_t group, const uint32_t channel);
1001:C:/Files/Projects/Git/XMCLib/inc\xmc4_scu.h **** 
1002:C:/Files/Projects/Git/XMCLib/inc\xmc4_scu.h **** /**
1003:C:/Files/Projects/Git/XMCLib/inc\xmc4_scu.h ****  * @return None
1004:C:/Files/Projects/Git/XMCLib/inc\xmc4_scu.h ****  *
1005:C:/Files/Projects/Git/XMCLib/inc\xmc4_scu.h ****  * \par<b>Description</b><br>
1006:C:/Files/Projects/Git/XMCLib/inc\xmc4_scu.h ****  * Enables die temperature measurement by powering the DTS module.\n\n
1007:C:/Files/Projects/Git/XMCLib/inc\xmc4_scu.h ****  * Die temperature sensor is enabled by setting the PWD bit of DTSCON register.
1008:C:/Files/Projects/Git/XMCLib/inc\xmc4_scu.h ****  * \par<b>Related APIs:</b><BR>
1009:C:/Files/Projects/Git/XMCLib/inc\xmc4_scu.h ****  * XMC_SCU_DisableTemperatureSensor(), XMC_SCU_IsTemperatureSensorEnabled(), XMC_SCU_CalibrateTempe
1010:C:/Files/Projects/Git/XMCLib/inc\xmc4_scu.h ****  * XMC_SCU_StartTemperatureMeasurement(), XMC_SCU_GetTemperatureMeasurement() \n\n\n
1011:C:/Files/Projects/Git/XMCLib/inc\xmc4_scu.h ****  */
1012:C:/Files/Projects/Git/XMCLib/inc\xmc4_scu.h **** void XMC_SCU_EnableTemperatureSensor(void);
1013:C:/Files/Projects/Git/XMCLib/inc\xmc4_scu.h **** 
1014:C:/Files/Projects/Git/XMCLib/inc\xmc4_scu.h **** /**
1015:C:/Files/Projects/Git/XMCLib/inc\xmc4_scu.h ****  * @return None
1016:C:/Files/Projects/Git/XMCLib/inc\xmc4_scu.h ****  *
1017:C:/Files/Projects/Git/XMCLib/inc\xmc4_scu.h ****  * \par<b>Description</b><br>
1018:C:/Files/Projects/Git/XMCLib/inc\xmc4_scu.h ****  * Disables die temperature measurement by powering the DTS module off.\n\n
1019:C:/Files/Projects/Git/XMCLib/inc\xmc4_scu.h ****  * Die temperature sensor is disabled by clearing the PWD bit of DTSCON register.
1020:C:/Files/Projects/Git/XMCLib/inc\xmc4_scu.h ****  * \par<b>Related APIs:</b><BR>
1021:C:/Files/Projects/Git/XMCLib/inc\xmc4_scu.h ****  * XMC_SCU_EnableTemperatureSensor(), XMC_SCU_IsTemperatureSensorEnabled(), XMC_SCU_CalibrateTemper
1022:C:/Files/Projects/Git/XMCLib/inc\xmc4_scu.h ****  * XMC_SCU_StartTemperatureMeasurement(), XMC_SCU_GetTemperatureMeasurement() \n\n\n
1023:C:/Files/Projects/Git/XMCLib/inc\xmc4_scu.h ****  */
1024:C:/Files/Projects/Git/XMCLib/inc\xmc4_scu.h **** void XMC_SCU_DisableTemperatureSensor(void);
1025:C:/Files/Projects/Git/XMCLib/inc\xmc4_scu.h **** 
1026:C:/Files/Projects/Git/XMCLib/inc\xmc4_scu.h **** /**
1027:C:/Files/Projects/Git/XMCLib/inc\xmc4_scu.h ****  * @return Status of die temperature sensor. \n
1028:C:/Files/Projects/Git/XMCLib/inc\xmc4_scu.h ****  *          \b Range: true - if temperature sensor is enabled.\n
1029:C:/Files/Projects/Git/XMCLib/inc\xmc4_scu.h ****  *                    false - if temperature sensor is disabled.
1030:C:/Files/Projects/Git/XMCLib/inc\xmc4_scu.h ****  *
1031:C:/Files/Projects/Git/XMCLib/inc\xmc4_scu.h ****  * \par<b>Description</b><br>
1032:C:/Files/Projects/Git/XMCLib/inc\xmc4_scu.h ****  * Provides the die temperature sensor power status.\n\n
1033:C:/Files/Projects/Git/XMCLib/inc\xmc4_scu.h ****  * The status is obtained by reading the PWD bit of DTSCON register.
1034:C:/Files/Projects/Git/XMCLib/inc\xmc4_scu.h ****  * \par<b>Related APIs:</b><BR>
1035:C:/Files/Projects/Git/XMCLib/inc\xmc4_scu.h ****  * XMC_SCU_EnableTemperatureSensor(), XMC_SCU_CalibrateTemperatureSensor(),
1036:C:/Files/Projects/Git/XMCLib/inc\xmc4_scu.h ****  * XMC_SCU_StartTemperatureMeasurement(), XMC_SCU_GetTemperatureMeasurement() \n\n\n
1037:C:/Files/Projects/Git/XMCLib/inc\xmc4_scu.h ****  */
1038:C:/Files/Projects/Git/XMCLib/inc\xmc4_scu.h **** bool XMC_SCU_IsTemperatureSensorEnabled(void);
1039:C:/Files/Projects/Git/XMCLib/inc\xmc4_scu.h **** 
1040:C:/Files/Projects/Git/XMCLib/inc\xmc4_scu.h **** /**
1041:C:/Files/Projects/Git/XMCLib/inc\xmc4_scu.h ****  *
1042:C:/Files/Projects/Git/XMCLib/inc\xmc4_scu.h ****  * @param offset  Offset value for calibrating the DTS result.\n
1043:C:/Files/Projects/Git/XMCLib/inc\xmc4_scu.h ****  *                \b Range: 0 to 127.
1044:C:/Files/Projects/Git/XMCLib/inc\xmc4_scu.h ****  * @param gain    Gain value for calibrating the DTS conversion result.\n
1045:C:/Files/Projects/Git/XMCLib/inc\xmc4_scu.h ****  *                \b Range: 0 to 63.
1046:C:/Files/Projects/Git/XMCLib/inc\xmc4_scu.h ****  *
1047:C:/Files/Projects/Git/XMCLib/inc\xmc4_scu.h ****  * @return None
1048:C:/Files/Projects/Git/XMCLib/inc\xmc4_scu.h ****  *
1049:C:/Files/Projects/Git/XMCLib/inc\xmc4_scu.h ****  * \par<b>Description</b><br>
1050:C:/Files/Projects/Git/XMCLib/inc\xmc4_scu.h ****  * Calibrates the measurement of temperature by configuring the values of offset and gain of \a DTS
1051:C:/Files/Projects/Git/XMCLib/inc\xmc4_scu.h ****  * Allows to improve the accuracy of the temperature measurement with the adjustment of \a OFFSET a
1052:C:/Files/Projects/Git/XMCLib/inc\xmc4_scu.h ****  * in the \a DTSCON register.
1053:C:/Files/Projects/Git/XMCLib/inc\xmc4_scu.h ****  * Offset adjustment is defined as a shift of the conversion result. The range of the offset adjust
1054:C:/Files/Projects/Git/XMCLib/inc\xmc4_scu.h ****  * resolution that corresponds to +/- 12.5C. The offset value gets added to the measure result. 
1055:C:/Files/Projects/Git/XMCLib/inc\xmc4_scu.h ****  * Offset is considered as a signed value.
1056:C:/Files/Projects/Git/XMCLib/inc\xmc4_scu.h ****  * Gain adjustment helps in minimizing gain error. When the \a gain value is 0, result is generated
1057:C:/Files/Projects/Git/XMCLib/inc\xmc4_scu.h ****  * When the \a gain value is 63, result is generated with least gain, i.e, \a RESULT - 63 at the hi
1058:C:/Files/Projects/Git/XMCLib/inc\xmc4_scu.h ****  * It is recommended to use following steps:\n
1059:C:/Files/Projects/Git/XMCLib/inc\xmc4_scu.h ****  * - Call \a XMC_SCU_StopTempMeasurement to stop temperature measurement if it was started previous
1060:C:/Files/Projects/Git/XMCLib/inc\xmc4_scu.h ****  * - Call \a XMC_SCU_CalibrateTempMonitor with desired offset and gain calibration values to the DT
1061:C:/Files/Projects/Git/XMCLib/inc\xmc4_scu.h ****  * - Call \a XMC_SCU_SetRawTempLimits with desired lower and upper temperature threshold limit valu
1062:C:/Files/Projects/Git/XMCLib/inc\xmc4_scu.h ****  * - Call \a XMC_SCU_StartTempMeasurement to start temperature measurement.\n
1063:C:/Files/Projects/Git/XMCLib/inc\xmc4_scu.h ****  * - Check whether Die Temperature Sensor (DTS) is busy in conversion by calling \a XMC_SCU_IsTempe
1064:C:/Files/Projects/Git/XMCLib/inc\xmc4_scu.h ****  * conversion complete.\n
1065:C:/Files/Projects/Git/XMCLib/inc\xmc4_scu.h ****  * - Read the die temperature value using \a XMC_SCU_GetTemperatureMeasurement API.
1066:C:/Files/Projects/Git/XMCLib/inc\xmc4_scu.h ****  * \par<b>Related APIs:</b><BR>
1067:C:/Files/Projects/Git/XMCLib/inc\xmc4_scu.h ****  * XMC_SCU_EnableTemperatureSensor(),
1068:C:/Files/Projects/Git/XMCLib/inc\xmc4_scu.h ****  * XMC_SCU_StartTemperatureMeasurement(), XMC_SCU_GetTemperatureMeasurement() \n\n\n
1069:C:/Files/Projects/Git/XMCLib/inc\xmc4_scu.h ****  */
1070:C:/Files/Projects/Git/XMCLib/inc\xmc4_scu.h **** void XMC_SCU_CalibrateTemperatureSensor(uint32_t offset, uint32_t gain);
1071:C:/Files/Projects/Git/XMCLib/inc\xmc4_scu.h **** 
1072:C:/Files/Projects/Git/XMCLib/inc\xmc4_scu.h **** /**
1073:C:/Files/Projects/Git/XMCLib/inc\xmc4_scu.h ****  * @return XMC_SCU_STATUS_t  Result of starting the temperature measurement.\n
1074:C:/Files/Projects/Git/XMCLib/inc\xmc4_scu.h ****  *                           \b Range: \n 
1075:C:/Files/Projects/Git/XMCLib/inc\xmc4_scu.h ****  *                              XMC_SCU_STATUS_OK if the measurement is started successfully.\n
1076:C:/Files/Projects/Git/XMCLib/inc\xmc4_scu.h ****  *                              XMC_SCU_STATUS_ERROR if temperature sensor is not enabled.\n
1077:C:/Files/Projects/Git/XMCLib/inc\xmc4_scu.h ****  *                              XMC_SCU_STATUS_BUSY if temperature sensor is busy measuring the tem
1078:C:/Files/Projects/Git/XMCLib/inc\xmc4_scu.h ****  *
1079:C:/Files/Projects/Git/XMCLib/inc\xmc4_scu.h ****  *
1080:C:/Files/Projects/Git/XMCLib/inc\xmc4_scu.h ****  * \par<b>Description</b><br>
1081:C:/Files/Projects/Git/XMCLib/inc\xmc4_scu.h ****  * Starts die temperature measurement using internal temperature sensor.\n\n
1082:C:/Files/Projects/Git/XMCLib/inc\xmc4_scu.h ****  * The API checks if the temperature sensor is enabled and is not busy in measurement.\n
1083:C:/Files/Projects/Git/XMCLib/inc\xmc4_scu.h ****  * It is recommended to use following steps:\n
1084:C:/Files/Projects/Git/XMCLib/inc\xmc4_scu.h ****  * - Call \a XMC_SCU_StopTempMeasurement to stop temperature measurement if it was started previous
1085:C:/Files/Projects/Git/XMCLib/inc\xmc4_scu.h ****  * - Call \a XMC_SCU_SetRawTempLimits with desired lower and upper temperature threshold limit valu
1086:C:/Files/Projects/Git/XMCLib/inc\xmc4_scu.h ****  * - Call \a XMC_SCU_StartTempMeasurement to start temperature measurement.\n
1087:C:/Files/Projects/Git/XMCLib/inc\xmc4_scu.h ****  * - Check whether Die Temperature Sensor (DTS) is busy in conversion by calling \a XMC_SCU_IsTempe
1088:C:/Files/Projects/Git/XMCLib/inc\xmc4_scu.h ****  * conversion complete.\n
1089:C:/Files/Projects/Git/XMCLib/inc\xmc4_scu.h ****  * - Read the die temperature value using \a XMC_SCU_GetTemperatureMeasurement API.
1090:C:/Files/Projects/Git/XMCLib/inc\xmc4_scu.h ****  * \par<b>Related APIs:</b><BR>
1091:C:/Files/Projects/Git/XMCLib/inc\xmc4_scu.h ****  * XMC_SCU_EnableTemperatureSensor(), XMC_SCU_CalibrateTemperatureSensor(),
1092:C:/Files/Projects/Git/XMCLib/inc\xmc4_scu.h ****  * XMC_SCU_GetTemperatureMeasurement() \n\n\n
1093:C:/Files/Projects/Git/XMCLib/inc\xmc4_scu.h ****  */
1094:C:/Files/Projects/Git/XMCLib/inc\xmc4_scu.h **** XMC_SCU_STATUS_t XMC_SCU_StartTemperatureMeasurement(void);
1095:C:/Files/Projects/Git/XMCLib/inc\xmc4_scu.h **** 
1096:C:/Files/Projects/Git/XMCLib/inc\xmc4_scu.h **** 
1097:C:/Files/Projects/Git/XMCLib/inc\xmc4_scu.h **** /**
1098:C:/Files/Projects/Git/XMCLib/inc\xmc4_scu.h ****  *
1099:C:/Files/Projects/Git/XMCLib/inc\xmc4_scu.h ****  * @return uint32_t  Measured temperature value.\n
1100:C:/Files/Projects/Git/XMCLib/inc\xmc4_scu.h ****  *              \b Range: Valid temperature range is 0 to 1023. \n
1101:C:/Files/Projects/Git/XMCLib/inc\xmc4_scu.h ****  *              If sensor is not enabled, 0x7FFFFFFFH is returned.
1102:C:/Files/Projects/Git/XMCLib/inc\xmc4_scu.h ****  *
1103:C:/Files/Projects/Git/XMCLib/inc\xmc4_scu.h ****  * \par<b>Description</b><br>
1104:C:/Files/Projects/Git/XMCLib/inc\xmc4_scu.h ****  * Reads the measured value of die temperature.\n\n
1105:C:/Files/Projects/Git/XMCLib/inc\xmc4_scu.h ****  * Temperature measurement result is read from \a RESULT bit field of \a DTSSTAT register.
1106:C:/Files/Projects/Git/XMCLib/inc\xmc4_scu.h ****  * The temperature measured in C is given by (RESULT - 605) / 2.05 [C]
1107:C:/Files/Projects/Git/XMCLib/inc\xmc4_scu.h ****  * \par<b>Related APIs:</b><BR>
1108:C:/Files/Projects/Git/XMCLib/inc\xmc4_scu.h ****  * XMC_SCU_IsTemperatureSensorBusy() \n\n\n
1109:C:/Files/Projects/Git/XMCLib/inc\xmc4_scu.h ****  */
1110:C:/Files/Projects/Git/XMCLib/inc\xmc4_scu.h **** uint32_t XMC_SCU_GetTemperatureMeasurement(void);
1111:C:/Files/Projects/Git/XMCLib/inc\xmc4_scu.h **** 
1112:C:/Files/Projects/Git/XMCLib/inc\xmc4_scu.h **** /**
1113:C:/Files/Projects/Git/XMCLib/inc\xmc4_scu.h ****  * @return bool  Indicates if the die temperature sensor is busy.\n
1114:C:/Files/Projects/Git/XMCLib/inc\xmc4_scu.h ****  *                    \b Range: \a true if sensor is busy in temperature measurement.
1115:C:/Files/Projects/Git/XMCLib/inc\xmc4_scu.h ****  *                    \a false if sensor is free and can accept a new request for measurement.
1116:C:/Files/Projects/Git/XMCLib/inc\xmc4_scu.h ****  *
1117:C:/Files/Projects/Git/XMCLib/inc\xmc4_scu.h ****  * \par<b>Description</b><br>
1118:C:/Files/Projects/Git/XMCLib/inc\xmc4_scu.h ****  * Checks whether Die Temperature Sensor (DTS) is busy in temperature measurement.\n\n
1119:C:/Files/Projects/Git/XMCLib/inc\xmc4_scu.h ****  * The status is read from the \a BUSY bit field of the \a DTSSTAT register.
1120:C:/Files/Projects/Git/XMCLib/inc\xmc4_scu.h ****  * \par<b>Related APIs:</b><BR>
1121:C:/Files/Projects/Git/XMCLib/inc\xmc4_scu.h ****  * XMC_SCU_GetTemperatureMeasurement() \n\n\n
1122:C:/Files/Projects/Git/XMCLib/inc\xmc4_scu.h ****  */
1123:C:/Files/Projects/Git/XMCLib/inc\xmc4_scu.h **** bool XMC_SCU_IsTemperatureSensorBusy(void);
1124:C:/Files/Projects/Git/XMCLib/inc\xmc4_scu.h **** 
1125:C:/Files/Projects/Git/XMCLib/inc\xmc4_scu.h **** /**
1126:C:/Files/Projects/Git/XMCLib/inc\xmc4_scu.h ****  * @return bool Status of die temperature sensor whether it is ready to start measurement. \n
1127:C:/Files/Projects/Git/XMCLib/inc\xmc4_scu.h ****  *          \b Range: \n \a true if temperature sensor is ready to start measurement. \n
1128:C:/Files/Projects/Git/XMCLib/inc\xmc4_scu.h ****  *          \a false if temperature sensor is not ready to start measurement.
1129:C:/Files/Projects/Git/XMCLib/inc\xmc4_scu.h ****  *
1130:C:/Files/Projects/Git/XMCLib/inc\xmc4_scu.h ****  * \par<b>Description</b><br>
1131:C:/Files/Projects/Git/XMCLib/inc\xmc4_scu.h ****  * Checks if the die temperature sensor is ready to start a measurement\n\n
1132:C:/Files/Projects/Git/XMCLib/inc\xmc4_scu.h ****  * The status is obtained by reading \a RDY bit of \a DTSSTAT register. It is recommended
1133:C:/Files/Projects/Git/XMCLib/inc\xmc4_scu.h ****  * to check the ready status of die temperature sensor before starting it.
1134:C:/Files/Projects/Git/XMCLib/inc\xmc4_scu.h ****  * \par<b>Related APIs:</b><BR>
1135:C:/Files/Projects/Git/XMCLib/inc\xmc4_scu.h ****  * XMC_SCU_StartTemperatureMeasurement(), XMC_SCU_IsTemperatureSensorBusy() \n\n\n
1136:C:/Files/Projects/Git/XMCLib/inc\xmc4_scu.h ****  */
1137:C:/Files/Projects/Git/XMCLib/inc\xmc4_scu.h **** bool XMC_SCU_IsTemperatureSensorReady(void);
1138:C:/Files/Projects/Git/XMCLib/inc\xmc4_scu.h **** 
1139:C:/Files/Projects/Git/XMCLib/inc\xmc4_scu.h **** #if (UC_SERIES != XMC45)
1140:C:/Files/Projects/Git/XMCLib/inc\xmc4_scu.h **** /**
1141:C:/Files/Projects/Git/XMCLib/inc\xmc4_scu.h ****  * @return bool  Indicates if the measured die temperature value has exceeded the configured upper 
1142:C:/Files/Projects/Git/XMCLib/inc\xmc4_scu.h ****  *              \b Range: \a true if the temperature value has exceeded the configured upper limit.
1143:C:/Files/Projects/Git/XMCLib/inc\xmc4_scu.h ****  *              if the temperature value is less than the configured upper limit.
1144:C:/Files/Projects/Git/XMCLib/inc\xmc4_scu.h ****  *
1145:C:/Files/Projects/Git/XMCLib/inc\xmc4_scu.h ****  * \par<b>Description</b><br>
1146:C:/Files/Projects/Git/XMCLib/inc\xmc4_scu.h ****  * Checks if the measured temperature has exceeded the configured upper limit of temperature.\n\n
1147:C:/Files/Projects/Git/XMCLib/inc\xmc4_scu.h ****  * The API checks \a OVERFL bit (Upper Limit Overflow Status bit) of \a DTEMPALARM register.
1148:C:/Files/Projects/Git/XMCLib/inc\xmc4_scu.h ****  * The \a OVERFL bit will be set if the measured temperature has exceeded the limit configured in 
1149:C:/Files/Projects/Git/XMCLib/inc\xmc4_scu.h ****  * the bitfield \a UPPER in the \a DTEMPLIM register.
1150:C:/Files/Projects/Git/XMCLib/inc\xmc4_scu.h ****  * \par<b>Related APIs:</b><BR>
1151:C:/Files/Projects/Git/XMCLib/inc\xmc4_scu.h ****  * XMC_SCU_SetRawTempLimits(),XMC_SCU_LowTemperature() \n\n\n
1152:C:/Files/Projects/Git/XMCLib/inc\xmc4_scu.h ****  */
1153:C:/Files/Projects/Git/XMCLib/inc\xmc4_scu.h **** bool XMC_SCU_HighTemperature(void);
1154:C:/Files/Projects/Git/XMCLib/inc\xmc4_scu.h **** 
1155:C:/Files/Projects/Git/XMCLib/inc\xmc4_scu.h **** /**
1156:C:/Files/Projects/Git/XMCLib/inc\xmc4_scu.h ****  *
1157:C:/Files/Projects/Git/XMCLib/inc\xmc4_scu.h ****  * @param lower_temp  Lower threshold of die temperature. If measured temperature falls below this 
1158:C:/Files/Projects/Git/XMCLib/inc\xmc4_scu.h ****  *                    alarm bit will be set in \a UNDERFL bit field of \a DTEMPALARM register.
1159:C:/Files/Projects/Git/XMCLib/inc\xmc4_scu.h ****  * @param upper_temp  Upper threshold of die temperature. If measured temperature exceeds this valu
1160:C:/Files/Projects/Git/XMCLib/inc\xmc4_scu.h ****  *                    alarm bit will be set in \a OVERFL bit field of \a DTEMPALARM register.
1161:C:/Files/Projects/Git/XMCLib/inc\xmc4_scu.h ****  *
1162:C:/Files/Projects/Git/XMCLib/inc\xmc4_scu.h ****  * @return None
1163:C:/Files/Projects/Git/XMCLib/inc\xmc4_scu.h ****  *
1164:C:/Files/Projects/Git/XMCLib/inc\xmc4_scu.h ****  * \par<b>Description</b><br>
1165:C:/Files/Projects/Git/XMCLib/inc\xmc4_scu.h ****  * Configures the lower and upper threshold of die temperature.\n\n
1166:C:/Files/Projects/Git/XMCLib/inc\xmc4_scu.h ****  * API configures \a DTEMPLIM register for upper and lower die temperature threshold limits.
1167:C:/Files/Projects/Git/XMCLib/inc\xmc4_scu.h ****  * When the measured temperature is outside the range defined by the limits, alarm bits \a UNDERFL 
1168:C:/Files/Projects/Git/XMCLib/inc\xmc4_scu.h ****  * will be set in the register \a DTEMPALARM.\n
1169:C:/Files/Projects/Git/XMCLib/inc\xmc4_scu.h ****  * It is recommended to use following steps:\n
1170:C:/Files/Projects/Git/XMCLib/inc\xmc4_scu.h ****  * - Call \a XMC_SCU_StopTempMeasurement to stop temperature measurement if it was started previous
1171:C:/Files/Projects/Git/XMCLib/inc\xmc4_scu.h ****  * - Call \a XMC_SCU_SetRawTempLimits with desired lower and upper temperature threshold limit valu
1172:C:/Files/Projects/Git/XMCLib/inc\xmc4_scu.h ****  * - Call \a XMC_SCU_StartTempMeasurement to start temperature measurement.\n
1173:C:/Files/Projects/Git/XMCLib/inc\xmc4_scu.h ****  * - Use \a XMC_SCU_HighTemperature() and XMC_SCU_LowTemperature() to monitor the temperature.\n
1174:C:/Files/Projects/Git/XMCLib/inc\xmc4_scu.h ****  * \par<b>Related APIs:</b><BR>
1175:C:/Files/Projects/Git/XMCLib/inc\xmc4_scu.h ****  * XMC_SCU_HighTemperature(), XMC_SCU_LowTemperature() \n\n\n
1176:C:/Files/Projects/Git/XMCLib/inc\xmc4_scu.h ****  */
1177:C:/Files/Projects/Git/XMCLib/inc\xmc4_scu.h **** void XMC_SCU_SetRawTempLimits(const uint32_t lower_temp, const uint32_t upper_temp);
1178:C:/Files/Projects/Git/XMCLib/inc\xmc4_scu.h **** 
1179:C:/Files/Projects/Git/XMCLib/inc\xmc4_scu.h **** /**
1180:C:/Files/Projects/Git/XMCLib/inc\xmc4_scu.h ****  * @return bool  Indicates if the measured die temperature value has dropped below the configured l
1181:C:/Files/Projects/Git/XMCLib/inc\xmc4_scu.h ****  *              \b Range: \a true if the temperature value has dropped below the configured lower l
1182:C:/Files/Projects/Git/XMCLib/inc\xmc4_scu.h ****  *              if the temperature value is higher than the configured lower limit.
1183:C:/Files/Projects/Git/XMCLib/inc\xmc4_scu.h ****  *
1184:C:/Files/Projects/Git/XMCLib/inc\xmc4_scu.h ****  * \par<b>Description</b><br>
1185:C:/Files/Projects/Git/XMCLib/inc\xmc4_scu.h ****  * Checks if the measured temperature has dropped below the configured lower limit of temperature.\
1186:C:/Files/Projects/Git/XMCLib/inc\xmc4_scu.h ****  * The API checks \a UNDERFL bit (Lower LimitUnderflow Status bit) of \a DTEMPALARM register.
1187:C:/Files/Projects/Git/XMCLib/inc\xmc4_scu.h ****  * The \a UNDERFL bit will be set if the measured temperature has dropped below the limit configure
1188:C:/Files/Projects/Git/XMCLib/inc\xmc4_scu.h ****  * the bitfield \a LOWER in the \a DTEMPLIM register.
1189:C:/Files/Projects/Git/XMCLib/inc\xmc4_scu.h ****  * \par<b>Related APIs:</b><BR>
1190:C:/Files/Projects/Git/XMCLib/inc\xmc4_scu.h ****  * XMC_SCU_SetRawTempLimits(),XMC_SCU_HighTemperature() \n\n\n
1191:C:/Files/Projects/Git/XMCLib/inc\xmc4_scu.h ****  */
1192:C:/Files/Projects/Git/XMCLib/inc\xmc4_scu.h **** bool XMC_SCU_LowTemperature(void);
1193:C:/Files/Projects/Git/XMCLib/inc\xmc4_scu.h **** #endif
1194:C:/Files/Projects/Git/XMCLib/inc\xmc4_scu.h **** 
1195:C:/Files/Projects/Git/XMCLib/inc\xmc4_scu.h **** /**
1196:C:/Files/Projects/Git/XMCLib/inc\xmc4_scu.h ****  * @return uint32_t Configured boot mode for the device.\n
1197:C:/Files/Projects/Git/XMCLib/inc\xmc4_scu.h ****  *        \b Range: Use type @ref XMC_SCU_BOOTMODE_t for enumeration of different boot modes.
1198:C:/Files/Projects/Git/XMCLib/inc\xmc4_scu.h ****  *
1199:C:/Files/Projects/Git/XMCLib/inc\xmc4_scu.h ****  * \par<b>Description</b><br>
1200:C:/Files/Projects/Git/XMCLib/inc\xmc4_scu.h ****  * Provides the boot mode configured for the device.\n\n
1201:C:/Files/Projects/Git/XMCLib/inc\xmc4_scu.h ****  * The boot mode is read from the \a STCON register bit field \a SWCON.
1202:C:/Files/Projects/Git/XMCLib/inc\xmc4_scu.h ****  *
1203:C:/Files/Projects/Git/XMCLib/inc\xmc4_scu.h ****  * \par<b>Related APIs:</b><BR>
1204:C:/Files/Projects/Git/XMCLib/inc\xmc4_scu.h ****  * XMC_SCU_SetBootMode() \n\n\n
1205:C:/Files/Projects/Git/XMCLib/inc\xmc4_scu.h ****  */
1206:C:/Files/Projects/Git/XMCLib/inc\xmc4_scu.h **** uint32_t XMC_SCU_GetBootMode(void);
1207:C:/Files/Projects/Git/XMCLib/inc\xmc4_scu.h **** 
1208:C:/Files/Projects/Git/XMCLib/inc\xmc4_scu.h **** /**
1209:C:/Files/Projects/Git/XMCLib/inc\xmc4_scu.h ****  *
1210:C:/Files/Projects/Git/XMCLib/inc\xmc4_scu.h ****  * @param mode Boot mode to be configured for the device.\n
1211:C:/Files/Projects/Git/XMCLib/inc\xmc4_scu.h ****  *        \b Range: Use type @ref XMC_SCU_BOOTMODE_t for selecting the boot mode.
1212:C:/Files/Projects/Git/XMCLib/inc\xmc4_scu.h ****  *
1213:C:/Files/Projects/Git/XMCLib/inc\xmc4_scu.h ****  * @return None
1214:C:/Files/Projects/Git/XMCLib/inc\xmc4_scu.h ****  *
1215:C:/Files/Projects/Git/XMCLib/inc\xmc4_scu.h ****  * \par<b>Description</b><br>
1216:C:/Files/Projects/Git/XMCLib/inc\xmc4_scu.h ****  * Configures the desired boot mode for the device.\n\n
1217:C:/Files/Projects/Git/XMCLib/inc\xmc4_scu.h ****  * The XMC4 series devices support multiple boot modes. A running application can set a desired boo
1218:C:/Files/Projects/Git/XMCLib/inc\xmc4_scu.h ****  * launch it by means of software reset. Switching of boot modes should be handled carefully. User 
1219:C:/Files/Projects/Git/XMCLib/inc\xmc4_scu.h ****  * the initial boot sequence is executed. A stable execution environment should be maintained when 
1220:C:/Files/Projects/Git/XMCLib/inc\xmc4_scu.h ****  * eventually handed over to the application program.\n
1221:C:/Files/Projects/Git/XMCLib/inc\xmc4_scu.h ****  * It is recommended to use following steps to launch requested bootmode:\n
1222:C:/Files/Projects/Git/XMCLib/inc\xmc4_scu.h ****  * - Call \a XMC_SCU_SetBootMode() with desired boot mode value.\n
1223:C:/Files/Projects/Git/XMCLib/inc\xmc4_scu.h ****  * - Trigger a software reset using system reset request by enabling a bit \a SYSRESETREQ of AIRCR 
1224:C:/Files/Projects/Git/XMCLib/inc\xmc4_scu.h ****  *   (PPB->AIRCR |= PPB_AIRCR_SYSRESETREQ_Msk).\n
1225:C:/Files/Projects/Git/XMCLib/inc\xmc4_scu.h ****  * \par<b>Related APIs:</b><BR>
1226:C:/Files/Projects/Git/XMCLib/inc\xmc4_scu.h ****  * XMC_SCU_GetBootMode() \n\n\n
1227:C:/Files/Projects/Git/XMCLib/inc\xmc4_scu.h ****  */
1228:C:/Files/Projects/Git/XMCLib/inc\xmc4_scu.h **** void XMC_SCU_SetBootMode(const XMC_SCU_BOOTMODE_t mode);
1229:C:/Files/Projects/Git/XMCLib/inc\xmc4_scu.h **** 
1230:C:/Files/Projects/Git/XMCLib/inc\xmc4_scu.h **** /**
1231:C:/Files/Projects/Git/XMCLib/inc\xmc4_scu.h ****  *
1232:C:/Files/Projects/Git/XMCLib/inc\xmc4_scu.h ****  * @param index  The SCU general purpose register to be read.\n
1233:C:/Files/Projects/Git/XMCLib/inc\xmc4_scu.h ****  *        \b Range: 0 and 1 corresponding to GPR0 and GPR1.
1234:C:/Files/Projects/Git/XMCLib/inc\xmc4_scu.h ****  *
1235:C:/Files/Projects/Git/XMCLib/inc\xmc4_scu.h ****  * @return uint32_t  Data read from the selected general purpose register.
1236:C:/Files/Projects/Git/XMCLib/inc\xmc4_scu.h ****  *
1237:C:/Files/Projects/Git/XMCLib/inc\xmc4_scu.h ****  * \par<b>Description</b><br>
1238:C:/Files/Projects/Git/XMCLib/inc\xmc4_scu.h ****  * Provides stored data from general purpose SCU register.\n\n
1239:C:/Files/Projects/Git/XMCLib/inc\xmc4_scu.h ****  * SCU consists of 2 general purpose registers. These registers can be used for storing
1240:C:/Files/Projects/Git/XMCLib/inc\xmc4_scu.h ****  * data. The API reads from either GPR0 or GPR1 based on the \a index value.
1241:C:/Files/Projects/Git/XMCLib/inc\xmc4_scu.h ****  * \par<b>Related APIs:</b><BR>
1242:C:/Files/Projects/Git/XMCLib/inc\xmc4_scu.h ****  * XMC_SCU_WriteGPR()\n\n\n
1243:C:/Files/Projects/Git/XMCLib/inc\xmc4_scu.h ****  */
1244:C:/Files/Projects/Git/XMCLib/inc\xmc4_scu.h **** uint32_t XMC_SCU_ReadGPR(const uint32_t index);
1245:C:/Files/Projects/Git/XMCLib/inc\xmc4_scu.h ****  
1246:C:/Files/Projects/Git/XMCLib/inc\xmc4_scu.h **** /**
