   1              	 .syntax unified
   2              	 .cpu cortex-m4
   3              	 .eabi_attribute 27,3
   4              	 .fpu fpv4-sp-d16
   5              	 .eabi_attribute 20,1
   6              	 .eabi_attribute 21,1
   7              	 .eabi_attribute 23,3
   8              	 .eabi_attribute 24,1
   9              	 .eabi_attribute 25,1
  10              	 .eabi_attribute 26,1
  11              	 .eabi_attribute 30,1
  12              	 .eabi_attribute 34,1
  13              	 .eabi_attribute 18,4
  14              	 .thumb
  15              	 .file "xmc_wdt.c"
  16              	 .text
  17              	.Ltext0:
  18              	 .cfi_sections .debug_frame
  19              	 .section .text.XMC_WDT_Enable,"ax",%progbits
  20              	 .align 2
  21              	 .global XMC_WDT_Enable
  22              	 .thumb
  23              	 .thumb_func
  25              	XMC_WDT_Enable:
  26              	.LFB184:
  27              	 .file 1 "C:/Files/Projects/Git/XMCLib/src/xmc_wdt.c"
   1:C:/Files/Projects/Git/XMCLib/src\xmc_wdt.c **** /**
   2:C:/Files/Projects/Git/XMCLib/src\xmc_wdt.c ****  * @file xmc_wdt.c
   3:C:/Files/Projects/Git/XMCLib/src\xmc_wdt.c ****  * @date 2015-06-20
   4:C:/Files/Projects/Git/XMCLib/src\xmc_wdt.c ****  *
   5:C:/Files/Projects/Git/XMCLib/src\xmc_wdt.c ****  * @cond
   6:C:/Files/Projects/Git/XMCLib/src\xmc_wdt.c ****  **************************************************************************************************
   7:C:/Files/Projects/Git/XMCLib/src\xmc_wdt.c ****  * XMClib v2.1.24 - XMC Peripheral Driver Library
   8:C:/Files/Projects/Git/XMCLib/src\xmc_wdt.c ****  *
   9:C:/Files/Projects/Git/XMCLib/src\xmc_wdt.c ****  * Copyright (c) 2015-2019, Infineon Technologies AG
  10:C:/Files/Projects/Git/XMCLib/src\xmc_wdt.c ****  * All rights reserved.                        
  11:C:/Files/Projects/Git/XMCLib/src\xmc_wdt.c ****  *                                             
  12:C:/Files/Projects/Git/XMCLib/src\xmc_wdt.c ****  * Redistribution and use in source and binary forms, with or without modification,are permitted pr
  13:C:/Files/Projects/Git/XMCLib/src\xmc_wdt.c ****  * following conditions are met:   
  14:C:/Files/Projects/Git/XMCLib/src\xmc_wdt.c ****  *                                                                              
  15:C:/Files/Projects/Git/XMCLib/src\xmc_wdt.c ****  * Redistributions of source code must retain the above copyright notice, this list of conditions a
  16:C:/Files/Projects/Git/XMCLib/src\xmc_wdt.c ****  * disclaimer.                        
  17:C:/Files/Projects/Git/XMCLib/src\xmc_wdt.c ****  * 
  18:C:/Files/Projects/Git/XMCLib/src\xmc_wdt.c ****  * Redistributions in binary form must reproduce the above copyright notice, this list of condition
  19:C:/Files/Projects/Git/XMCLib/src\xmc_wdt.c ****  * disclaimer in the documentation and/or other materials provided with the distribution.          
  20:C:/Files/Projects/Git/XMCLib/src\xmc_wdt.c ****  * 
  21:C:/Files/Projects/Git/XMCLib/src\xmc_wdt.c ****  * Neither the name of the copyright holders nor the names of its contributors may be used to endor
  22:C:/Files/Projects/Git/XMCLib/src\xmc_wdt.c ****  * products derived from this software without specific prior written permission.                  
  23:C:/Files/Projects/Git/XMCLib/src\xmc_wdt.c ****  *                                                                              
  24:C:/Files/Projects/Git/XMCLib/src\xmc_wdt.c ****  * THIS SOFTWARE IS PROVIDED BY THE COPYRIGHT HOLDERS AND CONTRIBUTORS "AS IS" AND ANY EXPRESS OR I
  25:C:/Files/Projects/Git/XMCLib/src\xmc_wdt.c ****  * INCLUDING, BUT NOT LIMITED TO, THE IMPLIED WARRANTIES OF MERCHANTABILITY AND FITNESS FOR A PARTI
  26:C:/Files/Projects/Git/XMCLib/src\xmc_wdt.c ****  * DISCLAIMED. IN NO EVENT SHALL THE COPYRIGHT HOLDER OR CONTRIBUTORS BE LIABLE  FOR ANY DIRECT, IN
  27:C:/Files/Projects/Git/XMCLib/src\xmc_wdt.c ****  * SPECIAL, EXEMPLARY, OR CONSEQUENTIAL DAMAGES (INCLUDING, BUT NOT LIMITED TO, PROCUREMENT OF SUBS
  28:C:/Files/Projects/Git/XMCLib/src\xmc_wdt.c ****  * SERVICES; LOSS OF USE, DATA, OR PROFITS; OR BUSINESS INTERRUPTION) HOWEVER CAUSED AND ON ANY THE
  29:C:/Files/Projects/Git/XMCLib/src\xmc_wdt.c ****  * WHETHER IN CONTRACT, STRICT LIABILITY,OR TORT (INCLUDING NEGLIGENCE OR OTHERWISE) ARISING IN ANY
  30:C:/Files/Projects/Git/XMCLib/src\xmc_wdt.c ****  * OF THIS SOFTWARE, EVEN IF ADVISED OF THE POSSIBILITY OF SUCH DAMAGE.                            
  31:C:/Files/Projects/Git/XMCLib/src\xmc_wdt.c ****  *                                                                              
  32:C:/Files/Projects/Git/XMCLib/src\xmc_wdt.c ****  * To improve the quality of the software, users are encouraged to share modifications, enhancement
  33:C:/Files/Projects/Git/XMCLib/src\xmc_wdt.c ****  * Infineon Technologies AG dave@infineon.com).                                                    
  34:C:/Files/Projects/Git/XMCLib/src\xmc_wdt.c ****  **************************************************************************************************
  35:C:/Files/Projects/Git/XMCLib/src\xmc_wdt.c ****  *
  36:C:/Files/Projects/Git/XMCLib/src\xmc_wdt.c ****  * Change History
  37:C:/Files/Projects/Git/XMCLib/src\xmc_wdt.c ****  * --------------
  38:C:/Files/Projects/Git/XMCLib/src\xmc_wdt.c ****  *
  39:C:/Files/Projects/Git/XMCLib/src\xmc_wdt.c ****  * 2015-02-20:
  40:C:/Files/Projects/Git/XMCLib/src\xmc_wdt.c ****  *     - Initial <br>
  41:C:/Files/Projects/Git/XMCLib/src\xmc_wdt.c ****  *
  42:C:/Files/Projects/Git/XMCLib/src\xmc_wdt.c ****  * 2015-06-20:
  43:C:/Files/Projects/Git/XMCLib/src\xmc_wdt.c ****  *     - Removed definition of GetDriverVersion API <br>
  44:C:/Files/Projects/Git/XMCLib/src\xmc_wdt.c ****  *
  45:C:/Files/Projects/Git/XMCLib/src\xmc_wdt.c ****  * @endcond
  46:C:/Files/Projects/Git/XMCLib/src\xmc_wdt.c ****  */
  47:C:/Files/Projects/Git/XMCLib/src\xmc_wdt.c ****  
  48:C:/Files/Projects/Git/XMCLib/src\xmc_wdt.c **** /**************************************************************************************************
  49:C:/Files/Projects/Git/XMCLib/src\xmc_wdt.c ****  * HEADER FILES
  50:C:/Files/Projects/Git/XMCLib/src\xmc_wdt.c ****  **************************************************************************************************
  51:C:/Files/Projects/Git/XMCLib/src\xmc_wdt.c **** #include "xmc_wdt.h"
  52:C:/Files/Projects/Git/XMCLib/src\xmc_wdt.c **** #include "xmc_scu.h"
  53:C:/Files/Projects/Git/XMCLib/src\xmc_wdt.c **** 
  54:C:/Files/Projects/Git/XMCLib/src\xmc_wdt.c **** /**************************************************************************************************
  55:C:/Files/Projects/Git/XMCLib/src\xmc_wdt.c ****  * API IMPLEMENTATION
  56:C:/Files/Projects/Git/XMCLib/src\xmc_wdt.c ****   *************************************************************************************************
  57:C:/Files/Projects/Git/XMCLib/src\xmc_wdt.c **** 
  58:C:/Files/Projects/Git/XMCLib/src\xmc_wdt.c **** /* Enables watchdog clock and releases watchdog reset. */
  59:C:/Files/Projects/Git/XMCLib/src\xmc_wdt.c **** void XMC_WDT_Enable(void)
  60:C:/Files/Projects/Git/XMCLib/src\xmc_wdt.c **** {
  28              	 .loc 1 60 0
  29              	 .cfi_startproc
  30              	 
  31              	 
  32 0000 08B5     	 push {r3,lr}
  33              	.LCFI0:
  34              	 .cfi_def_cfa_offset 8
  35              	 .cfi_offset 3,-8
  36              	 .cfi_offset 14,-4
  61:C:/Files/Projects/Git/XMCLib/src\xmc_wdt.c **** #if UC_FAMILY == XMC4
  62:C:/Files/Projects/Git/XMCLib/src\xmc_wdt.c ****   XMC_SCU_CLOCK_EnableClock(XMC_SCU_CLOCK_WDT);
  37              	 .loc 1 62 0
  38 0002 2020     	 movs r0,#32
  39 0004 FFF7FEFF 	 bl XMC_SCU_CLOCK_EnableClock
  40              	.LVL0:
  63:C:/Files/Projects/Git/XMCLib/src\xmc_wdt.c **** #endif
  64:C:/Files/Projects/Git/XMCLib/src\xmc_wdt.c **** 
  65:C:/Files/Projects/Git/XMCLib/src\xmc_wdt.c **** #if defined(CLOCK_GATING_SUPPORTED)
  66:C:/Files/Projects/Git/XMCLib/src\xmc_wdt.c ****   XMC_SCU_CLOCK_UngatePeripheralClock(XMC_SCU_PERIPHERAL_CLOCK_WDT);
  67:C:/Files/Projects/Git/XMCLib/src\xmc_wdt.c **** #endif
  68:C:/Files/Projects/Git/XMCLib/src\xmc_wdt.c **** #if defined(PERIPHERAL_RESET_SUPPORTED)
  69:C:/Files/Projects/Git/XMCLib/src\xmc_wdt.c ****   XMC_SCU_RESET_DeassertPeripheralReset(XMC_SCU_PERIPHERAL_RESET_WDT);
  41              	 .loc 1 69 0
  42 0008 0148     	 ldr r0,.L3
  43 000a FFF7FEFF 	 bl XMC_SCU_RESET_DeassertPeripheralReset
  44              	.LVL1:
  45 000e 08BD     	 pop {r3,pc}
  46              	.L4:
  47              	 .align 2
  48              	.L3:
  49 0010 02000020 	 .word 536870914
  50              	 .cfi_endproc
  51              	.LFE184:
  53              	 .section .text.XMC_WDT_Disable,"ax",%progbits
  54              	 .align 2
  55              	 .global XMC_WDT_Disable
  56              	 .thumb
  57              	 .thumb_func
  59              	XMC_WDT_Disable:
  60              	.LFB185:
  70:C:/Files/Projects/Git/XMCLib/src\xmc_wdt.c **** #endif  
  71:C:/Files/Projects/Git/XMCLib/src\xmc_wdt.c **** }
  72:C:/Files/Projects/Git/XMCLib/src\xmc_wdt.c **** 
  73:C:/Files/Projects/Git/XMCLib/src\xmc_wdt.c **** /* Disables watchdog clock and resets watchdog. */
  74:C:/Files/Projects/Git/XMCLib/src\xmc_wdt.c **** void XMC_WDT_Disable(void)
  75:C:/Files/Projects/Git/XMCLib/src\xmc_wdt.c **** {
  61              	 .loc 1 75 0
  62              	 .cfi_startproc
  63              	 
  64              	 
  65 0000 08B5     	 push {r3,lr}
  66              	.LCFI1:
  67              	 .cfi_def_cfa_offset 8
  68              	 .cfi_offset 3,-8
  69              	 .cfi_offset 14,-4
  76:C:/Files/Projects/Git/XMCLib/src\xmc_wdt.c **** #if defined(PERIPHERAL_RESET_SUPPORTED)
  77:C:/Files/Projects/Git/XMCLib/src\xmc_wdt.c ****   XMC_SCU_RESET_AssertPeripheralReset(XMC_SCU_PERIPHERAL_RESET_WDT);
  70              	 .loc 1 77 0
  71 0002 0348     	 ldr r0,.L7
  72 0004 FFF7FEFF 	 bl XMC_SCU_RESET_AssertPeripheralReset
  73              	.LVL2:
  78:C:/Files/Projects/Git/XMCLib/src\xmc_wdt.c **** #endif  
  79:C:/Files/Projects/Git/XMCLib/src\xmc_wdt.c **** #if defined(CLOCK_GATING_SUPPORTED)
  80:C:/Files/Projects/Git/XMCLib/src\xmc_wdt.c ****   XMC_SCU_CLOCK_GatePeripheralClock(XMC_SCU_PERIPHERAL_CLOCK_WDT); 
  81:C:/Files/Projects/Git/XMCLib/src\xmc_wdt.c **** #endif
  82:C:/Files/Projects/Git/XMCLib/src\xmc_wdt.c **** 
  83:C:/Files/Projects/Git/XMCLib/src\xmc_wdt.c **** #if UC_FAMILY == XMC4
  84:C:/Files/Projects/Git/XMCLib/src\xmc_wdt.c ****   XMC_SCU_CLOCK_DisableClock(XMC_SCU_CLOCK_WDT);
  74              	 .loc 1 84 0
  75 0008 2020     	 movs r0,#32
  76 000a FFF7FEFF 	 bl XMC_SCU_CLOCK_DisableClock
  77              	.LVL3:
  78 000e 08BD     	 pop {r3,pc}
  79              	.L8:
  80              	 .align 2
  81              	.L7:
  82 0010 02000020 	 .word 536870914
  83              	 .cfi_endproc
  84              	.LFE185:
  86              	 .section .text.XMC_WDT_Init,"ax",%progbits
  87              	 .align 2
  88              	 .global XMC_WDT_Init
  89              	 .thumb
  90              	 .thumb_func
  92              	XMC_WDT_Init:
  93              	.LFB186:
  85:C:/Files/Projects/Git/XMCLib/src\xmc_wdt.c **** #endif
  86:C:/Files/Projects/Git/XMCLib/src\xmc_wdt.c **** }
  87:C:/Files/Projects/Git/XMCLib/src\xmc_wdt.c **** /* Initializes and configures watchdog with configuration data pointed by \a config. */
  88:C:/Files/Projects/Git/XMCLib/src\xmc_wdt.c **** void XMC_WDT_Init(const XMC_WDT_CONFIG_t *const config)
  89:C:/Files/Projects/Git/XMCLib/src\xmc_wdt.c **** {
  94              	 .loc 1 89 0
  95              	 .cfi_startproc
  96              	 
  97              	 
  98              	.LVL4:
  99 0000 10B5     	 push {r4,lr}
 100              	.LCFI2:
 101              	 .cfi_def_cfa_offset 8
 102              	 .cfi_offset 4,-8
 103              	 .cfi_offset 14,-4
 104 0002 0446     	 mov r4,r0
  90:C:/Files/Projects/Git/XMCLib/src\xmc_wdt.c ****   XMC_WDT_Enable();
 105              	 .loc 1 90 0
 106 0004 FFF7FEFF 	 bl XMC_WDT_Enable
 107              	.LVL5:
  91:C:/Files/Projects/Git/XMCLib/src\xmc_wdt.c ****   WDT->CTR = config->wdt_ctr;
 108              	 .loc 1 91 0
 109 0008 A268     	 ldr r2,[r4,#8]
 110 000a 034B     	 ldr r3,.L11
 111 000c 5A60     	 str r2,[r3,#4]
  92:C:/Files/Projects/Git/XMCLib/src\xmc_wdt.c ****   WDT->WLB = config->window_lower_bound;
 112              	 .loc 1 92 0
 113 000e 6268     	 ldr r2,[r4,#4]
 114 0010 1A61     	 str r2,[r3,#16]
  93:C:/Files/Projects/Git/XMCLib/src\xmc_wdt.c ****   WDT->WUB = config->window_upper_bound;
 115              	 .loc 1 93 0
 116 0012 2268     	 ldr r2,[r4]
 117 0014 5A61     	 str r2,[r3,#20]
 118 0016 10BD     	 pop {r4,pc}
 119              	.LVL6:
 120              	.L12:
 121              	 .align 2
 122              	.L11:
 123 0018 00800050 	 .word 1342210048
 124              	 .cfi_endproc
 125              	.LFE186:
 127              	 .text
 128              	.Letext0:
 129              	 .file 2 "c:\\dave\\dave-ide-4.4.2-64bit\\eclipse\\arm-gcc-49\\arm-none-eabi\\include\\machine\\_default_types.h"
 130              	 .file 3 "c:\\dave\\dave-ide-4.4.2-64bit\\eclipse\\arm-gcc-49\\arm-none-eabi\\include\\stdint.h"
 131              	 .file 4 "C:/Files/Projects/Git/CMSIS/Infineon/XMC4500_series/Include/XMC4500.h"
 132              	 .file 5 "C:/Files/Projects/Git/XMCLib/inc/xmc4_scu.h"
 133              	 .file 6 "C:/Files/Projects/Git/XMCLib/inc/xmc_wdt.h"
 134              	 .file 7 "C:/Files/Projects/Git/CMSIS/Include/cmsis_gcc.h"
 135              	 .file 8 "C:/Files/Projects/Git/CMSIS/Include/core_cm4.h"
 136              	 .file 9 "C:/Files/Projects/Git/CMSIS/Infineon/XMC4500_series/Include/system_XMC4500.h"