   1              	 .syntax unified
   2              	 .cpu cortex-m4
   3              	 .eabi_attribute 27,3
   4              	 .fpu fpv4-sp-d16
   5              	 .eabi_attribute 20,1
   6              	 .eabi_attribute 21,1
   7              	 .eabi_attribute 23,3
   8              	 .eabi_attribute 24,1
   9              	 .eabi_attribute 25,1
  10              	 .eabi_attribute 26,1
  11              	 .eabi_attribute 30,1
  12              	 .eabi_attribute 34,1
  13              	 .eabi_attribute 18,4
  14              	 .thumb
  15              	 .file "xmc_gpio.c"
  16              	 .text
  17              	.Ltext0:
  18              	 .cfi_sections .debug_frame
  19              	 .section .text.XMC_GPIO_SetMode,"ax",%progbits
  20              	 .align 2
  21              	 .global XMC_GPIO_SetMode
  22              	 .thumb
  23              	 .thumb_func
  25              	XMC_GPIO_SetMode:
  26              	.LFB147:
  27              	 .file 1 "C:/Files/Projects/Git/XMCLib/src/xmc_gpio.c"
   1:C:/Files/Projects/Git/XMCLib/src\xmc_gpio.c **** /**
   2:C:/Files/Projects/Git/XMCLib/src\xmc_gpio.c ****  * @file xmc_gpio.c
   3:C:/Files/Projects/Git/XMCLib/src\xmc_gpio.c ****  * @date 2015-06-20
   4:C:/Files/Projects/Git/XMCLib/src\xmc_gpio.c ****  *
   5:C:/Files/Projects/Git/XMCLib/src\xmc_gpio.c ****  * @cond
   6:C:/Files/Projects/Git/XMCLib/src\xmc_gpio.c ****  **************************************************************************************************
   7:C:/Files/Projects/Git/XMCLib/src\xmc_gpio.c ****  * XMClib v2.1.24 - XMC Peripheral Driver Library 
   8:C:/Files/Projects/Git/XMCLib/src\xmc_gpio.c ****  *
   9:C:/Files/Projects/Git/XMCLib/src\xmc_gpio.c ****  * Copyright (c) 2015-2019, Infineon Technologies AG
  10:C:/Files/Projects/Git/XMCLib/src\xmc_gpio.c ****  * All rights reserved.                        
  11:C:/Files/Projects/Git/XMCLib/src\xmc_gpio.c ****  *                                             
  12:C:/Files/Projects/Git/XMCLib/src\xmc_gpio.c ****  * Redistribution and use in source and binary forms, with or without modification,are permitted pr
  13:C:/Files/Projects/Git/XMCLib/src\xmc_gpio.c ****  * following conditions are met:   
  14:C:/Files/Projects/Git/XMCLib/src\xmc_gpio.c ****  *                                                                              
  15:C:/Files/Projects/Git/XMCLib/src\xmc_gpio.c ****  * Redistributions of source code must retain the above copyright notice, this list of conditions a
  16:C:/Files/Projects/Git/XMCLib/src\xmc_gpio.c ****  * disclaimer.                        
  17:C:/Files/Projects/Git/XMCLib/src\xmc_gpio.c ****  * 
  18:C:/Files/Projects/Git/XMCLib/src\xmc_gpio.c ****  * Redistributions in binary form must reproduce the above copyright notice, this list of condition
  19:C:/Files/Projects/Git/XMCLib/src\xmc_gpio.c ****  * disclaimer in the documentation and/or other materials provided with the distribution.          
  20:C:/Files/Projects/Git/XMCLib/src\xmc_gpio.c ****  * 
  21:C:/Files/Projects/Git/XMCLib/src\xmc_gpio.c ****  * Neither the name of the copyright holders nor the names of its contributors may be used to endor
  22:C:/Files/Projects/Git/XMCLib/src\xmc_gpio.c ****  * products derived from this software without specific prior written permission.                  
  23:C:/Files/Projects/Git/XMCLib/src\xmc_gpio.c ****  *                                                                              
  24:C:/Files/Projects/Git/XMCLib/src\xmc_gpio.c ****  * THIS SOFTWARE IS PROVIDED BY THE COPYRIGHT HOLDERS AND CONTRIBUTORS "AS IS" AND ANY EXPRESS OR I
  25:C:/Files/Projects/Git/XMCLib/src\xmc_gpio.c ****  * INCLUDING, BUT NOT LIMITED TO, THE IMPLIED WARRANTIES OF MERCHANTABILITY AND FITNESS FOR A PARTI
  26:C:/Files/Projects/Git/XMCLib/src\xmc_gpio.c ****  * DISCLAIMED. IN NO EVENT SHALL THE COPYRIGHT HOLDER OR CONTRIBUTORS BE LIABLE  FOR ANY DIRECT, IN
  27:C:/Files/Projects/Git/XMCLib/src\xmc_gpio.c ****  * SPECIAL, EXEMPLARY, OR CONSEQUENTIAL DAMAGES (INCLUDING, BUT NOT LIMITED TO, PROCUREMENT OF SUBS
  28:C:/Files/Projects/Git/XMCLib/src\xmc_gpio.c ****  * SERVICES; LOSS OF USE, DATA, OR PROFITS; OR BUSINESS INTERRUPTION) HOWEVER CAUSED AND ON ANY THE
  29:C:/Files/Projects/Git/XMCLib/src\xmc_gpio.c ****  * WHETHER IN CONTRACT, STRICT LIABILITY,OR TORT (INCLUDING NEGLIGENCE OR OTHERWISE) ARISING IN ANY
  30:C:/Files/Projects/Git/XMCLib/src\xmc_gpio.c ****  * OF THIS SOFTWARE, EVEN IF ADVISED OF THE POSSIBILITY OF SUCH DAMAGE.                            
  31:C:/Files/Projects/Git/XMCLib/src\xmc_gpio.c ****  *                                                                              
  32:C:/Files/Projects/Git/XMCLib/src\xmc_gpio.c ****  * To improve the quality of the software, users are encouraged to share modifications, enhancement
  33:C:/Files/Projects/Git/XMCLib/src\xmc_gpio.c ****  * Infineon Technologies AG dave@infineon.com).                                                    
  34:C:/Files/Projects/Git/XMCLib/src\xmc_gpio.c ****  **************************************************************************************************
  35:C:/Files/Projects/Git/XMCLib/src\xmc_gpio.c ****  *
  36:C:/Files/Projects/Git/XMCLib/src\xmc_gpio.c ****  * Change History
  37:C:/Files/Projects/Git/XMCLib/src\xmc_gpio.c ****  * --------------
  38:C:/Files/Projects/Git/XMCLib/src\xmc_gpio.c ****  *
  39:C:/Files/Projects/Git/XMCLib/src\xmc_gpio.c ****  * 2015-02-20:
  40:C:/Files/Projects/Git/XMCLib/src\xmc_gpio.c ****  *     - Initial draft <br>
  41:C:/Files/Projects/Git/XMCLib/src\xmc_gpio.c ****  *      
  42:C:/Files/Projects/Git/XMCLib/src\xmc_gpio.c ****  * 2015-06-20:
  43:C:/Files/Projects/Git/XMCLib/src\xmc_gpio.c ****  *     - Removed version macros and declaration of GetDriverVersion API
  44:C:/Files/Projects/Git/XMCLib/src\xmc_gpio.c ****  *
  45:C:/Files/Projects/Git/XMCLib/src\xmc_gpio.c ****  * @endcond
  46:C:/Files/Projects/Git/XMCLib/src\xmc_gpio.c ****  *
  47:C:/Files/Projects/Git/XMCLib/src\xmc_gpio.c ****  */
  48:C:/Files/Projects/Git/XMCLib/src\xmc_gpio.c **** 
  49:C:/Files/Projects/Git/XMCLib/src\xmc_gpio.c **** /*******************************************************************************
  50:C:/Files/Projects/Git/XMCLib/src\xmc_gpio.c ****  * HEADER FILES
  51:C:/Files/Projects/Git/XMCLib/src\xmc_gpio.c ****  *******************************************************************************/
  52:C:/Files/Projects/Git/XMCLib/src\xmc_gpio.c **** 
  53:C:/Files/Projects/Git/XMCLib/src\xmc_gpio.c **** #include <xmc_gpio.h>
  54:C:/Files/Projects/Git/XMCLib/src\xmc_gpio.c **** 
  55:C:/Files/Projects/Git/XMCLib/src\xmc_gpio.c **** /*******************************************************************************
  56:C:/Files/Projects/Git/XMCLib/src\xmc_gpio.c ****  * MACROS
  57:C:/Files/Projects/Git/XMCLib/src\xmc_gpio.c ****  *******************************************************************************/
  58:C:/Files/Projects/Git/XMCLib/src\xmc_gpio.c **** 
  59:C:/Files/Projects/Git/XMCLib/src\xmc_gpio.c **** #define PORT_HWSEL_Msk PORT0_HWSEL_HW0_Msk
  60:C:/Files/Projects/Git/XMCLib/src\xmc_gpio.c **** 
  61:C:/Files/Projects/Git/XMCLib/src\xmc_gpio.c **** /*******************************************************************************
  62:C:/Files/Projects/Git/XMCLib/src\xmc_gpio.c ****  * API IMPLEMENTATION
  63:C:/Files/Projects/Git/XMCLib/src\xmc_gpio.c ****  *******************************************************************************/
  64:C:/Files/Projects/Git/XMCLib/src\xmc_gpio.c **** 
  65:C:/Files/Projects/Git/XMCLib/src\xmc_gpio.c **** void XMC_GPIO_SetMode(XMC_GPIO_PORT_t *const port, const uint8_t pin, const XMC_GPIO_MODE_t mode)
  66:C:/Files/Projects/Git/XMCLib/src\xmc_gpio.c **** {
  28              	 .loc 1 66 0
  29              	 .cfi_startproc
  30              	 
  31              	 
  32              	 
  33              	.LVL0:
  34 0000 10B4     	 push {r4}
  35              	.LCFI0:
  36              	 .cfi_def_cfa_offset 4
  37              	 .cfi_offset 4,-4
  38 0002 01F0FC03 	 and r3,r1,#252
  39 0006 1844     	 add r0,r0,r3
  40              	.LVL1:
  67:C:/Files/Projects/Git/XMCLib/src\xmc_gpio.c ****   XMC_ASSERT("XMC_GPIO_SetMode: Invalid port", XMC_GPIO_CHECK_PORT(port));
  68:C:/Files/Projects/Git/XMCLib/src\xmc_gpio.c ****   XMC_ASSERT("XMC_GPIO_SetMode: Invalid mode", XMC_GPIO_IsModeValid(mode));
  69:C:/Files/Projects/Git/XMCLib/src\xmc_gpio.c **** 
  70:C:/Files/Projects/Git/XMCLib/src\xmc_gpio.c ****   port->IOCR[(uint32_t)pin >> 2U] &= ~(uint32_t)((uint32_t)PORT_IOCR_PC_Msk << ((uint32_t)PORT_IOCR
  41              	 .loc 1 70 0
  42 0008 0469     	 ldr r4,[r0,#16]
  43 000a 01F00301 	 and r1,r1,#3
  44              	.LVL2:
  45 000e C900     	 lsls r1,r1,#3
  46 0010 F823     	 movs r3,#248
  47 0012 8B40     	 lsls r3,r3,r1
  48 0014 24EA0303 	 bic r3,r4,r3
  49 0018 0361     	 str r3,[r0,#16]
  71:C:/Files/Projects/Git/XMCLib/src\xmc_gpio.c ****   port->IOCR[(uint32_t)pin >> 2U] |= (uint32_t)mode << ((uint32_t)PORT_IOCR_PC_Size * ((uint32_t)pi
  50              	 .loc 1 71 0
  51 001a 0369     	 ldr r3,[r0,#16]
  52 001c 8A40     	 lsls r2,r2,r1
  53              	.LVL3:
  54 001e 1343     	 orrs r3,r3,r2
  55 0020 0361     	 str r3,[r0,#16]
  72:C:/Files/Projects/Git/XMCLib/src\xmc_gpio.c **** }
  56              	 .loc 1 72 0
  57 0022 5DF8044B 	 ldr r4,[sp],#4
  58              	.LCFI1:
  59              	 .cfi_restore 4
  60              	 .cfi_def_cfa_offset 0
  61 0026 7047     	 bx lr
  62              	 .cfi_endproc
  63              	.LFE147:
  65              	 .section .text.XMC_GPIO_SetHardwareControl,"ax",%progbits
  66              	 .align 2
  67              	 .global XMC_GPIO_SetHardwareControl
  68              	 .thumb
  69              	 .thumb_func
  71              	XMC_GPIO_SetHardwareControl:
  72              	.LFB148:
  73:C:/Files/Projects/Git/XMCLib/src\xmc_gpio.c **** 
  74:C:/Files/Projects/Git/XMCLib/src\xmc_gpio.c **** void XMC_GPIO_SetHardwareControl(XMC_GPIO_PORT_t *const port, const uint8_t pin, const XMC_GPIO_HWC
  75:C:/Files/Projects/Git/XMCLib/src\xmc_gpio.c **** {
  73              	 .loc 1 75 0
  74              	 .cfi_startproc
  75              	 
  76              	 
  77              	 
  78              	.LVL4:
  79 0000 10B4     	 push {r4}
  80              	.LCFI2:
  81              	 .cfi_def_cfa_offset 4
  82              	 .cfi_offset 4,-4
  76:C:/Files/Projects/Git/XMCLib/src\xmc_gpio.c ****   XMC_ASSERT("XMC_GPIO_SetHardwareControl: Invalid port", XMC_GPIO_CHECK_PORT(port));
  77:C:/Files/Projects/Git/XMCLib/src\xmc_gpio.c ****   XMC_ASSERT("XMC_GPIO_SetHardwareControl: Invalid hwctrl", XMC_GPIO_CHECK_HWCTRL(hwctrl));
  78:C:/Files/Projects/Git/XMCLib/src\xmc_gpio.c **** 
  79:C:/Files/Projects/Git/XMCLib/src\xmc_gpio.c ****   port->HWSEL &= ~(uint32_t)((uint32_t)PORT_HWSEL_Msk << ((uint32_t)pin << 1U));
  83              	 .loc 1 79 0
  84 0002 436F     	 ldr r3,[r0,#116]
  85 0004 4900     	 lsls r1,r1,#1
  86              	.LVL5:
  87 0006 0324     	 movs r4,#3
  88 0008 8C40     	 lsls r4,r4,r1
  89 000a 23EA0403 	 bic r3,r3,r4
  90 000e 4367     	 str r3,[r0,#116]
  80:C:/Files/Projects/Git/XMCLib/src\xmc_gpio.c ****   port->HWSEL |= (uint32_t)hwctrl << ((uint32_t)pin << 1U);
  91              	 .loc 1 80 0
  92 0010 436F     	 ldr r3,[r0,#116]
  93 0012 8A40     	 lsls r2,r2,r1
  94              	.LVL6:
  95 0014 1343     	 orrs r3,r3,r2
  96 0016 4367     	 str r3,[r0,#116]
  81:C:/Files/Projects/Git/XMCLib/src\xmc_gpio.c **** }
  97              	 .loc 1 81 0
  98 0018 5DF8044B 	 ldr r4,[sp],#4
  99              	.LCFI3:
 100              	 .cfi_restore 4
 101              	 .cfi_def_cfa_offset 0
 102 001c 7047     	 bx lr
 103              	 .cfi_endproc
 104              	.LFE148:
 106 001e 00BF     	 .text
 107              	.Letext0:
 108              	 .file 2 "c:\\dave\\dave-ide-4.4.2-64bit\\eclipse\\arm-gcc-49\\arm-none-eabi\\include\\machine\\_default_types.h"
 109              	 .file 3 "c:\\dave\\dave-ide-4.4.2-64bit\\eclipse\\arm-gcc-49\\arm-none-eabi\\include\\stdint.h"
 110              	 .file 4 "C:/Files/Projects/Git/XMCLib/inc/xmc_gpio.h"
 111              	 .file 5 "C:/Files/Projects/Git/XMCLib/inc/xmc4_gpio.h"
 112              	 .file 6 "C:/Files/Projects/Git/CMSIS/Include/cmsis_gcc.h"
 113              	 .file 7 "C:/Files/Projects/Git/CMSIS/Include/core_cm4.h"