   1              	 .syntax unified
   2              	 .cpu cortex-m4
   3              	 .eabi_attribute 27,3
   4              	 .fpu fpv4-sp-d16
   5              	 .eabi_attribute 20,1
   6              	 .eabi_attribute 21,1
   7              	 .eabi_attribute 23,3
   8              	 .eabi_attribute 24,1
   9              	 .eabi_attribute 25,1
  10              	 .eabi_attribute 26,1
  11              	 .eabi_attribute 30,1
  12              	 .eabi_attribute 34,1
  13              	 .eabi_attribute 18,4
  14              	 .thumb
  15              	 .file "xmc_ledts.c"
  16              	 .text
  17              	.Ltext0:
  18              	 .cfi_sections .debug_frame
  19              	 .section .text.XMC_LEDTS_InitGlobal,"ax",%progbits
  20              	 .align 2
  21              	 .global XMC_LEDTS_InitGlobal
  22              	 .thumb
  23              	 .thumb_func
  25              	XMC_LEDTS_InitGlobal:
  26              	.LFB177:
  27              	 .file 1 "C:/Files/Projects/Git/XMCLib/src/xmc_ledts.c"
   1:C:/Files/Projects/Git/XMCLib/src\xmc_ledts.c **** /**
   2:C:/Files/Projects/Git/XMCLib/src\xmc_ledts.c ****  * @file xmc_ledts.c
   3:C:/Files/Projects/Git/XMCLib/src\xmc_ledts.c ****  * @date 2017-02-25
   4:C:/Files/Projects/Git/XMCLib/src\xmc_ledts.c ****  *
   5:C:/Files/Projects/Git/XMCLib/src\xmc_ledts.c ****  * @cond
   6:C:/Files/Projects/Git/XMCLib/src\xmc_ledts.c ****  **************************************************************************************************
   7:C:/Files/Projects/Git/XMCLib/src\xmc_ledts.c ****  * XMClib v2.1.24 - XMC Peripheral Driver Library 
   8:C:/Files/Projects/Git/XMCLib/src\xmc_ledts.c ****  *
   9:C:/Files/Projects/Git/XMCLib/src\xmc_ledts.c ****  * Copyright (c) 2015-2019, Infineon Technologies AG
  10:C:/Files/Projects/Git/XMCLib/src\xmc_ledts.c ****  * All rights reserved.                        
  11:C:/Files/Projects/Git/XMCLib/src\xmc_ledts.c ****  *                                             
  12:C:/Files/Projects/Git/XMCLib/src\xmc_ledts.c ****  * Redistribution and use in source and binary forms, with or without modification,are permitted pr
  13:C:/Files/Projects/Git/XMCLib/src\xmc_ledts.c ****  * following conditions are met:   
  14:C:/Files/Projects/Git/XMCLib/src\xmc_ledts.c ****  *                                                                              
  15:C:/Files/Projects/Git/XMCLib/src\xmc_ledts.c ****  * Redistributions of source code must retain the above copyright notice, this list of conditions a
  16:C:/Files/Projects/Git/XMCLib/src\xmc_ledts.c ****  * disclaimer.                        
  17:C:/Files/Projects/Git/XMCLib/src\xmc_ledts.c ****  * 
  18:C:/Files/Projects/Git/XMCLib/src\xmc_ledts.c ****  * Redistributions in binary form must reproduce the above copyright notice, this list of condition
  19:C:/Files/Projects/Git/XMCLib/src\xmc_ledts.c ****  * disclaimer in the documentation and/or other materials provided with the distribution.          
  20:C:/Files/Projects/Git/XMCLib/src\xmc_ledts.c ****  * 
  21:C:/Files/Projects/Git/XMCLib/src\xmc_ledts.c ****  * Neither the name of the copyright holders nor the names of its contributors may be used to endor
  22:C:/Files/Projects/Git/XMCLib/src\xmc_ledts.c ****  * products derived from this software without specific prior written permission.                  
  23:C:/Files/Projects/Git/XMCLib/src\xmc_ledts.c ****  *                                                                              
  24:C:/Files/Projects/Git/XMCLib/src\xmc_ledts.c ****  * THIS SOFTWARE IS PROVIDED BY THE COPYRIGHT HOLDERS AND CONTRIBUTORS "AS IS" AND ANY EXPRESS OR I
  25:C:/Files/Projects/Git/XMCLib/src\xmc_ledts.c ****  * INCLUDING, BUT NOT LIMITED TO, THE IMPLIED WARRANTIES OF MERCHANTABILITY AND FITNESS FOR A PARTI
  26:C:/Files/Projects/Git/XMCLib/src\xmc_ledts.c ****  * DISCLAIMED. IN NO EVENT SHALL THE COPYRIGHT HOLDER OR CONTRIBUTORS BE LIABLE  FOR ANY DIRECT, IN
  27:C:/Files/Projects/Git/XMCLib/src\xmc_ledts.c ****  * SPECIAL, EXEMPLARY, OR CONSEQUENTIAL DAMAGES (INCLUDING, BUT NOT LIMITED TO, PROCUREMENT OF SUBS
  28:C:/Files/Projects/Git/XMCLib/src\xmc_ledts.c ****  * SERVICES; LOSS OF USE, DATA, OR PROFITS; OR BUSINESS INTERRUPTION) HOWEVER CAUSED AND ON ANY THE
  29:C:/Files/Projects/Git/XMCLib/src\xmc_ledts.c ****  * WHETHER IN CONTRACT, STRICT LIABILITY,OR TORT (INCLUDING NEGLIGENCE OR OTHERWISE) ARISING IN ANY
  30:C:/Files/Projects/Git/XMCLib/src\xmc_ledts.c ****  * OF THIS SOFTWARE, EVEN IF ADVISED OF THE POSSIBILITY OF SUCH DAMAGE.                            
  31:C:/Files/Projects/Git/XMCLib/src\xmc_ledts.c ****  *                                                                              
  32:C:/Files/Projects/Git/XMCLib/src\xmc_ledts.c ****  * To improve the quality of the software, users are encouraged to share modifications, enhancement
  33:C:/Files/Projects/Git/XMCLib/src\xmc_ledts.c ****  * Infineon Technologies AG dave@infineon.com).                                                    
  34:C:/Files/Projects/Git/XMCLib/src\xmc_ledts.c ****  **************************************************************************************************
  35:C:/Files/Projects/Git/XMCLib/src\xmc_ledts.c ****  *
  36:C:/Files/Projects/Git/XMCLib/src\xmc_ledts.c ****  * Change History
  37:C:/Files/Projects/Git/XMCLib/src\xmc_ledts.c ****  * --------------
  38:C:/Files/Projects/Git/XMCLib/src\xmc_ledts.c ****  *
  39:C:/Files/Projects/Git/XMCLib/src\xmc_ledts.c ****  * 2015-02-20:
  40:C:/Files/Projects/Git/XMCLib/src\xmc_ledts.c ****  *     - Initial draft <br>
  41:C:/Files/Projects/Git/XMCLib/src\xmc_ledts.c ****  *     - New API added: XMC_LEDTS_SetActivePADNo() <br>
  42:C:/Files/Projects/Git/XMCLib/src\xmc_ledts.c ****  *      
  43:C:/Files/Projects/Git/XMCLib/src\xmc_ledts.c ****  * 2015-06-20:
  44:C:/Files/Projects/Git/XMCLib/src\xmc_ledts.c ****  *     - Removed version macros and declaration of GetDriverVersion API
  45:C:/Files/Projects/Git/XMCLib/src\xmc_ledts.c ****  *
  46:C:/Files/Projects/Git/XMCLib/src\xmc_ledts.c ****  * 2017-02-25:
  47:C:/Files/Projects/Git/XMCLib/src\xmc_ledts.c ****  *     - XMC_LEDTS_InitGlobal() fixed compilation warnings
  48:C:/Files/Projects/Git/XMCLib/src\xmc_ledts.c ****  *
  49:C:/Files/Projects/Git/XMCLib/src\xmc_ledts.c ****  * <b>Detailed description of file:</b><br>
  50:C:/Files/Projects/Git/XMCLib/src\xmc_ledts.c ****  * APIs for the functional blocks of LEDTS have been defined:<br>
  51:C:/Files/Projects/Git/XMCLib/src\xmc_ledts.c ****  * -- GLOBAL (APIs prefixed with LEDTS_GLOBAL_) <br>
  52:C:/Files/Projects/Git/XMCLib/src\xmc_ledts.c ****  * -- Clock configuration, Function/Event configuration, Interrupt configuration
  53:C:/Files/Projects/Git/XMCLib/src\xmc_ledts.c ****  *
  54:C:/Files/Projects/Git/XMCLib/src\xmc_ledts.c ****  * @endcond
  55:C:/Files/Projects/Git/XMCLib/src\xmc_ledts.c ****  *
  56:C:/Files/Projects/Git/XMCLib/src\xmc_ledts.c ****  */
  57:C:/Files/Projects/Git/XMCLib/src\xmc_ledts.c **** 
  58:C:/Files/Projects/Git/XMCLib/src\xmc_ledts.c **** /**************************************************************************************************
  59:C:/Files/Projects/Git/XMCLib/src\xmc_ledts.c ****  * HEADER FILES
  60:C:/Files/Projects/Git/XMCLib/src\xmc_ledts.c ****  **************************************************************************************************
  61:C:/Files/Projects/Git/XMCLib/src\xmc_ledts.c **** #include <xmc_ledts.h>
  62:C:/Files/Projects/Git/XMCLib/src\xmc_ledts.c **** 
  63:C:/Files/Projects/Git/XMCLib/src\xmc_ledts.c **** #if defined(LEDTS0)
  64:C:/Files/Projects/Git/XMCLib/src\xmc_ledts.c **** #include "xmc_scu.h"
  65:C:/Files/Projects/Git/XMCLib/src\xmc_ledts.c **** 
  66:C:/Files/Projects/Git/XMCLib/src\xmc_ledts.c **** /**************************************************************************************************
  67:C:/Files/Projects/Git/XMCLib/src\xmc_ledts.c ****  * MACROS
  68:C:/Files/Projects/Git/XMCLib/src\xmc_ledts.c ****  **************************************************************************************************
  69:C:/Files/Projects/Git/XMCLib/src\xmc_ledts.c **** #define XMC_LEDTS_CLOCK_NOT_RUNNING 0U
  70:C:/Files/Projects/Git/XMCLib/src\xmc_ledts.c **** 
  71:C:/Files/Projects/Git/XMCLib/src\xmc_ledts.c **** /**************************************************************************************************
  72:C:/Files/Projects/Git/XMCLib/src\xmc_ledts.c ****  * ENUMS
  73:C:/Files/Projects/Git/XMCLib/src\xmc_ledts.c ****  **************************************************************************************************
  74:C:/Files/Projects/Git/XMCLib/src\xmc_ledts.c **** 
  75:C:/Files/Projects/Git/XMCLib/src\xmc_ledts.c **** /**************************************************************************************************
  76:C:/Files/Projects/Git/XMCLib/src\xmc_ledts.c ****  * DATA STRUCTURES
  77:C:/Files/Projects/Git/XMCLib/src\xmc_ledts.c ****  **************************************************************************************************
  78:C:/Files/Projects/Git/XMCLib/src\xmc_ledts.c **** 
  79:C:/Files/Projects/Git/XMCLib/src\xmc_ledts.c **** /**************************************************************************************************
  80:C:/Files/Projects/Git/XMCLib/src\xmc_ledts.c ****  * GLOBAL DATA
  81:C:/Files/Projects/Git/XMCLib/src\xmc_ledts.c ****  **************************************************************************************************
  82:C:/Files/Projects/Git/XMCLib/src\xmc_ledts.c **** 
  83:C:/Files/Projects/Git/XMCLib/src\xmc_ledts.c **** /**************************************************************************************************
  84:C:/Files/Projects/Git/XMCLib/src\xmc_ledts.c ****  * LOCAL/UTILITY ROUTINES
  85:C:/Files/Projects/Git/XMCLib/src\xmc_ledts.c ****  **************************************************************************************************
  86:C:/Files/Projects/Git/XMCLib/src\xmc_ledts.c **** 
  87:C:/Files/Projects/Git/XMCLib/src\xmc_ledts.c **** /**************************************************************************************************
  88:C:/Files/Projects/Git/XMCLib/src\xmc_ledts.c ****  * API IMPLEMENTATION
  89:C:/Files/Projects/Git/XMCLib/src\xmc_ledts.c ****  **************************************************************************************************
  90:C:/Files/Projects/Git/XMCLib/src\xmc_ledts.c **** 
  91:C:/Files/Projects/Git/XMCLib/src\xmc_ledts.c **** /**
  92:C:/Files/Projects/Git/XMCLib/src\xmc_ledts.c ****   * Initialization of global register
  93:C:/Files/Projects/Git/XMCLib/src\xmc_ledts.c ****   */
  94:C:/Files/Projects/Git/XMCLib/src\xmc_ledts.c **** XMC_LEDTS_STATUS_t XMC_LEDTS_InitGlobal(XMC_LEDTS_t *const ledts, const XMC_LEDTS_GLOBAL_CONFIG_t *
  95:C:/Files/Projects/Git/XMCLib/src\xmc_ledts.c **** {
  28              	 .loc 1 95 0
  29              	 .cfi_startproc
  30              	 
  31              	 
  32              	.LVL0:
  33 0000 38B5     	 push {r3,r4,r5,lr}
  34              	.LCFI0:
  35              	 .cfi_def_cfa_offset 16
  36              	 .cfi_offset 3,-16
  37              	 .cfi_offset 4,-12
  38              	 .cfi_offset 5,-8
  39              	 .cfi_offset 14,-4
  40 0002 0446     	 mov r4,r0
  41 0004 0D46     	 mov r5,r1
  96:C:/Files/Projects/Git/XMCLib/src\xmc_ledts.c ****   XMC_ASSERT("XMC_LEDTS_InitGlobal:Wrong Module Pointer", XMC_LEDTS_CHECK_KERNEL_PTR(ledts));
  97:C:/Files/Projects/Git/XMCLib/src\xmc_ledts.c ****   XMC_ASSERT("XMC_LEDTS_InitGlobal:Null Pointer", (config != (XMC_LEDTS_GLOBAL_CONFIG_t *)NULL));
  98:C:/Files/Projects/Git/XMCLib/src\xmc_ledts.c **** 
  99:C:/Files/Projects/Git/XMCLib/src\xmc_ledts.c ****   if (ledts == XMC_LEDTS0)
  42              	 .loc 1 99 0
  43 0006 084B     	 ldr r3,.L6
  44 0008 9842     	 cmp r0,r3
  45 000a 02D1     	 bne .L2
 100:C:/Files/Projects/Git/XMCLib/src\xmc_ledts.c ****   {
 101:C:/Files/Projects/Git/XMCLib/src\xmc_ledts.c **** #if defined(CLOCK_GATING_SUPPORTED)
 102:C:/Files/Projects/Git/XMCLib/src\xmc_ledts.c ****       XMC_SCU_CLOCK_UngatePeripheralClock(XMC_SCU_PERIPHERAL_CLOCK_LEDTS0);
 103:C:/Files/Projects/Git/XMCLib/src\xmc_ledts.c **** #endif
 104:C:/Files/Projects/Git/XMCLib/src\xmc_ledts.c **** #if defined(PERIPHERAL_RESET_SUPPORTED)
 105:C:/Files/Projects/Git/XMCLib/src\xmc_ledts.c ****       XMC_SCU_RESET_DeassertPeripheralReset(XMC_SCU_PERIPHERAL_RESET_LEDTS0);
  46              	 .loc 1 105 0
  47 000c 0748     	 ldr r0,.L6+4
  48              	.LVL1:
  49 000e FFF7FEFF 	 bl XMC_SCU_RESET_DeassertPeripheralReset
  50              	.LVL2:
  51              	.L2:
 106:C:/Files/Projects/Git/XMCLib/src\xmc_ledts.c **** #endif
 107:C:/Files/Projects/Git/XMCLib/src\xmc_ledts.c ****   }
 108:C:/Files/Projects/Git/XMCLib/src\xmc_ledts.c **** #if defined(LEDTS1)
 109:C:/Files/Projects/Git/XMCLib/src\xmc_ledts.c ****   else if (ledts == XMC_LEDTS1)
 110:C:/Files/Projects/Git/XMCLib/src\xmc_ledts.c ****   {
 111:C:/Files/Projects/Git/XMCLib/src\xmc_ledts.c **** #if defined(CLOCK_GATING_SUPPORTED)
 112:C:/Files/Projects/Git/XMCLib/src\xmc_ledts.c ****       XMC_SCU_CLOCK_UngatePeripheralClock(XMC_SCU_PERIPHERAL_CLOCK_LEDTS1);
 113:C:/Files/Projects/Git/XMCLib/src\xmc_ledts.c **** #endif
 114:C:/Files/Projects/Git/XMCLib/src\xmc_ledts.c **** #if defined(PERIPHERAL_RESET_SUPPORTED)
 115:C:/Files/Projects/Git/XMCLib/src\xmc_ledts.c ****       XMC_SCU_RESET_DeassertPeripheralReset(XMC_SCU_PERIPHERAL_RESET_LEDTS1);
 116:C:/Files/Projects/Git/XMCLib/src\xmc_ledts.c **** #endif
 117:C:/Files/Projects/Git/XMCLib/src\xmc_ledts.c ****   }
 118:C:/Files/Projects/Git/XMCLib/src\xmc_ledts.c **** #endif
 119:C:/Files/Projects/Git/XMCLib/src\xmc_ledts.c **** #if defined(LEDTS2)
 120:C:/Files/Projects/Git/XMCLib/src\xmc_ledts.c ****   else if (ledts == XMC_LEDTS2)
 121:C:/Files/Projects/Git/XMCLib/src\xmc_ledts.c ****   {
 122:C:/Files/Projects/Git/XMCLib/src\xmc_ledts.c **** #if defined(CLOCK_GATING_SUPPORTED)
 123:C:/Files/Projects/Git/XMCLib/src\xmc_ledts.c ****       XMC_SCU_CLOCK_UngatePeripheralClock(XMC_SCU_PERIPHERAL_CLOCK_LEDTS2);
 124:C:/Files/Projects/Git/XMCLib/src\xmc_ledts.c **** #endif
 125:C:/Files/Projects/Git/XMCLib/src\xmc_ledts.c **** #if defined(PERIPHERAL_RESET_SUPPORTED)
 126:C:/Files/Projects/Git/XMCLib/src\xmc_ledts.c ****       XMC_SCU_RESET_DeassertPeripheralReset(XMC_SCU_PERIPHERAL_RESET_LEDTS2);
 127:C:/Files/Projects/Git/XMCLib/src\xmc_ledts.c **** #endif
 128:C:/Files/Projects/Git/XMCLib/src\xmc_ledts.c ****   }
 129:C:/Files/Projects/Git/XMCLib/src\xmc_ledts.c **** #endif
 130:C:/Files/Projects/Git/XMCLib/src\xmc_ledts.c ****   else
 131:C:/Files/Projects/Git/XMCLib/src\xmc_ledts.c ****   {
 132:C:/Files/Projects/Git/XMCLib/src\xmc_ledts.c ****     XMC_ASSERT("XMC_LEDTS_InitGlobal:Invalid Module Pointer", 0);
 133:C:/Files/Projects/Git/XMCLib/src\xmc_ledts.c ****   }
 134:C:/Files/Projects/Git/XMCLib/src\xmc_ledts.c **** 
 135:C:/Files/Projects/Git/XMCLib/src\xmc_ledts.c ****   if((ledts->GLOBCTL & LEDTS_GLOBCTL_CLK_PS_Msk) != XMC_LEDTS_CLOCK_NOT_RUNNING)
  52              	 .loc 1 135 0
  53 0012 6368     	 ldr r3,[r4,#4]
  54 0014 1B0C     	 lsrs r3,r3,#16
  55 0016 1B04     	 lsls r3,r3,#16
  56 0018 1BB9     	 cbnz r3,.L4
 136:C:/Files/Projects/Git/XMCLib/src\xmc_ledts.c ****   {
 137:C:/Files/Projects/Git/XMCLib/src\xmc_ledts.c ****     return XMC_LEDTS_STATUS_RUNNING;
 138:C:/Files/Projects/Git/XMCLib/src\xmc_ledts.c ****   }
 139:C:/Files/Projects/Git/XMCLib/src\xmc_ledts.c **** 
 140:C:/Files/Projects/Git/XMCLib/src\xmc_ledts.c ****   ledts->GLOBCTL = config->globctl;
  57              	 .loc 1 140 0
  58 001a 2B68     	 ldr r3,[r5]
  59 001c 6360     	 str r3,[r4,#4]
 141:C:/Files/Projects/Git/XMCLib/src\xmc_ledts.c **** 
 142:C:/Files/Projects/Git/XMCLib/src\xmc_ledts.c ****   return XMC_LEDTS_STATUS_SUCCESS;
  60              	 .loc 1 142 0
  61 001e 0020     	 movs r0,#0
  62 0020 38BD     	 pop {r3,r4,r5,pc}
  63              	.LVL3:
  64              	.L4:
 137:C:/Files/Projects/Git/XMCLib/src\xmc_ledts.c ****   }
  65              	 .loc 1 137 0
  66 0022 0120     	 movs r0,#1
 143:C:/Files/Projects/Git/XMCLib/src\xmc_ledts.c **** }
  67              	 .loc 1 143 0
  68 0024 38BD     	 pop {r3,r4,r5,pc}
  69              	.LVL4:
  70              	.L7:
  71 0026 00BF     	 .align 2
  72              	.L6:
  73 0028 00000148 	 .word 1208025088
  74 002c 08000010 	 .word 268435464
  75              	 .cfi_endproc
  76              	.LFE177:
  78              	 .section .text.XMC_LEDTS_InitLED,"ax",%progbits
  79              	 .align 2
  80              	 .global XMC_LEDTS_InitLED
  81              	 .thumb
  82              	 .thumb_func
  84              	XMC_LEDTS_InitLED:
  85              	.LFB178:
 144:C:/Files/Projects/Git/XMCLib/src\xmc_ledts.c **** 
 145:C:/Files/Projects/Git/XMCLib/src\xmc_ledts.c **** /**
 146:C:/Files/Projects/Git/XMCLib/src\xmc_ledts.c ****   * Initialization of registers for LED-driving function
 147:C:/Files/Projects/Git/XMCLib/src\xmc_ledts.c ****   */
 148:C:/Files/Projects/Git/XMCLib/src\xmc_ledts.c **** XMC_LEDTS_STATUS_t XMC_LEDTS_InitLED(XMC_LEDTS_t *const ledts, const XMC_LEDTS_LED_CONFIG_t *config
 149:C:/Files/Projects/Git/XMCLib/src\xmc_ledts.c **** {
  86              	 .loc 1 149 0
  87              	 .cfi_startproc
  88              	 
  89              	 
  90              	 
  91              	.LVL5:
 150:C:/Files/Projects/Git/XMCLib/src\xmc_ledts.c ****   XMC_ASSERT("XMC_LEDTS_LED_Init:Wrong Module Pointer", XMC_LEDTS_CHECK_KERNEL_PTR(ledts));
 151:C:/Files/Projects/Git/XMCLib/src\xmc_ledts.c ****   XMC_ASSERT("XMC_LEDTS_LED_Init:Null Pointer", (config != (XMC_LEDTS_LED_CONFIG_t *)NULL));
 152:C:/Files/Projects/Git/XMCLib/src\xmc_ledts.c **** 
 153:C:/Files/Projects/Git/XMCLib/src\xmc_ledts.c ****   if((ledts->GLOBCTL & LEDTS_GLOBCTL_CLK_PS_Msk) != XMC_LEDTS_CLOCK_NOT_RUNNING)
  92              	 .loc 1 153 0
  93 0000 4368     	 ldr r3,[r0,#4]
  94 0002 1B0C     	 lsrs r3,r3,#16
  95 0004 1B04     	 lsls r3,r3,#16
  96 0006 6BB9     	 cbnz r3,.L10
 154:C:/Files/Projects/Git/XMCLib/src\xmc_ledts.c ****   {
 155:C:/Files/Projects/Git/XMCLib/src\xmc_ledts.c ****     return XMC_LEDTS_STATUS_RUNNING;
 156:C:/Files/Projects/Git/XMCLib/src\xmc_ledts.c ****   }
 157:C:/Files/Projects/Git/XMCLib/src\xmc_ledts.c **** 
 158:C:/Files/Projects/Git/XMCLib/src\xmc_ledts.c ****   ledts->FNCTL &= ~(LEDTS_FNCTL_COLLEV_Msk | LEDTS_FNCTL_NR_LEDCOL_Msk);
  97              	 .loc 1 158 0
  98 0008 8368     	 ldr r3,[r0,#8]
  99 000a 23F07043 	 bic r3,r3,#-268435456
 100 000e 8360     	 str r3,[r0,#8]
 159:C:/Files/Projects/Git/XMCLib/src\xmc_ledts.c ****   ledts->FNCTL |= (config->fnctl);
 101              	 .loc 1 159 0
 102 0010 8268     	 ldr r2,[r0,#8]
 103 0012 0B68     	 ldr r3,[r1]
 104 0014 1343     	 orrs r3,r3,r2
 105 0016 8360     	 str r3,[r0,#8]
 160:C:/Files/Projects/Git/XMCLib/src\xmc_ledts.c **** 
 161:C:/Files/Projects/Git/XMCLib/src\xmc_ledts.c ****   /* Enable LED function */
 162:C:/Files/Projects/Git/XMCLib/src\xmc_ledts.c ****   ledts->GLOBCTL |= LEDTS_GLOBCTL_LD_EN_Msk;
 106              	 .loc 1 162 0
 107 0018 4368     	 ldr r3,[r0,#4]
 108 001a 43F00203 	 orr r3,r3,#2
 109 001e 4360     	 str r3,[r0,#4]
 163:C:/Files/Projects/Git/XMCLib/src\xmc_ledts.c **** 
 164:C:/Files/Projects/Git/XMCLib/src\xmc_ledts.c ****   return XMC_LEDTS_STATUS_SUCCESS;
 110              	 .loc 1 164 0
 111 0020 0020     	 movs r0,#0
 112              	.LVL6:
 113 0022 7047     	 bx lr
 114              	.LVL7:
 115              	.L10:
 155:C:/Files/Projects/Git/XMCLib/src\xmc_ledts.c ****   }
 116              	 .loc 1 155 0
 117 0024 0120     	 movs r0,#1
 118              	.LVL8:
 165:C:/Files/Projects/Git/XMCLib/src\xmc_ledts.c **** }
 119              	 .loc 1 165 0
 120 0026 7047     	 bx lr
 121              	 .cfi_endproc
 122              	.LFE178:
 124              	 .section .text.XMC_LEDTS_InitTSBasic,"ax",%progbits
 125              	 .align 2
 126              	 .global XMC_LEDTS_InitTSBasic
 127              	 .thumb
 128              	 .thumb_func
 130              	XMC_LEDTS_InitTSBasic:
 131              	.LFB179:
 166:C:/Files/Projects/Git/XMCLib/src\xmc_ledts.c **** 
 167:C:/Files/Projects/Git/XMCLib/src\xmc_ledts.c **** /**
 168:C:/Files/Projects/Git/XMCLib/src\xmc_ledts.c ****   * Initialization of registers for basic Touch-Sense control function
 169:C:/Files/Projects/Git/XMCLib/src\xmc_ledts.c ****   */
 170:C:/Files/Projects/Git/XMCLib/src\xmc_ledts.c **** XMC_LEDTS_STATUS_t XMC_LEDTS_InitTSBasic(XMC_LEDTS_t *const ledts, const XMC_LEDTS_TS_CONFIG_BASIC_
 171:C:/Files/Projects/Git/XMCLib/src\xmc_ledts.c **** {
 132              	 .loc 1 171 0
 133              	 .cfi_startproc
 134              	 
 135              	 
 136              	 
 137              	.LVL9:
 172:C:/Files/Projects/Git/XMCLib/src\xmc_ledts.c ****   uint32_t reg;
 173:C:/Files/Projects/Git/XMCLib/src\xmc_ledts.c **** 
 174:C:/Files/Projects/Git/XMCLib/src\xmc_ledts.c ****   XMC_ASSERT("XMC_LEDTS_TS_Basic_Init:Wrong Module Pointer", XMC_LEDTS_CHECK_KERNEL_PTR(ledts));
 175:C:/Files/Projects/Git/XMCLib/src\xmc_ledts.c ****   XMC_ASSERT("XMC_LEDTS_TS_Basic_Init:Null Pointer", (config != (XMC_LEDTS_TS_CONFIG_BASIC_t *)NULL
 176:C:/Files/Projects/Git/XMCLib/src\xmc_ledts.c **** 
 177:C:/Files/Projects/Git/XMCLib/src\xmc_ledts.c ****   if((ledts->GLOBCTL & LEDTS_GLOBCTL_CLK_PS_Msk) != XMC_LEDTS_CLOCK_NOT_RUNNING)
 138              	 .loc 1 177 0
 139 0000 4368     	 ldr r3,[r0,#4]
 140 0002 1B0C     	 lsrs r3,r3,#16
 141 0004 1B04     	 lsls r3,r3,#16
 142 0006 7BB9     	 cbnz r3,.L13
 143              	.LVL10:
 178:C:/Files/Projects/Git/XMCLib/src\xmc_ledts.c ****   {
 179:C:/Files/Projects/Git/XMCLib/src\xmc_ledts.c ****     return XMC_LEDTS_STATUS_RUNNING;
 180:C:/Files/Projects/Git/XMCLib/src\xmc_ledts.c ****   }
 181:C:/Files/Projects/Git/XMCLib/src\xmc_ledts.c **** 
 182:C:/Files/Projects/Git/XMCLib/src\xmc_ledts.c ****   reg = ~(LEDTS_FNCTL_ACCCNT_Msk | LEDTS_FNCTL_TSCCMP_Msk | LEDTS_FNCTL_TSCTRR_Msk | LEDTS_FNCTL_TS
 183:C:/Files/Projects/Git/XMCLib/src\xmc_ledts.c **** 		 LEDTS_FNCTL_NR_TSIN_Msk);
 184:C:/Files/Projects/Git/XMCLib/src\xmc_ledts.c ****   ledts->FNCTL &= (reg);
 144              	 .loc 1 184 0
 145 0008 8368     	 ldr r3,[r0,#8]
 146 000a 23F07963 	 bic r3,r3,#261095424
 147 000e 23F47023 	 bic r3,r3,#983040
 148 0012 8360     	 str r3,[r0,#8]
 185:C:/Files/Projects/Git/XMCLib/src\xmc_ledts.c ****   ledts->FNCTL |= (config->fnctl);
 149              	 .loc 1 185 0
 150 0014 8268     	 ldr r2,[r0,#8]
 151 0016 0B68     	 ldr r3,[r1]
 152 0018 1343     	 orrs r3,r3,r2
 153 001a 8360     	 str r3,[r0,#8]
 186:C:/Files/Projects/Git/XMCLib/src\xmc_ledts.c **** 
 187:C:/Files/Projects/Git/XMCLib/src\xmc_ledts.c ****   /* Enable TS function */
 188:C:/Files/Projects/Git/XMCLib/src\xmc_ledts.c ****   ledts->GLOBCTL |= LEDTS_GLOBCTL_TS_EN_Msk;
 154              	 .loc 1 188 0
 155 001c 4368     	 ldr r3,[r0,#4]
 156 001e 43F00103 	 orr r3,r3,#1
 157 0022 4360     	 str r3,[r0,#4]
 189:C:/Files/Projects/Git/XMCLib/src\xmc_ledts.c **** 
 190:C:/Files/Projects/Git/XMCLib/src\xmc_ledts.c ****   return XMC_LEDTS_STATUS_SUCCESS;
 158              	 .loc 1 190 0
 159 0024 0020     	 movs r0,#0
 160              	.LVL11:
 161 0026 7047     	 bx lr
 162              	.LVL12:
 163              	.L13:
 179:C:/Files/Projects/Git/XMCLib/src\xmc_ledts.c ****   }
 164              	 .loc 1 179 0
 165 0028 0120     	 movs r0,#1
 166              	.LVL13:
 191:C:/Files/Projects/Git/XMCLib/src\xmc_ledts.c **** }
 167              	 .loc 1 191 0
 168 002a 7047     	 bx lr
 169              	 .cfi_endproc
 170              	.LFE179:
 172              	 .section .text.XMC_LEDTS_InitTSAdvanced,"ax",%progbits
 173              	 .align 2
 174              	 .global XMC_LEDTS_InitTSAdvanced
 175              	 .thumb
 176              	 .thumb_func
 178              	XMC_LEDTS_InitTSAdvanced:
 179              	.LFB180:
 192:C:/Files/Projects/Git/XMCLib/src\xmc_ledts.c **** 
 193:C:/Files/Projects/Git/XMCLib/src\xmc_ledts.c **** /**
 194:C:/Files/Projects/Git/XMCLib/src\xmc_ledts.c ****   * Initialization of registers for advanced Touch-Sense control function
 195:C:/Files/Projects/Git/XMCLib/src\xmc_ledts.c ****   */
 196:C:/Files/Projects/Git/XMCLib/src\xmc_ledts.c **** XMC_LEDTS_STATUS_t XMC_LEDTS_InitTSAdvanced (XMC_LEDTS_t *const ledts, const XMC_LEDTS_TS_CONFIG_AD
 197:C:/Files/Projects/Git/XMCLib/src\xmc_ledts.c **** {
 180              	 .loc 1 197 0
 181              	 .cfi_startproc
 182              	 
 183              	 
 184              	 
 185              	.LVL14:
 198:C:/Files/Projects/Git/XMCLib/src\xmc_ledts.c ****   uint32_t reg;
 199:C:/Files/Projects/Git/XMCLib/src\xmc_ledts.c **** 
 200:C:/Files/Projects/Git/XMCLib/src\xmc_ledts.c ****   XMC_ASSERT("XMC_LEDTS_TS_Advanced_Init:Wrong Module Pointer", XMC_LEDTS_CHECK_KERNEL_PTR(ledts));
 201:C:/Files/Projects/Git/XMCLib/src\xmc_ledts.c ****   XMC_ASSERT("XMC_LEDTS_TS_Advanced_Init:Null Pointer", (config != (XMC_LEDTS_TS_CONFIG_ADVANCED_t 
 202:C:/Files/Projects/Git/XMCLib/src\xmc_ledts.c **** 
 203:C:/Files/Projects/Git/XMCLib/src\xmc_ledts.c ****   if((ledts->GLOBCTL & LEDTS_GLOBCTL_CLK_PS_Msk) != XMC_LEDTS_CLOCK_NOT_RUNNING)
 186              	 .loc 1 203 0
 187 0000 4368     	 ldr r3,[r0,#4]
 188 0002 1B0C     	 lsrs r3,r3,#16
 189 0004 1B04     	 lsls r3,r3,#16
 190 0006 9BB9     	 cbnz r3,.L16
 191              	.LVL15:
 204:C:/Files/Projects/Git/XMCLib/src\xmc_ledts.c ****   {
 205:C:/Files/Projects/Git/XMCLib/src\xmc_ledts.c ****     return XMC_LEDTS_STATUS_RUNNING;
 206:C:/Files/Projects/Git/XMCLib/src\xmc_ledts.c ****   }
 207:C:/Files/Projects/Git/XMCLib/src\xmc_ledts.c **** 
 208:C:/Files/Projects/Git/XMCLib/src\xmc_ledts.c ****   reg = ~(LEDTS_GLOBCTL_MASKVAL_Msk | LEDTS_GLOBCTL_FENVAL_Msk);
 209:C:/Files/Projects/Git/XMCLib/src\xmc_ledts.c ****   ledts->GLOBCTL &= (reg);
 192              	 .loc 1 209 0
 193 0008 4368     	 ldr r3,[r0,#4]
 194 000a 23F4F053 	 bic r3,r3,#7680
 195 000e 4360     	 str r3,[r0,#4]
 210:C:/Files/Projects/Git/XMCLib/src\xmc_ledts.c ****   ledts->GLOBCTL |= (config->globctl);
 196              	 .loc 1 210 0
 197 0010 4268     	 ldr r2,[r0,#4]
 198 0012 0B68     	 ldr r3,[r1]
 199 0014 1343     	 orrs r3,r3,r2
 200 0016 4360     	 str r3,[r0,#4]
 201              	.LVL16:
 211:C:/Files/Projects/Git/XMCLib/src\xmc_ledts.c **** 
 212:C:/Files/Projects/Git/XMCLib/src\xmc_ledts.c ****   reg = ~(LEDTS_FNCTL_PADT_Msk | LEDTS_FNCTL_PADTSW_Msk | LEDTS_FNCTL_EPULL_Msk | LEDTS_FNCTL_TSOEX
 213:C:/Files/Projects/Git/XMCLib/src\xmc_ledts.c ****   ledts->FNCTL &= (reg);
 202              	 .loc 1 213 0
 203 0018 8368     	 ldr r3,[r0,#8]
 204 001a 23F4C003 	 bic r3,r3,#6291456
 205 001e 23F01F03 	 bic r3,r3,#31
 206 0022 8360     	 str r3,[r0,#8]
 214:C:/Files/Projects/Git/XMCLib/src\xmc_ledts.c ****   ledts->FNCTL |= (config->fnctl);
 207              	 .loc 1 214 0
 208 0024 8268     	 ldr r2,[r0,#8]
 209 0026 4B68     	 ldr r3,[r1,#4]
 210 0028 1343     	 orrs r3,r3,r2
 211 002a 8360     	 str r3,[r0,#8]
 215:C:/Files/Projects/Git/XMCLib/src\xmc_ledts.c **** 
 216:C:/Files/Projects/Git/XMCLib/src\xmc_ledts.c ****   return XMC_LEDTS_STATUS_SUCCESS;
 212              	 .loc 1 216 0
 213 002c 0020     	 movs r0,#0
 214              	.LVL17:
 215 002e 7047     	 bx lr
 216              	.LVL18:
 217              	.L16:
 205:C:/Files/Projects/Git/XMCLib/src\xmc_ledts.c ****   }
 218              	 .loc 1 205 0
 219 0030 0120     	 movs r0,#1
 220              	.LVL19:
 217:C:/Files/Projects/Git/XMCLib/src\xmc_ledts.c **** }
 221              	 .loc 1 217 0
 222 0032 7047     	 bx lr
 223              	 .cfi_endproc
 224              	.LFE180:
 226              	 .section .text.XMC_LEDTS_StartCounter,"ax",%progbits
 227              	 .align 2
 228              	 .global XMC_LEDTS_StartCounter
 229              	 .thumb
 230              	 .thumb_func
 232              	XMC_LEDTS_StartCounter:
 233              	.LFB181:
 218:C:/Files/Projects/Git/XMCLib/src\xmc_ledts.c **** 
 219:C:/Files/Projects/Git/XMCLib/src\xmc_ledts.c **** /**
 220:C:/Files/Projects/Git/XMCLib/src\xmc_ledts.c ****   * Starts LEDTS-counter
 221:C:/Files/Projects/Git/XMCLib/src\xmc_ledts.c ****   */
 222:C:/Files/Projects/Git/XMCLib/src\xmc_ledts.c **** void XMC_LEDTS_StartCounter(XMC_LEDTS_t *const ledts, const uint16_t prescaler)
 223:C:/Files/Projects/Git/XMCLib/src\xmc_ledts.c **** {
 234              	 .loc 1 223 0
 235              	 .cfi_startproc
 236              	 
 237              	 
 238              	 
 239              	.LVL20:
 224:C:/Files/Projects/Git/XMCLib/src\xmc_ledts.c ****   XMC_ASSERT("XMC_LEDTS_Start_Counter:Wrong Module Pointer", XMC_LEDTS_CHECK_KERNEL_PTR(ledts));
 225:C:/Files/Projects/Git/XMCLib/src\xmc_ledts.c **** 
 226:C:/Files/Projects/Git/XMCLib/src\xmc_ledts.c ****   ledts->GLOBCTL |= prescaler<<16U;
 240              	 .loc 1 226 0
 241 0000 4368     	 ldr r3,[r0,#4]
 242 0002 43EA0141 	 orr r1,r3,r1,lsl#16
 243              	.LVL21:
 244 0006 4160     	 str r1,[r0,#4]
 245 0008 7047     	 bx lr
 246              	 .cfi_endproc
 247              	.LFE181:
 249 000a 00BF     	 .section .text.XMC_LEDTS_StopCounter,"ax",%progbits
 250              	 .align 2
 251              	 .global XMC_LEDTS_StopCounter
 252              	 .thumb
 253              	 .thumb_func
 255              	XMC_LEDTS_StopCounter:
 256              	.LFB182:
 227:C:/Files/Projects/Git/XMCLib/src\xmc_ledts.c **** }
 228:C:/Files/Projects/Git/XMCLib/src\xmc_ledts.c **** 
 229:C:/Files/Projects/Git/XMCLib/src\xmc_ledts.c **** /**
 230:C:/Files/Projects/Git/XMCLib/src\xmc_ledts.c ****   * Stops LEDTS-counter
 231:C:/Files/Projects/Git/XMCLib/src\xmc_ledts.c ****   */
 232:C:/Files/Projects/Git/XMCLib/src\xmc_ledts.c **** void XMC_LEDTS_StopCounter(XMC_LEDTS_t *const ledts)
 233:C:/Files/Projects/Git/XMCLib/src\xmc_ledts.c **** {
 257              	 .loc 1 233 0
 258              	 .cfi_startproc
 259              	 
 260              	 
 261              	 
 262              	.LVL22:
 234:C:/Files/Projects/Git/XMCLib/src\xmc_ledts.c ****   XMC_ASSERT("XMC_LEDTS_Stop_Counter:Wrong Module Pointer", XMC_LEDTS_CHECK_KERNEL_PTR(ledts));
 235:C:/Files/Projects/Git/XMCLib/src\xmc_ledts.c **** 
 236:C:/Files/Projects/Git/XMCLib/src\xmc_ledts.c ****   ledts->GLOBCTL &= 0x0000FFFF;
 263              	 .loc 1 236 0
 264 0000 4368     	 ldr r3,[r0,#4]
 265 0002 9BB2     	 uxth r3,r3
 266 0004 4360     	 str r3,[r0,#4]
 267 0006 7047     	 bx lr
 268              	 .cfi_endproc
 269              	.LFE182:
 271              	 .section .text.XMC_LEDTS_ReadInterruptFlag,"ax",%progbits
 272              	 .align 2
 273              	 .global XMC_LEDTS_ReadInterruptFlag
 274              	 .thumb
 275              	 .thumb_func
 277              	XMC_LEDTS_ReadInterruptFlag:
 278              	.LFB183:
 237:C:/Files/Projects/Git/XMCLib/src\xmc_ledts.c **** }
 238:C:/Files/Projects/Git/XMCLib/src\xmc_ledts.c **** 
 239:C:/Files/Projects/Git/XMCLib/src\xmc_ledts.c **** /**
 240:C:/Files/Projects/Git/XMCLib/src\xmc_ledts.c ****   * Reads time interrupt flags
 241:C:/Files/Projects/Git/XMCLib/src\xmc_ledts.c ****   */
 242:C:/Files/Projects/Git/XMCLib/src\xmc_ledts.c **** uint32_t XMC_LEDTS_ReadInterruptFlag(XMC_LEDTS_t *const ledts)
 243:C:/Files/Projects/Git/XMCLib/src\xmc_ledts.c **** {
 279              	 .loc 1 243 0
 280              	 .cfi_startproc
 281              	 
 282              	 
 283              	 
 284              	.LVL23:
 244:C:/Files/Projects/Git/XMCLib/src\xmc_ledts.c ****   XMC_ASSERT("XMC_LEDTS_ReadInterruptFlag:Wrong Module Pointer", XMC_LEDTS_CHECK_KERNEL_PTR(ledts))
 245:C:/Files/Projects/Git/XMCLib/src\xmc_ledts.c **** 
 246:C:/Files/Projects/Git/XMCLib/src\xmc_ledts.c ****   return (ledts->EVFR & 0xF);
 285              	 .loc 1 246 0
 286 0000 C068     	 ldr r0,[r0,#12]
 287              	.LVL24:
 247:C:/Files/Projects/Git/XMCLib/src\xmc_ledts.c **** }
 288              	 .loc 1 247 0
 289 0002 00F00F00 	 and r0,r0,#15
 290 0006 7047     	 bx lr
 291              	 .cfi_endproc
 292              	.LFE183:
 294              	 .section .text.XMC_LEDTS_SetActivePADNo,"ax",%progbits
 295              	 .align 2
 296              	 .global XMC_LEDTS_SetActivePADNo
 297              	 .thumb
 298              	 .thumb_func
 300              	XMC_LEDTS_SetActivePADNo:
 301              	.LFB184:
 248:C:/Files/Projects/Git/XMCLib/src\xmc_ledts.c **** 
 249:C:/Files/Projects/Git/XMCLib/src\xmc_ledts.c **** /**
 250:C:/Files/Projects/Git/XMCLib/src\xmc_ledts.c ****   * Set the active pad number
 251:C:/Files/Projects/Git/XMCLib/src\xmc_ledts.c ****   */
 252:C:/Files/Projects/Git/XMCLib/src\xmc_ledts.c **** void XMC_LEDTS_SetActivePADNo(XMC_LEDTS_t *const ledts, XMC_LEDTS_NUMBER_TS_INPUT_t pad_num)
 253:C:/Files/Projects/Git/XMCLib/src\xmc_ledts.c **** {
 302              	 .loc 1 253 0
 303              	 .cfi_startproc
 304              	 
 305              	 
 306              	 
 307              	.LVL25:
 254:C:/Files/Projects/Git/XMCLib/src\xmc_ledts.c ****   uint32_t reg;
 255:C:/Files/Projects/Git/XMCLib/src\xmc_ledts.c **** 
 256:C:/Files/Projects/Git/XMCLib/src\xmc_ledts.c ****   XMC_ASSERT("XMC_LEDTS_SetActivePADNo:Wrong Module Pointer", XMC_LEDTS_CHECK_KERNEL_PTR(ledts));
 257:C:/Files/Projects/Git/XMCLib/src\xmc_ledts.c **** 
 258:C:/Files/Projects/Git/XMCLib/src\xmc_ledts.c ****   reg = ledts->FNCTL;
 308              	 .loc 1 258 0
 309 0000 8368     	 ldr r3,[r0,#8]
 310              	.LVL26:
 259:C:/Files/Projects/Git/XMCLib/src\xmc_ledts.c ****   reg &= ~(LEDTS_FNCTL_PADT_Msk);
 311              	 .loc 1 259 0
 312 0002 23F00703 	 bic r3,r3,#7
 313              	.LVL27:
 260:C:/Files/Projects/Git/XMCLib/src\xmc_ledts.c ****   reg |= (uint32_t)pad_num;
 314              	 .loc 1 260 0
 315 0006 1943     	 orrs r1,r1,r3
 316              	.LVL28:
 261:C:/Files/Projects/Git/XMCLib/src\xmc_ledts.c ****   ledts->FNCTL = reg;
 317              	 .loc 1 261 0
 318 0008 8160     	 str r1,[r0,#8]
 319 000a 7047     	 bx lr
 320              	 .cfi_endproc
 321              	.LFE184:
 323              	 .section .text.XMC_LEDTS_ClearInterruptFlag,"ax",%progbits
 324              	 .align 2
 325              	 .global XMC_LEDTS_ClearInterruptFlag
 326              	 .thumb
 327              	 .thumb_func
 329              	XMC_LEDTS_ClearInterruptFlag:
 330              	.LFB185:
 262:C:/Files/Projects/Git/XMCLib/src\xmc_ledts.c **** }
 263:C:/Files/Projects/Git/XMCLib/src\xmc_ledts.c **** 
 264:C:/Files/Projects/Git/XMCLib/src\xmc_ledts.c **** /**
 265:C:/Files/Projects/Git/XMCLib/src\xmc_ledts.c ****   * Clears interrupt indication flags
 266:C:/Files/Projects/Git/XMCLib/src\xmc_ledts.c ****   */
 267:C:/Files/Projects/Git/XMCLib/src\xmc_ledts.c **** void XMC_LEDTS_ClearInterruptFlag(XMC_LEDTS_t *const ledts, uint32_t interrupt_mask)
 268:C:/Files/Projects/Git/XMCLib/src\xmc_ledts.c **** {
 331              	 .loc 1 268 0
 332              	 .cfi_startproc
 333              	 
 334              	 
 335              	 
 336              	.LVL29:
 269:C:/Files/Projects/Git/XMCLib/src\xmc_ledts.c ****   XMC_ASSERT("XMC_LEDTS_ClearInterruptFlag:Wrong Module Pointer", XMC_LEDTS_CHECK_KERNEL_PTR(ledts)
 270:C:/Files/Projects/Git/XMCLib/src\xmc_ledts.c **** 
 271:C:/Files/Projects/Git/XMCLib/src\xmc_ledts.c ****   ledts->EVFR = (interrupt_mask << LEDTS_EVFR_CTSF_Pos);
 337              	 .loc 1 271 0
 338 0000 0904     	 lsls r1,r1,#16
 339              	.LVL30:
 340 0002 C160     	 str r1,[r0,#12]
 341 0004 7047     	 bx lr
 342              	 .cfi_endproc
 343              	.LFE185:
 345 0006 00BF     	 .section .text.XMC_LEDTS_SetLEDLinePattern,"ax",%progbits
 346              	 .align 2
 347              	 .global XMC_LEDTS_SetLEDLinePattern
 348              	 .thumb
 349              	 .thumb_func
 351              	XMC_LEDTS_SetLEDLinePattern:
 352              	.LFB186:
 272:C:/Files/Projects/Git/XMCLib/src\xmc_ledts.c **** }
 273:C:/Files/Projects/Git/XMCLib/src\xmc_ledts.c **** 
 274:C:/Files/Projects/Git/XMCLib/src\xmc_ledts.c **** /**
 275:C:/Files/Projects/Git/XMCLib/src\xmc_ledts.c ****   * Programming of registers to output pattern on an LED column in LED matrix
 276:C:/Files/Projects/Git/XMCLib/src\xmc_ledts.c ****   */
 277:C:/Files/Projects/Git/XMCLib/src\xmc_ledts.c **** void XMC_LEDTS_SetLEDLinePattern(XMC_LEDTS_t *const ledts, XMC_LEDTS_LED_COLUMN_t column, const uin
 278:C:/Files/Projects/Git/XMCLib/src\xmc_ledts.c **** {
 353              	 .loc 1 278 0
 354              	 .cfi_startproc
 355              	 
 356              	 
 357              	 
 358              	.LVL31:
 359 0000 10B4     	 push {r4}
 360              	.LCFI1:
 361              	 .cfi_def_cfa_offset 4
 362              	 .cfi_offset 4,-4
 363              	.LVL32:
 364 0002 01F0FC03 	 and r3,r1,#252
 365 0006 1844     	 add r0,r0,r3
 366              	.LVL33:
 279:C:/Files/Projects/Git/XMCLib/src\xmc_ledts.c ****   uint32_t reg;
 280:C:/Files/Projects/Git/XMCLib/src\xmc_ledts.c ****   uint8_t reg_index = ((uint8_t)column) >> 2;
 281:C:/Files/Projects/Git/XMCLib/src\xmc_ledts.c ****   uint8_t bit_shift_count = ((uint8_t)column & 0x03) * 8;
 282:C:/Files/Projects/Git/XMCLib/src\xmc_ledts.c **** 
 283:C:/Files/Projects/Git/XMCLib/src\xmc_ledts.c ****   XMC_ASSERT("XMC_LEDTS_Set_LED_Line_Pattern:Wrong Module Pointer", XMC_LEDTS_CHECK_KERNEL_PTR(ledt
 284:C:/Files/Projects/Git/XMCLib/src\xmc_ledts.c **** 
 285:C:/Files/Projects/Git/XMCLib/src\xmc_ledts.c ****   reg = ledts->LINE[reg_index];
 367              	 .loc 1 285 0
 368 0008 4469     	 ldr r4,[r0,#20]
 369              	.LVL34:
 281:C:/Files/Projects/Git/XMCLib/src\xmc_ledts.c **** 
 370              	 .loc 1 281 0
 371 000a 01F00301 	 and r1,r1,#3
 372              	.LVL35:
 286:C:/Files/Projects/Git/XMCLib/src\xmc_ledts.c ****   reg &= (~(0xff << bit_shift_count));
 373              	 .loc 1 286 0
 374 000e C900     	 lsls r1,r1,#3
 375 0010 FF23     	 movs r3,#255
 376 0012 8B40     	 lsls r3,r3,r1
 377 0014 24EA0303 	 bic r3,r4,r3
 378              	.LVL36:
 287:C:/Files/Projects/Git/XMCLib/src\xmc_ledts.c ****   reg |= pattern << bit_shift_count;
 379              	 .loc 1 287 0
 380 0018 8A40     	 lsls r2,r2,r1
 381              	.LVL37:
 382 001a 1A43     	 orrs r2,r2,r3
 383              	.LVL38:
 288:C:/Files/Projects/Git/XMCLib/src\xmc_ledts.c ****   ledts->LINE[reg_index] = reg;
 384              	 .loc 1 288 0
 385 001c 4261     	 str r2,[r0,#20]
 289:C:/Files/Projects/Git/XMCLib/src\xmc_ledts.c **** 
 290:C:/Files/Projects/Git/XMCLib/src\xmc_ledts.c **** }
 386              	 .loc 1 290 0
 387 001e 5DF8044B 	 ldr r4,[sp],#4
 388              	.LCFI2:
 389              	 .cfi_restore 4
 390              	 .cfi_def_cfa_offset 0
 391 0022 7047     	 bx lr
 392              	 .cfi_endproc
 393              	.LFE186:
 395              	 .section .text.XMC_LEDTS_SetColumnBrightness,"ax",%progbits
 396              	 .align 2
 397              	 .global XMC_LEDTS_SetColumnBrightness
 398              	 .thumb
 399              	 .thumb_func
 401              	XMC_LEDTS_SetColumnBrightness:
 402              	.LFB187:
 291:C:/Files/Projects/Git/XMCLib/src\xmc_ledts.c **** 
 292:C:/Files/Projects/Git/XMCLib/src\xmc_ledts.c **** /**
 293:C:/Files/Projects/Git/XMCLib/src\xmc_ledts.c ****   * Programming of registers to adjust brightness of an LED column in LED matrix
 294:C:/Files/Projects/Git/XMCLib/src\xmc_ledts.c ****   */
 295:C:/Files/Projects/Git/XMCLib/src\xmc_ledts.c **** void XMC_LEDTS_SetColumnBrightness(XMC_LEDTS_t *const ledts, XMC_LEDTS_LED_COLUMN_t column, const u
 296:C:/Files/Projects/Git/XMCLib/src\xmc_ledts.c **** {
 403              	 .loc 1 296 0
 404              	 .cfi_startproc
 405              	 
 406              	 
 407              	 
 408              	.LVL39:
 409 0000 10B4     	 push {r4}
 410              	.LCFI3:
 411              	 .cfi_def_cfa_offset 4
 412              	 .cfi_offset 4,-4
 413              	.LVL40:
 414 0002 01F0FC03 	 and r3,r1,#252
 415 0006 1844     	 add r0,r0,r3
 416              	.LVL41:
 297:C:/Files/Projects/Git/XMCLib/src\xmc_ledts.c ****   uint32_t reg;
 298:C:/Files/Projects/Git/XMCLib/src\xmc_ledts.c ****   uint8_t reg_index = ((uint8_t)column) >> 2;
 299:C:/Files/Projects/Git/XMCLib/src\xmc_ledts.c ****   uint8_t bit_shift_count = ((uint8_t)column & 0x03) * 8;
 300:C:/Files/Projects/Git/XMCLib/src\xmc_ledts.c **** 
 301:C:/Files/Projects/Git/XMCLib/src\xmc_ledts.c ****   XMC_ASSERT("XMC_LEDTS_Set_Column_Brightness:Wrong Module Pointer", XMC_LEDTS_CHECK_KERNEL_PTR(led
 302:C:/Files/Projects/Git/XMCLib/src\xmc_ledts.c **** 
 303:C:/Files/Projects/Git/XMCLib/src\xmc_ledts.c **** 	reg = ledts->LDCMP[reg_index];
 417              	 .loc 1 303 0
 418 0008 C469     	 ldr r4,[r0,#28]
 419              	.LVL42:
 299:C:/Files/Projects/Git/XMCLib/src\xmc_ledts.c **** 
 420              	 .loc 1 299 0
 421 000a 01F00301 	 and r1,r1,#3
 422              	.LVL43:
 304:C:/Files/Projects/Git/XMCLib/src\xmc_ledts.c **** 	reg &= (~(0xff << bit_shift_count));
 423              	 .loc 1 304 0
 424 000e C900     	 lsls r1,r1,#3
 425 0010 FF23     	 movs r3,#255
 426 0012 8B40     	 lsls r3,r3,r1
 427 0014 24EA0303 	 bic r3,r4,r3
 428              	.LVL44:
 305:C:/Files/Projects/Git/XMCLib/src\xmc_ledts.c **** 	reg |= brightness << bit_shift_count;
 429              	 .loc 1 305 0
 430 0018 8A40     	 lsls r2,r2,r1
 431              	.LVL45:
 432 001a 1A43     	 orrs r2,r2,r3
 433              	.LVL46:
 306:C:/Files/Projects/Git/XMCLib/src\xmc_ledts.c **** 	ledts->LDCMP[reg_index] = reg;
 434              	 .loc 1 306 0
 435 001c C261     	 str r2,[r0,#28]
 307:C:/Files/Projects/Git/XMCLib/src\xmc_ledts.c **** }
 436              	 .loc 1 307 0
 437 001e 5DF8044B 	 ldr r4,[sp],#4
 438              	.LCFI4:
 439              	 .cfi_restore 4
 440              	 .cfi_def_cfa_offset 0
 441 0022 7047     	 bx lr
 442              	 .cfi_endproc
 443              	.LFE187:
 445              	 .section .text.XMC_LEDTS_SetCommonOscillationWindow,"ax",%progbits
 446              	 .align 2
 447              	 .global XMC_LEDTS_SetCommonOscillationWindow
 448              	 .thumb
 449              	 .thumb_func
 451              	XMC_LEDTS_SetCommonOscillationWindow:
 452              	.LFB188:
 308:C:/Files/Projects/Git/XMCLib/src\xmc_ledts.c **** 
 309:C:/Files/Projects/Git/XMCLib/src\xmc_ledts.c **** /**
 310:C:/Files/Projects/Git/XMCLib/src\xmc_ledts.c ****   * Programming of registers to set common oscillation window size for touch-sense inputs
 311:C:/Files/Projects/Git/XMCLib/src\xmc_ledts.c ****   */
 312:C:/Files/Projects/Git/XMCLib/src\xmc_ledts.c **** void XMC_LEDTS_SetCommonOscillationWindow(XMC_LEDTS_t *const ledts, const uint8_t common_size)
 313:C:/Files/Projects/Git/XMCLib/src\xmc_ledts.c **** {
 453              	 .loc 1 313 0
 454              	 .cfi_startproc
 455              	 
 456              	 
 457              	 
 458              	.LVL47:
 314:C:/Files/Projects/Git/XMCLib/src\xmc_ledts.c ****   uint32_t reg;
 315:C:/Files/Projects/Git/XMCLib/src\xmc_ledts.c **** 
 316:C:/Files/Projects/Git/XMCLib/src\xmc_ledts.c ****   XMC_ASSERT("XMC_LEDTS_Set_Common_Oscillation_Window:Wrong Module Pointer", XMC_LEDTS_CHECK_KERNEL
 317:C:/Files/Projects/Git/XMCLib/src\xmc_ledts.c **** 
 318:C:/Files/Projects/Git/XMCLib/src\xmc_ledts.c ****   reg = ledts->LDCMP[1];
 459              	 .loc 1 318 0
 460 0000 036A     	 ldr r3,[r0,#32]
 461              	.LVL48:
 319:C:/Files/Projects/Git/XMCLib/src\xmc_ledts.c ****   reg &= ~LEDTS_LDCMP1_CMP_LDA_TSCOM_Msk;
 462              	 .loc 1 319 0
 463 0002 23F07F43 	 bic r3,r3,#-16777216
 464              	.LVL49:
 320:C:/Files/Projects/Git/XMCLib/src\xmc_ledts.c ****   reg |= (common_size << LEDTS_LDCMP1_CMP_LDA_TSCOM_Pos);
 465              	 .loc 1 320 0
 466 0006 43EA0161 	 orr r1,r3,r1,lsl#24
 467              	.LVL50:
 321:C:/Files/Projects/Git/XMCLib/src\xmc_ledts.c ****   ledts->LDCMP[1] = reg;
 468              	 .loc 1 321 0
 469 000a 0162     	 str r1,[r0,#32]
 470 000c 7047     	 bx lr
 471              	 .cfi_endproc
 472              	.LFE188:
 474 000e 00BF     	 .section .text.XMC_LEDTS_ReadFNCOL,"ax",%progbits
 475              	 .align 2
 476              	 .global XMC_LEDTS_ReadFNCOL
 477              	 .thumb
 478              	 .thumb_func
 480              	XMC_LEDTS_ReadFNCOL:
 481              	.LFB189:
 322:C:/Files/Projects/Git/XMCLib/src\xmc_ledts.c **** }
 323:C:/Files/Projects/Git/XMCLib/src\xmc_ledts.c **** 
 324:C:/Files/Projects/Git/XMCLib/src\xmc_ledts.c **** /**
 325:C:/Files/Projects/Git/XMCLib/src\xmc_ledts.c ****   * Checking the previous active function or LED column status
 326:C:/Files/Projects/Git/XMCLib/src\xmc_ledts.c ****   */
 327:C:/Files/Projects/Git/XMCLib/src\xmc_ledts.c **** uint32_t XMC_LEDTS_ReadFNCOL(XMC_LEDTS_t *const ledts)
 328:C:/Files/Projects/Git/XMCLib/src\xmc_ledts.c **** {
 482              	 .loc 1 328 0
 483              	 .cfi_startproc
 484              	 
 485              	 
 486              	 
 487              	.LVL51:
 329:C:/Files/Projects/Git/XMCLib/src\xmc_ledts.c ****   uint32_t fncol_read;
 330:C:/Files/Projects/Git/XMCLib/src\xmc_ledts.c **** 
 331:C:/Files/Projects/Git/XMCLib/src\xmc_ledts.c ****   XMC_ASSERT("XMC_LEDTS_Read_FNCOL:Wrong Module Pointer", XMC_LEDTS_CHECK_KERNEL_PTR(ledts));
 332:C:/Files/Projects/Git/XMCLib/src\xmc_ledts.c **** 
 333:C:/Files/Projects/Git/XMCLib/src\xmc_ledts.c ****   fncol_read = ledts->FNCTL & LEDTS_FNCTL_FNCOL_Msk;
 488              	 .loc 1 333 0
 489 0000 8068     	 ldr r0,[r0,#8]
 490              	.LVL52:
 334:C:/Files/Projects/Git/XMCLib/src\xmc_ledts.c ****   fncol_read >>= LEDTS_FNCTL_FNCOL_Pos;
 335:C:/Files/Projects/Git/XMCLib/src\xmc_ledts.c **** 
 336:C:/Files/Projects/Git/XMCLib/src\xmc_ledts.c ****   return fncol_read;
 337:C:/Files/Projects/Git/XMCLib/src\xmc_ledts.c **** }
 491              	 .loc 1 337 0
 492 0002 C0F34210 	 ubfx r0,r0,#5,#3
 493              	.LVL53:
 494 0006 7047     	 bx lr
 495              	 .cfi_endproc
 496              	.LFE189:
 498              	 .section .text.XMC_LEDTS_SetNumOfLEDColumns,"ax",%progbits
 499              	 .align 2
 500              	 .global XMC_LEDTS_SetNumOfLEDColumns
 501              	 .thumb
 502              	 .thumb_func
 504              	XMC_LEDTS_SetNumOfLEDColumns:
 505              	.LFB190:
 338:C:/Files/Projects/Git/XMCLib/src\xmc_ledts.c **** 
 339:C:/Files/Projects/Git/XMCLib/src\xmc_ledts.c **** /**
 340:C:/Files/Projects/Git/XMCLib/src\xmc_ledts.c ****   * Set the number of LED column Enabled
 341:C:/Files/Projects/Git/XMCLib/src\xmc_ledts.c ****   */
 342:C:/Files/Projects/Git/XMCLib/src\xmc_ledts.c **** void XMC_LEDTS_SetNumOfLEDColumns(XMC_LEDTS_t *const ledts, uint8_t count)
 343:C:/Files/Projects/Git/XMCLib/src\xmc_ledts.c **** {
 506              	 .loc 1 343 0
 507              	 .cfi_startproc
 508              	 
 509              	 
 510              	 
 511              	.LVL54:
 344:C:/Files/Projects/Git/XMCLib/src\xmc_ledts.c **** 
 345:C:/Files/Projects/Git/XMCLib/src\xmc_ledts.c ****   XMC_ASSERT("XMC_LEDTS_SetNumOfLEDColumns:Wrong Module Pointer", XMC_LEDTS_CHECK_KERNEL_PTR(ledts)
 346:C:/Files/Projects/Git/XMCLib/src\xmc_ledts.c **** 
 347:C:/Files/Projects/Git/XMCLib/src\xmc_ledts.c ****   ledts->FNCTL &= ~(LEDTS_FNCTL_NR_LEDCOL_Msk);
 512              	 .loc 1 347 0
 513 0000 8368     	 ldr r3,[r0,#8]
 514 0002 23F06043 	 bic r3,r3,#-536870912
 515 0006 8360     	 str r3,[r0,#8]
 348:C:/Files/Projects/Git/XMCLib/src\xmc_ledts.c ****   ledts->FNCTL |= (count << LEDTS_FNCTL_NR_LEDCOL_Pos);
 516              	 .loc 1 348 0
 517 0008 8368     	 ldr r3,[r0,#8]
 518 000a 43EA4171 	 orr r1,r3,r1,lsl#29
 519              	.LVL55:
 520 000e 8160     	 str r1,[r0,#8]
 521 0010 7047     	 bx lr
 522              	 .cfi_endproc
 523              	.LFE190:
 525 0012 00BF     	 .section .text.XMC_LEDTS_ReadTSVAL,"ax",%progbits
 526              	 .align 2
 527              	 .global XMC_LEDTS_ReadTSVAL
 528              	 .thumb
 529              	 .thumb_func
 531              	XMC_LEDTS_ReadTSVAL:
 532              	.LFB191:
 349:C:/Files/Projects/Git/XMCLib/src\xmc_ledts.c **** }
 350:C:/Files/Projects/Git/XMCLib/src\xmc_ledts.c **** 
 351:C:/Files/Projects/Git/XMCLib/src\xmc_ledts.c **** /**
 352:C:/Files/Projects/Git/XMCLib/src\xmc_ledts.c ****   * Reading recorded number of oscillation counts
 353:C:/Files/Projects/Git/XMCLib/src\xmc_ledts.c ****   */
 354:C:/Files/Projects/Git/XMCLib/src\xmc_ledts.c **** uint16_t XMC_LEDTS_ReadTSVAL(XMC_LEDTS_t *const ledts)
 355:C:/Files/Projects/Git/XMCLib/src\xmc_ledts.c **** {
 533              	 .loc 1 355 0
 534              	 .cfi_startproc
 535              	 
 536              	 
 537              	 
 538              	.LVL56:
 356:C:/Files/Projects/Git/XMCLib/src\xmc_ledts.c ****   uint16_t no_of_oscillations;
 357:C:/Files/Projects/Git/XMCLib/src\xmc_ledts.c **** 
 358:C:/Files/Projects/Git/XMCLib/src\xmc_ledts.c ****   XMC_ASSERT("XMC_LEDTS_Read_TSVAL:Wrong Module Pointer", XMC_LEDTS_CHECK_KERNEL_PTR(ledts));
 359:C:/Files/Projects/Git/XMCLib/src\xmc_ledts.c **** 
 360:C:/Files/Projects/Git/XMCLib/src\xmc_ledts.c ****   no_of_oscillations = (ledts->TSVAL & 0xFFFF);
 539              	 .loc 1 360 0
 540 0000 0069     	 ldr r0,[r0,#16]
 541              	.LVL57:
 361:C:/Files/Projects/Git/XMCLib/src\xmc_ledts.c **** 
 362:C:/Files/Projects/Git/XMCLib/src\xmc_ledts.c ****   return no_of_oscillations;
 363:C:/Files/Projects/Git/XMCLib/src\xmc_ledts.c **** }
 542              	 .loc 1 363 0
 543 0002 80B2     	 uxth r0,r0
 544 0004 7047     	 bx lr
 545              	 .cfi_endproc
 546              	.LFE191:
 548 0006 00BF     	 .section .text.XMC_LEDTS_SetOscillationWindow,"ax",%progbits
 549              	 .align 2
 550              	 .global XMC_LEDTS_SetOscillationWindow
 551              	 .thumb
 552              	 .thumb_func
 554              	XMC_LEDTS_SetOscillationWindow:
 555              	.LFB192:
 364:C:/Files/Projects/Git/XMCLib/src\xmc_ledts.c **** 
 365:C:/Files/Projects/Git/XMCLib/src\xmc_ledts.c **** /**
 366:C:/Files/Projects/Git/XMCLib/src\xmc_ledts.c ****   * Programming of registers to adjust the size of oscillation window
 367:C:/Files/Projects/Git/XMCLib/src\xmc_ledts.c ****   */
 368:C:/Files/Projects/Git/XMCLib/src\xmc_ledts.c **** void XMC_LEDTS_SetOscillationWindow(XMC_LEDTS_t *const ledts, XMC_LEDTS_NUMBER_TS_INPUT_t touchpad,
 369:C:/Files/Projects/Git/XMCLib/src\xmc_ledts.c **** {
 556              	 .loc 1 369 0
 557              	 .cfi_startproc
 558              	 
 559              	 
 560              	 
 561              	.LVL58:
 562 0000 10B4     	 push {r4}
 563              	.LCFI5:
 564              	 .cfi_def_cfa_offset 4
 565              	 .cfi_offset 4,-4
 566              	.LVL59:
 567 0002 01F0FC03 	 and r3,r1,#252
 568 0006 1844     	 add r0,r0,r3
 569              	.LVL60:
 370:C:/Files/Projects/Git/XMCLib/src\xmc_ledts.c ****   uint32_t reg;
 371:C:/Files/Projects/Git/XMCLib/src\xmc_ledts.c ****   uint8_t reg_index = ((uint8_t)touchpad) >> 2;
 372:C:/Files/Projects/Git/XMCLib/src\xmc_ledts.c ****   uint8_t bit_shift_count = ((uint8_t)touchpad & 0x03) * 8;
 373:C:/Files/Projects/Git/XMCLib/src\xmc_ledts.c **** 
 374:C:/Files/Projects/Git/XMCLib/src\xmc_ledts.c ****   XMC_ASSERT("XMC_LEDTS_Set_Oscillation_Window:Wrong Module Pointer", XMC_LEDTS_CHECK_KERNEL_PTR(le
 375:C:/Files/Projects/Git/XMCLib/src\xmc_ledts.c **** 
 376:C:/Files/Projects/Git/XMCLib/src\xmc_ledts.c **** 	reg = ledts->TSCMP[reg_index];
 570              	 .loc 1 376 0
 571 0008 446A     	 ldr r4,[r0,#36]
 572              	.LVL61:
 372:C:/Files/Projects/Git/XMCLib/src\xmc_ledts.c **** 
 573              	 .loc 1 372 0
 574 000a 01F00301 	 and r1,r1,#3
 575              	.LVL62:
 377:C:/Files/Projects/Git/XMCLib/src\xmc_ledts.c **** 	reg &= (~(0xff << bit_shift_count));
 576              	 .loc 1 377 0
 577 000e C900     	 lsls r1,r1,#3
 578 0010 FF23     	 movs r3,#255
 579 0012 8B40     	 lsls r3,r3,r1
 580 0014 24EA0303 	 bic r3,r4,r3
 581              	.LVL63:
 378:C:/Files/Projects/Git/XMCLib/src\xmc_ledts.c **** 	reg |= size << bit_shift_count;
 582              	 .loc 1 378 0
 583 0018 8A40     	 lsls r2,r2,r1
 584              	.LVL64:
 585 001a 1A43     	 orrs r2,r2,r3
 586              	.LVL65:
 379:C:/Files/Projects/Git/XMCLib/src\xmc_ledts.c **** 	ledts->TSCMP[reg_index] = reg;
 587              	 .loc 1 379 0
 588 001c 4262     	 str r2,[r0,#36]
 380:C:/Files/Projects/Git/XMCLib/src\xmc_ledts.c **** }
 589              	 .loc 1 380 0
 590 001e 5DF8044B 	 ldr r4,[sp],#4
 591              	.LCFI6:
 592              	 .cfi_restore 4
 593              	 .cfi_def_cfa_offset 0
 594 0022 7047     	 bx lr
 595              	 .cfi_endproc
 596              	.LFE192:
 598              	 .text
 599              	.Letext0:
 600              	 .file 2 "c:\\dave\\dave-ide-4.4.2-64bit\\eclipse\\arm-gcc-49\\arm-none-eabi\\include\\machine\\_default_types.h"
 601              	 .file 3 "c:\\dave\\dave-ide-4.4.2-64bit\\eclipse\\arm-gcc-49\\arm-none-eabi\\include\\stdint.h"
 602              	 .file 4 "C:/Files/Projects/Git/CMSIS/Infineon/XMC4500_series/Include/XMC4500.h"
 603              	 .file 5 "C:/Files/Projects/Git/XMCLib/inc/xmc4_scu.h"
 604              	 .file 6 "C:/Files/Projects/Git/XMCLib/inc/xmc_ledts.h"
 605              	 .file 7 "C:/Files/Projects/Git/CMSIS/Include/cmsis_gcc.h"
 606              	 .file 8 "C:/Files/Projects/Git/CMSIS/Include/core_cm4.h"
 607              	 .file 9 "C:/Files/Projects/Git/CMSIS/Infineon/XMC4500_series/Include/system_XMC4500.h"