   1              	 .syntax unified
   2              	 .cpu cortex-m4
   3              	 .eabi_attribute 27,3
   4              	 .fpu fpv4-sp-d16
   5              	 .eabi_attribute 20,1
   6              	 .eabi_attribute 21,1
   7              	 .eabi_attribute 23,3
   8              	 .eabi_attribute 24,1
   9              	 .eabi_attribute 25,1
  10              	 .eabi_attribute 26,1
  11              	 .eabi_attribute 30,1
  12              	 .eabi_attribute 34,1
  13              	 .eabi_attribute 18,4
  14              	 .thumb
  15              	 .file "xmc_eth_mac.c"
  16              	 .text
  17              	.Ltext0:
  18              	 .cfi_sections .debug_frame
  19              	 .section .text.XMC_ETH_MAC_InitRxDescriptors,"ax",%progbits
  20              	 .align 2
  21              	 .global XMC_ETH_MAC_InitRxDescriptors
  22              	 .thumb
  23              	 .thumb_func
  25              	XMC_ETH_MAC_InitRxDescriptors:
  26              	.LFB235:
  27              	 .file 1 "C:/Files/Projects/Git/XMCLib/src/xmc_eth_mac.c"
   1:C:/Files/Projects/Git/XMCLib/src\xmc_eth_mac.c **** 
   2:C:/Files/Projects/Git/XMCLib/src\xmc_eth_mac.c **** /**
   3:C:/Files/Projects/Git/XMCLib/src\xmc_eth_mac.c ****  * @file xmc_eth_mac.c
   4:C:/Files/Projects/Git/XMCLib/src\xmc_eth_mac.c ****  * @date 2018-08-08
   5:C:/Files/Projects/Git/XMCLib/src\xmc_eth_mac.c ****  *
   6:C:/Files/Projects/Git/XMCLib/src\xmc_eth_mac.c ****  * @cond
   7:C:/Files/Projects/Git/XMCLib/src\xmc_eth_mac.c ****  **************************************************************************************************
   8:C:/Files/Projects/Git/XMCLib/src\xmc_eth_mac.c ****  * XMClib v2.1.24 - XMC Peripheral Driver Library
   9:C:/Files/Projects/Git/XMCLib/src\xmc_eth_mac.c ****  *
  10:C:/Files/Projects/Git/XMCLib/src\xmc_eth_mac.c ****  * Copyright (c) 2015-2019, Infineon Technologies AG
  11:C:/Files/Projects/Git/XMCLib/src\xmc_eth_mac.c ****  * All rights reserved.                        
  12:C:/Files/Projects/Git/XMCLib/src\xmc_eth_mac.c ****  *                                             
  13:C:/Files/Projects/Git/XMCLib/src\xmc_eth_mac.c ****  * Redistribution and use in source and binary forms, with or without modification,are permitted pr
  14:C:/Files/Projects/Git/XMCLib/src\xmc_eth_mac.c ****  * following conditions are met:   
  15:C:/Files/Projects/Git/XMCLib/src\xmc_eth_mac.c ****  *                                                                              
  16:C:/Files/Projects/Git/XMCLib/src\xmc_eth_mac.c ****  * Redistributions of source code must retain the above copyright notice, this list of conditions a
  17:C:/Files/Projects/Git/XMCLib/src\xmc_eth_mac.c ****  * disclaimer.                        
  18:C:/Files/Projects/Git/XMCLib/src\xmc_eth_mac.c ****  * 
  19:C:/Files/Projects/Git/XMCLib/src\xmc_eth_mac.c ****  * Redistributions in binary form must reproduce the above copyright notice, this list of condition
  20:C:/Files/Projects/Git/XMCLib/src\xmc_eth_mac.c ****  * disclaimer in the documentation and/or other materials provided with the distribution.
  21:C:/Files/Projects/Git/XMCLib/src\xmc_eth_mac.c ****  * 
  22:C:/Files/Projects/Git/XMCLib/src\xmc_eth_mac.c ****  * Neither the name of the copyright holders nor the names of its contributors may be used to endor
  23:C:/Files/Projects/Git/XMCLib/src\xmc_eth_mac.c ****  * products derived from this software without specific prior written permission.                  
  24:C:/Files/Projects/Git/XMCLib/src\xmc_eth_mac.c ****  *                                                                              
  25:C:/Files/Projects/Git/XMCLib/src\xmc_eth_mac.c ****  * THIS SOFTWARE IS PROVIDED BY THE COPYRIGHT HOLDERS AND CONTRIBUTORS "AS IS" AND ANY EXPRESS OR I
  26:C:/Files/Projects/Git/XMCLib/src\xmc_eth_mac.c ****  * INCLUDING, BUT NOT LIMITED TO, THE IMPLIED WARRANTIES OF MERCHANTABILITY AND FITNESS FOR A PARTI
  27:C:/Files/Projects/Git/XMCLib/src\xmc_eth_mac.c ****  * DISCLAIMED. IN NO EVENT SHALL THE COPYRIGHT HOLDER OR CONTRIBUTORS BE LIABLE  FOR ANY DIRECT, IN
  28:C:/Files/Projects/Git/XMCLib/src\xmc_eth_mac.c ****  * SPECIAL, EXEMPLARY, OR CONSEQUENTIAL DAMAGES (INCLUDING, BUT NOT LIMITED TO, PROCUREMENT OF SUBS
  29:C:/Files/Projects/Git/XMCLib/src\xmc_eth_mac.c ****  * SERVICES; LOSS OF USE, DATA, OR PROFITS; OR BUSINESS INTERRUPTION) HOWEVER CAUSED AND ON ANY THE
  30:C:/Files/Projects/Git/XMCLib/src\xmc_eth_mac.c ****  * WHETHER IN CONTRACT, STRICT LIABILITY,OR TORT (INCLUDING NEGLIGENCE OR OTHERWISE) ARISING IN ANY
  31:C:/Files/Projects/Git/XMCLib/src\xmc_eth_mac.c ****  * OF THIS SOFTWARE, EVEN IF ADVISED OF THE POSSIBILITY OF SUCH DAMAGE.                            
  32:C:/Files/Projects/Git/XMCLib/src\xmc_eth_mac.c ****  *                                                                              
  33:C:/Files/Projects/Git/XMCLib/src\xmc_eth_mac.c ****  * To improve the quality of the software, users are encouraged to share modifications, enhancement
  34:C:/Files/Projects/Git/XMCLib/src\xmc_eth_mac.c ****  * Infineon Technologies AG dave@infineon.com).                                                    
  35:C:/Files/Projects/Git/XMCLib/src\xmc_eth_mac.c ****  **************************************************************************************************
  36:C:/Files/Projects/Git/XMCLib/src\xmc_eth_mac.c ****  *
  37:C:/Files/Projects/Git/XMCLib/src\xmc_eth_mac.c ****  * Change History
  38:C:/Files/Projects/Git/XMCLib/src\xmc_eth_mac.c ****  * --------------
  39:C:/Files/Projects/Git/XMCLib/src\xmc_eth_mac.c ****  *
  40:C:/Files/Projects/Git/XMCLib/src\xmc_eth_mac.c ****  * 2015-06-20:
  41:C:/Files/Projects/Git/XMCLib/src\xmc_eth_mac.c ****  *     - Initial
  42:C:/Files/Projects/Git/XMCLib/src\xmc_eth_mac.c ****  *
  43:C:/Files/Projects/Git/XMCLib/src\xmc_eth_mac.c ****  * 2015-09-01:
  44:C:/Files/Projects/Git/XMCLib/src\xmc_eth_mac.c ****  *     - Add clock gating control in enable/disable APIs
  45:C:/Files/Projects/Git/XMCLib/src\xmc_eth_mac.c ****  *     - Add transmit polling if run out of buffers
  46:C:/Files/Projects/Git/XMCLib/src\xmc_eth_mac.c ****  *
  47:C:/Files/Projects/Git/XMCLib/src\xmc_eth_mac.c ****  * 2015-11-30:
  48:C:/Files/Projects/Git/XMCLib/src\xmc_eth_mac.c ****  *     - Fix XMC_ETH_MAC_GetRxFrameSize return value in case of errors
  49:C:/Files/Projects/Git/XMCLib/src\xmc_eth_mac.c ****  *
  50:C:/Files/Projects/Git/XMCLib/src\xmc_eth_mac.c ****  * 2016-03-16:
  51:C:/Files/Projects/Git/XMCLib/src\xmc_eth_mac.c ****  *     - Fix XMC_ETH_MAC_DisableEvent
  52:C:/Files/Projects/Git/XMCLib/src\xmc_eth_mac.c ****  *
  53:C:/Files/Projects/Git/XMCLib/src\xmc_eth_mac.c ****  * 2016-05-19:
  54:C:/Files/Projects/Git/XMCLib/src\xmc_eth_mac.c ****  *     - Changed XMC_ETH_MAC_ReturnTxDescriptor and XMC_ETH_MAC_ReturnRxDescriptor
  55:C:/Files/Projects/Git/XMCLib/src\xmc_eth_mac.c ****  *
  56:C:/Files/Projects/Git/XMCLib/src\xmc_eth_mac.c ****  * 2016-08-30:
  57:C:/Files/Projects/Git/XMCLib/src\xmc_eth_mac.c ****  *     - Changed XMC_ETH_MAC_Init() to disable MMC interrupt events
  58:C:/Files/Projects/Git/XMCLib/src\xmc_eth_mac.c ****  *
  59:C:/Files/Projects/Git/XMCLib/src\xmc_eth_mac.c ****  * 2016-11-22:
  60:C:/Files/Projects/Git/XMCLib/src\xmc_eth_mac.c ****  *     - Changed XMC_ETH_MAC_Init() to optimize access to bus
  61:C:/Files/Projects/Git/XMCLib/src\xmc_eth_mac.c ****  *
  62:C:/Files/Projects/Git/XMCLib/src\xmc_eth_mac.c ****  * 2017-02-25:
  63:C:/Files/Projects/Git/XMCLib/src\xmc_eth_mac.c ****  *     - XMC_ETH_MAC_Enable() and XMC_ETH_MAC_Disable(), fixed compilation warnings
  64:C:/Files/Projects/Git/XMCLib/src\xmc_eth_mac.c ****  *
  65:C:/Files/Projects/Git/XMCLib/src\xmc_eth_mac.c ****  * 2017-03-27:
  66:C:/Files/Projects/Git/XMCLib/src\xmc_eth_mac.c ****  *     - Changed XMC_ETH_MAC_Init() to disable PMT and timestamp interrupt events
  67:C:/Files/Projects/Git/XMCLib/src\xmc_eth_mac.c ****  *
  68:C:/Files/Projects/Git/XMCLib/src\xmc_eth_mac.c ****  * 2017-04-02:
  69:C:/Files/Projects/Git/XMCLib/src\xmc_eth_mac.c ****  *     - Added XMC_ETH_MAC_InitPTPEx()
  70:C:/Files/Projects/Git/XMCLib/src\xmc_eth_mac.c ****  *     - Added XMC_ETH_MAC_SetPTPTime()
  71:C:/Files/Projects/Git/XMCLib/src\xmc_eth_mac.c ****  *     - Added XMC_ETH_MAC_UpdateAddend() 
  72:C:/Files/Projects/Git/XMCLib/src\xmc_eth_mac.c ****  *     - Fixed XMC_ETH_MAC_InitPTP(), XMC_ETH_MAC_UpdatePTPTime(), XMC_ETH_MAC_SetPTPAlarm()
  73:C:/Files/Projects/Git/XMCLib/src\xmc_eth_mac.c ****  *       - nanoseconds initializazion
  74:C:/Files/Projects/Git/XMCLib/src\xmc_eth_mac.c ****  *       - added polling to wait for setup
  75:C:/Files/Projects/Git/XMCLib/src\xmc_eth_mac.c ****  *
  76:C:/Files/Projects/Git/XMCLib/src\xmc_eth_mac.c ****  * 2017-04-04:
  77:C:/Files/Projects/Git/XMCLib/src\xmc_eth_mac.c ****  *     - Changed XMC_ETH_MAC_Init() to disable MMC IPC receive interrupt events
  78:C:/Files/Projects/Git/XMCLib/src\xmc_eth_mac.c ****  *
  79:C:/Files/Projects/Git/XMCLib/src\xmc_eth_mac.c ****  * 2017-04-11:
  80:C:/Files/Projects/Git/XMCLib/src\xmc_eth_mac.c ****  *     - Fixed XMC_ETH_MAC_SetPTPAlarm() nanoseconds conversion
  81:C:/Files/Projects/Git/XMCLib/src\xmc_eth_mac.c ****  *
  82:C:/Files/Projects/Git/XMCLib/src\xmc_eth_mac.c ****  * 2017-04-17:
  83:C:/Files/Projects/Git/XMCLib/src\xmc_eth_mac.c ****  *     - Changed XMC_ETH_MAC_GetTxTimeStamp() and XMC_ETH_MAC_GetRxTimeStamp() return the timestamp
  84:C:/Files/Projects/Git/XMCLib/src\xmc_eth_mac.c ****  *
  85:C:/Files/Projects/Git/XMCLib/src\xmc_eth_mac.c ****  * 2017-04-27:
  86:C:/Files/Projects/Git/XMCLib/src\xmc_eth_mac.c ****  *     - Fixed XMC_ETH_MAC_GetRxTimeStamp() and XMC_ETH_MAC_GetTxTimeStamp() fixed returned nanosec
  87:C:/Files/Projects/Git/XMCLib/src\xmc_eth_mac.c ****  *
  88:C:/Files/Projects/Git/XMCLib/src\xmc_eth_mac.c ****  * 2017-08-03:
  89:C:/Files/Projects/Git/XMCLib/src\xmc_eth_mac.c ****  *     - Changed XMC_ETH_MAC_InitPTP(), XMC_ETH_MAC_InitPTPEx(), XMC_ETH_MAC_GetPTPTime(), XMC_ETH_
  90:C:/Files/Projects/Git/XMCLib/src\xmc_eth_mac.c ****  *       rollover mode of nanosecond counter from binary to digital mode, i.e 1ns resolution
  91:C:/Files/Projects/Git/XMCLib/src\xmc_eth_mac.c ****  *
  92:C:/Files/Projects/Git/XMCLib/src\xmc_eth_mac.c ****  * 2017-09-27:
  93:C:/Files/Projects/Git/XMCLib/src\xmc_eth_mac.c ****  *     - Added XMC_ETH_MAC_InitEx()
  94:C:/Files/Projects/Git/XMCLib/src\xmc_eth_mac.c ****  *     - XMC_ETH_MAC_SetAddressEx(), XMC_ETH_MAC_GetAddressEx() and XMC_ETH_MAC_SetAddressPerfectFi
  95:C:/Files/Projects/Git/XMCLib/src\xmc_eth_mac.c ****  *
  96:C:/Files/Projects/Git/XMCLib/src\xmc_eth_mac.c ****  * 2018-06-21:
  97:C:/Files/Projects/Git/XMCLib/src\xmc_eth_mac.c ****  *     - Fixed XMC_ETH_MAC_SetAddressPerfectFilterEx()
  98:C:/Files/Projects/Git/XMCLib/src\xmc_eth_mac.c ****  *
  99:C:/Files/Projects/Git/XMCLib/src\xmc_eth_mac.c ****  * 2018-08-08:
 100:C:/Files/Projects/Git/XMCLib/src\xmc_eth_mac.c ****  *      - Fixed XMC_ETH_MAC_SetVLANTag() which now accepts a 32bit tag parameter that allows settin
 101:C:/Files/Projects/Git/XMCLib/src\xmc_eth_mac.c ****  *
 102:C:/Files/Projects/Git/XMCLib/src\xmc_eth_mac.c ****  * @endcond
 103:C:/Files/Projects/Git/XMCLib/src\xmc_eth_mac.c ****  */
 104:C:/Files/Projects/Git/XMCLib/src\xmc_eth_mac.c **** 
 105:C:/Files/Projects/Git/XMCLib/src\xmc_eth_mac.c **** /*******************************************************************************
 106:C:/Files/Projects/Git/XMCLib/src\xmc_eth_mac.c ****  * HEADER FILES
 107:C:/Files/Projects/Git/XMCLib/src\xmc_eth_mac.c ****  *******************************************************************************/
 108:C:/Files/Projects/Git/XMCLib/src\xmc_eth_mac.c **** #include <xmc_eth_mac.h>
 109:C:/Files/Projects/Git/XMCLib/src\xmc_eth_mac.c **** 
 110:C:/Files/Projects/Git/XMCLib/src\xmc_eth_mac.c **** #if defined (ETH0)
 111:C:/Files/Projects/Git/XMCLib/src\xmc_eth_mac.c **** 
 112:C:/Files/Projects/Git/XMCLib/src\xmc_eth_mac.c **** #include <stdlib.h>
 113:C:/Files/Projects/Git/XMCLib/src\xmc_eth_mac.c **** #include <xmc_scu.h>
 114:C:/Files/Projects/Git/XMCLib/src\xmc_eth_mac.c **** 
 115:C:/Files/Projects/Git/XMCLib/src\xmc_eth_mac.c **** /*******************************************************************************
 116:C:/Files/Projects/Git/XMCLib/src\xmc_eth_mac.c ****  * MACROS
 117:C:/Files/Projects/Git/XMCLib/src\xmc_eth_mac.c ****  *******************************************************************************/
 118:C:/Files/Projects/Git/XMCLib/src\xmc_eth_mac.c **** 
 119:C:/Files/Projects/Git/XMCLib/src\xmc_eth_mac.c **** /**
 120:C:/Files/Projects/Git/XMCLib/src\xmc_eth_mac.c ****  * ETH MAC clock speed
 121:C:/Files/Projects/Git/XMCLib/src\xmc_eth_mac.c ****  */
 122:C:/Files/Projects/Git/XMCLib/src\xmc_eth_mac.c **** #define XMC_ETH_MAC_CLK_SPEED_35MHZ  (35000000U)  /**< ETH MAC clock speed 35 MHZ */
 123:C:/Files/Projects/Git/XMCLib/src\xmc_eth_mac.c **** #define XMC_ETH_MAC_CLK_SPEED_60MHZ  (60000000U)  /**< ETH MAC clock speed 60 MHZ */
 124:C:/Files/Projects/Git/XMCLib/src\xmc_eth_mac.c **** #define XMC_ETH_MAC_CLK_SPEED_100MHZ (100000000U) /**< ETH MAC clock speed 100 MHZ */
 125:C:/Files/Projects/Git/XMCLib/src\xmc_eth_mac.c **** #define XMC_ETH_MAC_CLK_SPEED_150MHZ (150000000U) /**< ETH MAC clock speed 150 MHZ */
 126:C:/Files/Projects/Git/XMCLib/src\xmc_eth_mac.c **** #define XMC_ETH_MAC_CLK_SPEED_200MHZ (200000000U) /**< ETH MAC clock speed 200 MHZ */
 127:C:/Files/Projects/Git/XMCLib/src\xmc_eth_mac.c **** #define XMC_ETH_MAC_CLK_SPEED_250MHZ (250000000U) /**< ETH MAC clock speed 250 MHZ */
 128:C:/Files/Projects/Git/XMCLib/src\xmc_eth_mac.c **** 
 129:C:/Files/Projects/Git/XMCLib/src\xmc_eth_mac.c **** /**
 130:C:/Files/Projects/Git/XMCLib/src\xmc_eth_mac.c ****  * ETH MAC MDC divider
 131:C:/Files/Projects/Git/XMCLib/src\xmc_eth_mac.c ****  */
 132:C:/Files/Projects/Git/XMCLib/src\xmc_eth_mac.c **** #define XMC_ETH_MAC_MDC_DIVIDER_16  (2U << ETH_GMII_ADDRESS_CR_Pos) /**< MDC clock: ETH clock/16 */
 133:C:/Files/Projects/Git/XMCLib/src\xmc_eth_mac.c **** #define XMC_ETH_MAC_MDC_DIVIDER_26  (3U << ETH_GMII_ADDRESS_CR_Pos) /**< MDC clock: ETH clock/26 */
 134:C:/Files/Projects/Git/XMCLib/src\xmc_eth_mac.c **** #define XMC_ETH_MAC_MDC_DIVIDER_42  (0U << ETH_GMII_ADDRESS_CR_Pos) /**< MDC clock: ETH clock/42 */
 135:C:/Files/Projects/Git/XMCLib/src\xmc_eth_mac.c **** #define XMC_ETH_MAC_MDC_DIVIDER_62  (1U << ETH_GMII_ADDRESS_CR_Pos) /**< MDC clock: ETH clock/62 */
 136:C:/Files/Projects/Git/XMCLib/src\xmc_eth_mac.c **** #define XMC_ETH_MAC_MDC_DIVIDER_102 (4U << ETH_GMII_ADDRESS_CR_Pos) /**< MDC clock: ETH clock/102 *
 137:C:/Files/Projects/Git/XMCLib/src\xmc_eth_mac.c **** #define XMC_ETH_MAC_MDC_DIVIDER_124 (5U << ETH_GMII_ADDRESS_CR_Pos) /**< MDC clock: ETH clock/124 *
 138:C:/Files/Projects/Git/XMCLib/src\xmc_eth_mac.c **** 
 139:C:/Files/Projects/Git/XMCLib/src\xmc_eth_mac.c **** 
 140:C:/Files/Projects/Git/XMCLib/src\xmc_eth_mac.c **** /**
 141:C:/Files/Projects/Git/XMCLib/src\xmc_eth_mac.c ****  * RDES1 Descriptor RX Packet Control
 142:C:/Files/Projects/Git/XMCLib/src\xmc_eth_mac.c ****  */
 143:C:/Files/Projects/Git/XMCLib/src\xmc_eth_mac.c **** #define ETH_MAC_DMA_RDES1_RBS2 (0x1FFF0000U) /**< Receive buffer 2 size */
 144:C:/Files/Projects/Git/XMCLib/src\xmc_eth_mac.c **** #define ETH_MAC_DMA_RDES1_RER  (0x00008000U) /**< Receive end of ring */
 145:C:/Files/Projects/Git/XMCLib/src\xmc_eth_mac.c **** #define ETH_MAC_DMA_RDES1_RCH  (0x00004000U) /**< Second address chained */
 146:C:/Files/Projects/Git/XMCLib/src\xmc_eth_mac.c **** #define ETH_MAC_DMA_RDES1_RBS1 (0x00001FFFU) /**< Receive buffer 1 size */
 147:C:/Files/Projects/Git/XMCLib/src\xmc_eth_mac.c **** 
 148:C:/Files/Projects/Git/XMCLib/src\xmc_eth_mac.c **** /**
 149:C:/Files/Projects/Git/XMCLib/src\xmc_eth_mac.c ****  * Interrupt masking
 150:C:/Files/Projects/Git/XMCLib/src\xmc_eth_mac.c ****  */
 151:C:/Files/Projects/Git/XMCLib/src\xmc_eth_mac.c **** #define ETH_MAC_DISABLE_MMC_INTERRUPT_MSK              (0x03ffffffU) /**< Bit mask to disable MMMC 
 152:C:/Files/Projects/Git/XMCLib/src\xmc_eth_mac.c **** #define ETH_MAC_DISABLE_MMC_IPC_RECEIVE_INTERRUPT_MSK  (0x3fff3fffU) /**< Bit mask to disable MMC I
 153:C:/Files/Projects/Git/XMCLib/src\xmc_eth_mac.c **** 
 154:C:/Files/Projects/Git/XMCLib/src\xmc_eth_mac.c **** /**
 155:C:/Files/Projects/Git/XMCLib/src\xmc_eth_mac.c ****  * Normal MAC events
 156:C:/Files/Projects/Git/XMCLib/src\xmc_eth_mac.c ****  */
 157:C:/Files/Projects/Git/XMCLib/src\xmc_eth_mac.c **** #define ETH_MAC_EVENT_NORMAL (XMC_ETH_MAC_EVENT_TRANSMIT |\
 158:C:/Files/Projects/Git/XMCLib/src\xmc_eth_mac.c ****                               XMC_ETH_MAC_EVENT_TRANSMIT_BUFFER_UNAVAILABLE |\
 159:C:/Files/Projects/Git/XMCLib/src\xmc_eth_mac.c ****                               XMC_ETH_MAC_EVENT_RECEIVE |\
 160:C:/Files/Projects/Git/XMCLib/src\xmc_eth_mac.c ****                               XMC_ETH_MAC_EVENT_EARLY_RECEIVE)
 161:C:/Files/Projects/Git/XMCLib/src\xmc_eth_mac.c **** 
 162:C:/Files/Projects/Git/XMCLib/src\xmc_eth_mac.c **** /**
 163:C:/Files/Projects/Git/XMCLib/src\xmc_eth_mac.c ****  * Abnormal MAC events
 164:C:/Files/Projects/Git/XMCLib/src\xmc_eth_mac.c ****  */
 165:C:/Files/Projects/Git/XMCLib/src\xmc_eth_mac.c **** #define ETH_MAC_EVENT_ABNORMAL (XMC_ETH_MAC_EVENT_TRANSMIT_PROCESS_STOPPED |\
 166:C:/Files/Projects/Git/XMCLib/src\xmc_eth_mac.c ****                                 XMC_ETH_MAC_EVENT_TRANSMIT_JABBER_TIMEOUT |\
 167:C:/Files/Projects/Git/XMCLib/src\xmc_eth_mac.c ****                                 XMC_ETH_MAC_EVENT_RECEIVE_OVERFLOW |\
 168:C:/Files/Projects/Git/XMCLib/src\xmc_eth_mac.c ****                                 XMC_ETH_MAC_EVENT_TRANSMIT_UNDERFLOW |\
 169:C:/Files/Projects/Git/XMCLib/src\xmc_eth_mac.c ****                                 XMC_ETH_MAC_EVENT_RECEIVE_BUFFER_UNAVAILABLE |\
 170:C:/Files/Projects/Git/XMCLib/src\xmc_eth_mac.c ****                                 XMC_ETH_MAC_EVENT_RECEIVE_PROCESS_STOPPED |\
 171:C:/Files/Projects/Git/XMCLib/src\xmc_eth_mac.c ****                                 XMC_ETH_MAC_EVENT_RECEIVE_WATCHDOG_TIMEOUT |\
 172:C:/Files/Projects/Git/XMCLib/src\xmc_eth_mac.c ****                                 XMC_ETH_MAC_EVENT_EARLY_TRANSMIT |\
 173:C:/Files/Projects/Git/XMCLib/src\xmc_eth_mac.c ****                                 XMC_ETH_MAC_EVENT_BUS_ERROR)
 174:C:/Files/Projects/Git/XMCLib/src\xmc_eth_mac.c **** 
 175:C:/Files/Projects/Git/XMCLib/src\xmc_eth_mac.c **** /* Definition needed in case of device header file previous to v1.5.1*/
 176:C:/Files/Projects/Git/XMCLib/src\xmc_eth_mac.c **** #ifndef ETH_BUS_MODE_ATDS_Msk
 177:C:/Files/Projects/Git/XMCLib/src\xmc_eth_mac.c **** #define ETH_BUS_MODE_ATDS_Msk  (0x00000080UL)
 178:C:/Files/Projects/Git/XMCLib/src\xmc_eth_mac.c **** #endif
 179:C:/Files/Projects/Git/XMCLib/src\xmc_eth_mac.c **** 
 180:C:/Files/Projects/Git/XMCLib/src\xmc_eth_mac.c **** /* Resolution of sub second counter ~ 20ns */
 181:C:/Files/Projects/Git/XMCLib/src\xmc_eth_mac.c **** #define XMC_ETH_SUB_SECOND_UPDATE_FREQ (50000000)
 182:C:/Files/Projects/Git/XMCLib/src\xmc_eth_mac.c **** 
 183:C:/Files/Projects/Git/XMCLib/src\xmc_eth_mac.c **** /*******************************************************************************
 184:C:/Files/Projects/Git/XMCLib/src\xmc_eth_mac.c ****  * API IMPLEMENTATION
 185:C:/Files/Projects/Git/XMCLib/src\xmc_eth_mac.c ****  *******************************************************************************/
 186:C:/Files/Projects/Git/XMCLib/src\xmc_eth_mac.c **** 
 187:C:/Files/Projects/Git/XMCLib/src\xmc_eth_mac.c **** /* Check if the event passed is a normal event */
 188:C:/Files/Projects/Git/XMCLib/src\xmc_eth_mac.c **** __STATIC_INLINE bool XCM_ETH_MAC_IsNormalEvent(uint32_t event)
 189:C:/Files/Projects/Git/XMCLib/src\xmc_eth_mac.c **** {
 190:C:/Files/Projects/Git/XMCLib/src\xmc_eth_mac.c ****   return (bool)((event & ((uint32_t)XMC_ETH_MAC_EVENT_TRANSMIT |
 191:C:/Files/Projects/Git/XMCLib/src\xmc_eth_mac.c ****                           (uint32_t)XMC_ETH_MAC_EVENT_TRANSMIT_BUFFER_UNAVAILABLE |
 192:C:/Files/Projects/Git/XMCLib/src\xmc_eth_mac.c ****                           (uint32_t)XMC_ETH_MAC_EVENT_RECEIVE |
 193:C:/Files/Projects/Git/XMCLib/src\xmc_eth_mac.c ****                           (uint32_t)XMC_ETH_MAC_EVENT_EARLY_RECEIVE)) != (uint32_t)0);
 194:C:/Files/Projects/Git/XMCLib/src\xmc_eth_mac.c **** }
 195:C:/Files/Projects/Git/XMCLib/src\xmc_eth_mac.c **** 
 196:C:/Files/Projects/Git/XMCLib/src\xmc_eth_mac.c **** /* Check if the event passed is an abnormal event */
 197:C:/Files/Projects/Git/XMCLib/src\xmc_eth_mac.c **** __STATIC_INLINE bool XCM_ETH_MAC_IsAbnormalEvent(uint32_t event)
 198:C:/Files/Projects/Git/XMCLib/src\xmc_eth_mac.c **** {
 199:C:/Files/Projects/Git/XMCLib/src\xmc_eth_mac.c ****    return (bool)((event & ((uint32_t)XMC_ETH_MAC_EVENT_TRANSMIT_PROCESS_STOPPED |
 200:C:/Files/Projects/Git/XMCLib/src\xmc_eth_mac.c ****                            (uint32_t)XMC_ETH_MAC_EVENT_TRANSMIT_JABBER_TIMEOUT |
 201:C:/Files/Projects/Git/XMCLib/src\xmc_eth_mac.c ****                            (uint32_t)XMC_ETH_MAC_EVENT_RECEIVE_OVERFLOW |
 202:C:/Files/Projects/Git/XMCLib/src\xmc_eth_mac.c ****                            (uint32_t)XMC_ETH_MAC_EVENT_TRANSMIT_UNDERFLOW |
 203:C:/Files/Projects/Git/XMCLib/src\xmc_eth_mac.c ****                            (uint32_t)XMC_ETH_MAC_EVENT_RECEIVE_BUFFER_UNAVAILABLE |
 204:C:/Files/Projects/Git/XMCLib/src\xmc_eth_mac.c ****                            (uint32_t)XMC_ETH_MAC_EVENT_RECEIVE_PROCESS_STOPPED |
 205:C:/Files/Projects/Git/XMCLib/src\xmc_eth_mac.c ****                            (uint32_t)XMC_ETH_MAC_EVENT_RECEIVE_WATCHDOG_TIMEOUT |
 206:C:/Files/Projects/Git/XMCLib/src\xmc_eth_mac.c ****                            (uint32_t)XMC_ETH_MAC_EVENT_EARLY_TRANSMIT |
 207:C:/Files/Projects/Git/XMCLib/src\xmc_eth_mac.c ****                            (uint32_t)XMC_ETH_MAC_EVENT_BUS_ERROR)) != (uint32_t)0);
 208:C:/Files/Projects/Git/XMCLib/src\xmc_eth_mac.c ****  }
 209:C:/Files/Projects/Git/XMCLib/src\xmc_eth_mac.c **** 
 210:C:/Files/Projects/Git/XMCLib/src\xmc_eth_mac.c **** #ifdef XMC_ASSERT_ENABLE 
 211:C:/Files/Projects/Git/XMCLib/src\xmc_eth_mac.c ****  
 212:C:/Files/Projects/Git/XMCLib/src\xmc_eth_mac.c **** /* Check if the passed argument is a valid ETH module */ 
 213:C:/Files/Projects/Git/XMCLib/src\xmc_eth_mac.c **** __STATIC_INLINE bool XMC_ETH_MAC_IsValidModule(ETH_GLOBAL_TypeDef *const eth)
 214:C:/Files/Projects/Git/XMCLib/src\xmc_eth_mac.c **** {
 215:C:/Files/Projects/Git/XMCLib/src\xmc_eth_mac.c ****   return (eth == ETH0);
 216:C:/Files/Projects/Git/XMCLib/src\xmc_eth_mac.c **** }
 217:C:/Files/Projects/Git/XMCLib/src\xmc_eth_mac.c **** 
 218:C:/Files/Projects/Git/XMCLib/src\xmc_eth_mac.c **** #endif
 219:C:/Files/Projects/Git/XMCLib/src\xmc_eth_mac.c **** 
 220:C:/Files/Projects/Git/XMCLib/src\xmc_eth_mac.c **** void XMC_ETH_MAC_InitEx(XMC_ETH_MAC_t *const eth_mac)
 221:C:/Files/Projects/Git/XMCLib/src\xmc_eth_mac.c **** {
 222:C:/Files/Projects/Git/XMCLib/src\xmc_eth_mac.c ****   XMC_ASSERT("XMC_ETH_MAC_InitEx: eth_mac is invalid", XMC_ETH_MAC_IsValidModule(eth_mac->regs));
 223:C:/Files/Projects/Git/XMCLib/src\xmc_eth_mac.c **** 
 224:C:/Files/Projects/Git/XMCLib/src\xmc_eth_mac.c ****   XMC_ETH_MAC_Reset(eth_mac);
 225:C:/Files/Projects/Git/XMCLib/src\xmc_eth_mac.c **** 
 226:C:/Files/Projects/Git/XMCLib/src\xmc_eth_mac.c ****   /* Initialize MAC configuration */
 227:C:/Files/Projects/Git/XMCLib/src\xmc_eth_mac.c ****   eth_mac->regs->MAC_CONFIGURATION = (uint32_t)ETH_MAC_CONFIGURATION_IPC_Msk;
 228:C:/Files/Projects/Git/XMCLib/src\xmc_eth_mac.c **** 
 229:C:/Files/Projects/Git/XMCLib/src\xmc_eth_mac.c ****   /* Initialize Filter registers */
 230:C:/Files/Projects/Git/XMCLib/src\xmc_eth_mac.c ****   eth_mac->regs->FLOW_CONTROL = ETH_FLOW_CONTROL_DZPQ_Msk; /* Disable Zero Quanta Pause */
 231:C:/Files/Projects/Git/XMCLib/src\xmc_eth_mac.c **** 
 232:C:/Files/Projects/Git/XMCLib/src\xmc_eth_mac.c ****   eth_mac->regs->OPERATION_MODE = (uint32_t)ETH_OPERATION_MODE_RSF_Msk |
 233:C:/Files/Projects/Git/XMCLib/src\xmc_eth_mac.c **** 	                              (uint32_t)ETH_OPERATION_MODE_TSF_Msk |
 234:C:/Files/Projects/Git/XMCLib/src\xmc_eth_mac.c **** 	                              (uint32_t)ETH_OPERATION_MODE_OSF_Msk;
 235:C:/Files/Projects/Git/XMCLib/src\xmc_eth_mac.c **** 
 236:C:/Files/Projects/Git/XMCLib/src\xmc_eth_mac.c ****   /* Increase enhanced descriptor to 8 WORDS, required when the Advanced Time-Stamp feature or Full
 237:C:/Files/Projects/Git/XMCLib/src\xmc_eth_mac.c ****   eth_mac->regs->BUS_MODE = (uint32_t)ETH_BUS_MODE_ATDS_Msk |
 238:C:/Files/Projects/Git/XMCLib/src\xmc_eth_mac.c **** 	                        (uint32_t)ETH_BUS_MODE_AAL_Msk | /* the AHB interface generates all bursts
 239:C:/Files/Projects/Git/XMCLib/src\xmc_eth_mac.c **** 	                        (uint32_t)ETH_BUS_MODE_FB_Msk | /* DMA attempts to execute fixed-length Bu
 240:C:/Files/Projects/Git/XMCLib/src\xmc_eth_mac.c **** 	                        (uint32_t)(0x20 << ETH_BUS_MODE_PBL_Pos); /* maximum Burst length */
 241:C:/Files/Projects/Git/XMCLib/src\xmc_eth_mac.c **** 
 242:C:/Files/Projects/Git/XMCLib/src\xmc_eth_mac.c ****   /* Initialize DMA Descriptors */
 243:C:/Files/Projects/Git/XMCLib/src\xmc_eth_mac.c ****   XMC_ETH_MAC_InitRxDescriptors(eth_mac);
 244:C:/Files/Projects/Git/XMCLib/src\xmc_eth_mac.c ****   XMC_ETH_MAC_InitTxDescriptors(eth_mac);
 245:C:/Files/Projects/Git/XMCLib/src\xmc_eth_mac.c **** 
 246:C:/Files/Projects/Git/XMCLib/src\xmc_eth_mac.c ****   /* Clear interrupts */
 247:C:/Files/Projects/Git/XMCLib/src\xmc_eth_mac.c ****   eth_mac->regs->STATUS = 0xFFFFFFFFUL;
 248:C:/Files/Projects/Git/XMCLib/src\xmc_eth_mac.c **** 
 249:C:/Files/Projects/Git/XMCLib/src\xmc_eth_mac.c ****   /* Disable MMC interrupt events */
 250:C:/Files/Projects/Git/XMCLib/src\xmc_eth_mac.c ****   eth_mac->regs->MMC_TRANSMIT_INTERRUPT_MASK = ETH_MAC_DISABLE_MMC_INTERRUPT_MSK;
 251:C:/Files/Projects/Git/XMCLib/src\xmc_eth_mac.c ****   eth_mac->regs->MMC_RECEIVE_INTERRUPT_MASK = ETH_MAC_DISABLE_MMC_INTERRUPT_MSK;
 252:C:/Files/Projects/Git/XMCLib/src\xmc_eth_mac.c ****   eth_mac->regs->MMC_IPC_RECEIVE_INTERRUPT_MASK = ETH_MAC_DISABLE_MMC_IPC_RECEIVE_INTERRUPT_MSK;
 253:C:/Files/Projects/Git/XMCLib/src\xmc_eth_mac.c **** 
 254:C:/Files/Projects/Git/XMCLib/src\xmc_eth_mac.c ****   /* Disable PMT and timestamp interrupt events */
 255:C:/Files/Projects/Git/XMCLib/src\xmc_eth_mac.c ****   eth_mac->regs->INTERRUPT_MASK = ETH_INTERRUPT_MASK_PMTIM_Msk | ETH_INTERRUPT_MASK_TSIM_Msk;
 256:C:/Files/Projects/Git/XMCLib/src\xmc_eth_mac.c **** 
 257:C:/Files/Projects/Git/XMCLib/src\xmc_eth_mac.c ****   eth_mac->frame_end = NULL;
 258:C:/Files/Projects/Git/XMCLib/src\xmc_eth_mac.c **** }
 259:C:/Files/Projects/Git/XMCLib/src\xmc_eth_mac.c **** 
 260:C:/Files/Projects/Git/XMCLib/src\xmc_eth_mac.c **** /* ETH MAC initialize */
 261:C:/Files/Projects/Git/XMCLib/src\xmc_eth_mac.c **** XMC_ETH_MAC_STATUS_t XMC_ETH_MAC_Init(XMC_ETH_MAC_t *const eth_mac)
 262:C:/Files/Projects/Git/XMCLib/src\xmc_eth_mac.c **** {
 263:C:/Files/Projects/Git/XMCLib/src\xmc_eth_mac.c ****   XMC_ETH_MAC_STATUS_t status;
 264:C:/Files/Projects/Git/XMCLib/src\xmc_eth_mac.c **** 
 265:C:/Files/Projects/Git/XMCLib/src\xmc_eth_mac.c ****   XMC_ASSERT("XMC_ETH_MAC_Init: eth_mac is invalid", XMC_ETH_MAC_IsValidModule(eth_mac->regs));
 266:C:/Files/Projects/Git/XMCLib/src\xmc_eth_mac.c **** 
 267:C:/Files/Projects/Git/XMCLib/src\xmc_eth_mac.c ****   XMC_ETH_MAC_Enable(eth_mac);
 268:C:/Files/Projects/Git/XMCLib/src\xmc_eth_mac.c ****   status = XMC_ETH_MAC_SetManagmentClockDivider(eth_mac);
 269:C:/Files/Projects/Git/XMCLib/src\xmc_eth_mac.c **** 
 270:C:/Files/Projects/Git/XMCLib/src\xmc_eth_mac.c ****   XMC_ETH_MAC_InitEx(eth_mac);
 271:C:/Files/Projects/Git/XMCLib/src\xmc_eth_mac.c **** 
 272:C:/Files/Projects/Git/XMCLib/src\xmc_eth_mac.c ****   XMC_ETH_MAC_SetAddress(eth_mac, eth_mac->address);
 273:C:/Files/Projects/Git/XMCLib/src\xmc_eth_mac.c **** 
 274:C:/Files/Projects/Git/XMCLib/src\xmc_eth_mac.c ****   return status;
 275:C:/Files/Projects/Git/XMCLib/src\xmc_eth_mac.c **** }
 276:C:/Files/Projects/Git/XMCLib/src\xmc_eth_mac.c **** 
 277:C:/Files/Projects/Git/XMCLib/src\xmc_eth_mac.c **** /* Initialize RX descriptors */
 278:C:/Files/Projects/Git/XMCLib/src\xmc_eth_mac.c **** void XMC_ETH_MAC_InitRxDescriptors(XMC_ETH_MAC_t *const eth_mac)
 279:C:/Files/Projects/Git/XMCLib/src\xmc_eth_mac.c **** {
  28              	 .loc 1 279 0
  29              	 .cfi_startproc
  30              	 
  31              	 
  32              	 
  33              	.LVL0:
  34 0000 F0B4     	 push {r4,r5,r6,r7}
  35              	.LCFI0:
  36              	 .cfi_def_cfa_offset 16
  37              	 .cfi_offset 4,-16
  38              	 .cfi_offset 5,-12
  39              	 .cfi_offset 6,-8
  40              	 .cfi_offset 7,-4
  41              	.LVL1:
 280:C:/Files/Projects/Git/XMCLib/src\xmc_eth_mac.c ****   uint32_t i;
 281:C:/Files/Projects/Git/XMCLib/src\xmc_eth_mac.c ****   uint32_t next;
 282:C:/Files/Projects/Git/XMCLib/src\xmc_eth_mac.c **** 
 283:C:/Files/Projects/Git/XMCLib/src\xmc_eth_mac.c ****   XMC_ASSERT("XMC_ETH_MAC_InitRxDescriptors: eth_mac is invalid", XMC_ETH_MAC_IsValidModule(eth_mac
 284:C:/Files/Projects/Git/XMCLib/src\xmc_eth_mac.c **** 
 285:C:/Files/Projects/Git/XMCLib/src\xmc_eth_mac.c ****   /*
 286:C:/Files/Projects/Git/XMCLib/src\xmc_eth_mac.c ****    * Chained structure (ETH_MAC_DMA_RDES1_RCH), second address in the descriptor
 287:C:/Files/Projects/Git/XMCLib/src\xmc_eth_mac.c ****    * (buffer2) is the next descriptor address
 288:C:/Files/Projects/Git/XMCLib/src\xmc_eth_mac.c ****    */
 289:C:/Files/Projects/Git/XMCLib/src\xmc_eth_mac.c ****   for (i = 0U; i < eth_mac->num_rx_buf; ++i)
  42              	 .loc 1 289 0
  43 0002 90F82430 	 ldrb r3,[r0,#36]
  44 0006 13B3     	 cbz r3,.L2
  45 0008 0025     	 movs r5,#0
  46 000a 2A46     	 mov r2,r5
 290:C:/Files/Projects/Git/XMCLib/src\xmc_eth_mac.c ****   {
 291:C:/Files/Projects/Git/XMCLib/src\xmc_eth_mac.c ****   eth_mac->rx_desc[i].status = (uint32_t)ETH_MAC_DMA_RDES0_OWN;
  47              	 .loc 1 291 0
  48 000c 4FF00047 	 mov r7,#-2147483648
 292:C:/Files/Projects/Git/XMCLib/src\xmc_eth_mac.c ****   eth_mac->rx_desc[i].length = (uint32_t)ETH_MAC_DMA_RDES1_RCH | (uint32_t)XMC_ETH_MAC_BUF_SIZE;
  49              	 .loc 1 292 0
  50 0010 44F2F456 	 movw r6,#17908
  51              	.LVL2:
  52              	.L4:
  53 0014 5301     	 lsls r3,r2,#5
 291:C:/Files/Projects/Git/XMCLib/src\xmc_eth_mac.c ****   eth_mac->rx_desc[i].length = (uint32_t)ETH_MAC_DMA_RDES1_RCH | (uint32_t)XMC_ETH_MAC_BUF_SIZE;
  54              	 .loc 1 291 0
  55 0016 0169     	 ldr r1,[r0,#16]
  56 0018 CF50     	 str r7,[r1,r3]
  57              	 .loc 1 292 0
  58 001a 0169     	 ldr r1,[r0,#16]
  59 001c 1944     	 add r1,r1,r3
  60 001e 4E60     	 str r6,[r1,#4]
 293:C:/Files/Projects/Git/XMCLib/src\xmc_eth_mac.c ****   eth_mac->rx_desc[i].buffer1 = (uint32_t)&(eth_mac->rx_buf[i * XMC_ETH_MAC_BUF_SIZE]);
  61              	 .loc 1 293 0
  62 0020 0169     	 ldr r1,[r0,#16]
  63 0022 1944     	 add r1,r1,r3
  64 0024 8469     	 ldr r4,[r0,#24]
  65 0026 2C44     	 add r4,r4,r5
  66 0028 8C60     	 str r4,[r1,#8]
 294:C:/Files/Projects/Git/XMCLib/src\xmc_eth_mac.c ****     next = i + 1U;
  67              	 .loc 1 294 0
  68 002a 0132     	 adds r2,r2,#1
  69              	.LVL3:
 295:C:/Files/Projects/Git/XMCLib/src\xmc_eth_mac.c ****     if (next == eth_mac->num_rx_buf)
  70              	 .loc 1 295 0
  71 002c 90F82410 	 ldrb r1,[r0,#36]
 296:C:/Files/Projects/Git/XMCLib/src\xmc_eth_mac.c ****     {
 297:C:/Files/Projects/Git/XMCLib/src\xmc_eth_mac.c ****       next = 0U;
  72              	 .loc 1 297 0
  73 0030 9142     	 cmp r1,r2
  74 0032 14BF     	 ite ne
  75 0034 1446     	 movne r4,r2
  76 0036 0024     	 moveq r4,#0
  77              	.LVL4:
 298:C:/Files/Projects/Git/XMCLib/src\xmc_eth_mac.c ****     }
 299:C:/Files/Projects/Git/XMCLib/src\xmc_eth_mac.c ****     eth_mac->rx_desc[i].buffer2 = (uint32_t)&(eth_mac->rx_desc[next]);
  78              	 .loc 1 299 0
  79 0038 0169     	 ldr r1,[r0,#16]
  80 003a 0B44     	 add r3,r3,r1
  81 003c 01EB4411 	 add r1,r1,r4,lsl#5
  82 0040 D960     	 str r1,[r3,#12]
  83              	.LVL5:
  84 0042 05F2F455 	 addw r5,r5,#1524
 289:C:/Files/Projects/Git/XMCLib/src\xmc_eth_mac.c ****   {
  85              	 .loc 1 289 0
  86 0046 90F82430 	 ldrb r3,[r0,#36]
  87 004a 9342     	 cmp r3,r2
  88 004c E2D8     	 bhi .L4
  89              	.LVL6:
  90              	.L2:
 300:C:/Files/Projects/Git/XMCLib/src\xmc_eth_mac.c ****   }
 301:C:/Files/Projects/Git/XMCLib/src\xmc_eth_mac.c ****   eth_mac->regs->RECEIVE_DESCRIPTOR_LIST_ADDRESS = (uint32_t)&(eth_mac->rx_desc[0]);
  91              	 .loc 1 301 0
  92 004e 0268     	 ldr r2,[r0]
  93 0050 0169     	 ldr r1,[r0,#16]
  94 0052 41F20C03 	 movw r3,#4108
  95 0056 D150     	 str r1,[r2,r3]
 302:C:/Files/Projects/Git/XMCLib/src\xmc_eth_mac.c ****   eth_mac->rx_index = 0U;
  96              	 .loc 1 302 0
  97 0058 0023     	 movs r3,#0
  98 005a 80F82730 	 strb r3,[r0,#39]
 303:C:/Files/Projects/Git/XMCLib/src\xmc_eth_mac.c **** }
  99              	 .loc 1 303 0
 100 005e F0BC     	 pop {r4,r5,r6,r7}
 101              	.LCFI1:
 102              	 .cfi_restore 7
 103              	 .cfi_restore 6
 104              	 .cfi_restore 5
 105              	 .cfi_restore 4
 106              	 .cfi_def_cfa_offset 0
 107 0060 7047     	 bx lr
 108              	 .cfi_endproc
 109              	.LFE235:
 111 0062 00BF     	 .section .text.XMC_ETH_MAC_InitTxDescriptors,"ax",%progbits
 112              	 .align 2
 113              	 .global XMC_ETH_MAC_InitTxDescriptors
 114              	 .thumb
 115              	 .thumb_func
 117              	XMC_ETH_MAC_InitTxDescriptors:
 118              	.LFB236:
 304:C:/Files/Projects/Git/XMCLib/src\xmc_eth_mac.c **** 
 305:C:/Files/Projects/Git/XMCLib/src\xmc_eth_mac.c **** /* Initialize TX descriptors */
 306:C:/Files/Projects/Git/XMCLib/src\xmc_eth_mac.c **** void XMC_ETH_MAC_InitTxDescriptors(XMC_ETH_MAC_t *const eth_mac)
 307:C:/Files/Projects/Git/XMCLib/src\xmc_eth_mac.c **** {
 119              	 .loc 1 307 0
 120              	 .cfi_startproc
 121              	 
 122              	 
 123              	 
 124              	.LVL7:
 125 0000 70B4     	 push {r4,r5,r6}
 126              	.LCFI2:
 127              	 .cfi_def_cfa_offset 12
 128              	 .cfi_offset 4,-12
 129              	 .cfi_offset 5,-8
 130              	 .cfi_offset 6,-4
 131              	.LVL8:
 308:C:/Files/Projects/Git/XMCLib/src\xmc_eth_mac.c ****   uint32_t i;
 309:C:/Files/Projects/Git/XMCLib/src\xmc_eth_mac.c ****   uint32_t next;
 310:C:/Files/Projects/Git/XMCLib/src\xmc_eth_mac.c **** 
 311:C:/Files/Projects/Git/XMCLib/src\xmc_eth_mac.c ****   XMC_ASSERT("XMC_ETH_MAC_InitTxDescriptors: eth_mac is invalid", XMC_ETH_MAC_IsValidModule(eth_mac
 312:C:/Files/Projects/Git/XMCLib/src\xmc_eth_mac.c **** 
 313:C:/Files/Projects/Git/XMCLib/src\xmc_eth_mac.c ****   /* Chained structure (ETH_MAC_DMA_TDES0_TCH), second address in the descriptor (buffer2) is the n
 314:C:/Files/Projects/Git/XMCLib/src\xmc_eth_mac.c ****   for (i = 0U; i < eth_mac->num_tx_buf; ++i)
 132              	 .loc 1 314 0
 133 0002 90F82530 	 ldrb r3,[r0,#37]
 134 0006 E3B1     	 cbz r3,.L9
 135 0008 0025     	 movs r5,#0
 136 000a 2B46     	 mov r3,r5
 315:C:/Files/Projects/Git/XMCLib/src\xmc_eth_mac.c ****   {
 316:C:/Files/Projects/Git/XMCLib/src\xmc_eth_mac.c ****   eth_mac->tx_desc[i].status = ETH_MAC_DMA_TDES0_TCH | ETH_MAC_DMA_TDES0_LS | ETH_MAC_DMA_TDES0_FS;
 137              	 .loc 1 316 0
 138 000c 124E     	 ldr r6,.L15
 139              	.LVL9:
 140              	.L11:
 141 000e 5A01     	 lsls r2,r3,#5
 142 0010 4169     	 ldr r1,[r0,#20]
 143 0012 8E50     	 str r6,[r1,r2]
 317:C:/Files/Projects/Git/XMCLib/src\xmc_eth_mac.c ****   eth_mac->tx_desc[i].buffer1 = (uint32_t)&(eth_mac->tx_buf[i * XMC_ETH_MAC_BUF_SIZE]);
 144              	 .loc 1 317 0
 145 0014 4169     	 ldr r1,[r0,#20]
 146 0016 1144     	 add r1,r1,r2
 147 0018 C469     	 ldr r4,[r0,#28]
 148 001a 2C44     	 add r4,r4,r5
 149 001c 8C60     	 str r4,[r1,#8]
 318:C:/Files/Projects/Git/XMCLib/src\xmc_eth_mac.c ****     next = i + 1U;
 150              	 .loc 1 318 0
 151 001e 0133     	 adds r3,r3,#1
 152              	.LVL10:
 319:C:/Files/Projects/Git/XMCLib/src\xmc_eth_mac.c ****     if (next == eth_mac->num_tx_buf)
 153              	 .loc 1 319 0
 154 0020 90F82510 	 ldrb r1,[r0,#37]
 320:C:/Files/Projects/Git/XMCLib/src\xmc_eth_mac.c ****     {
 321:C:/Files/Projects/Git/XMCLib/src\xmc_eth_mac.c ****         next = 0U;
 155              	 .loc 1 321 0
 156 0024 9942     	 cmp r1,r3
 157 0026 14BF     	 ite ne
 158 0028 1C46     	 movne r4,r3
 159 002a 0024     	 moveq r4,#0
 160              	.LVL11:
 322:C:/Files/Projects/Git/XMCLib/src\xmc_eth_mac.c ****     }
 323:C:/Files/Projects/Git/XMCLib/src\xmc_eth_mac.c ****     eth_mac->tx_desc[i].buffer2 = (uint32_t)&(eth_mac->tx_desc[next]);
 161              	 .loc 1 323 0
 162 002c 4169     	 ldr r1,[r0,#20]
 163 002e 0A44     	 add r2,r2,r1
 164 0030 01EB4411 	 add r1,r1,r4,lsl#5
 165 0034 D160     	 str r1,[r2,#12]
 166              	.LVL12:
 167 0036 05F2F455 	 addw r5,r5,#1524
 314:C:/Files/Projects/Git/XMCLib/src\xmc_eth_mac.c ****   {
 168              	 .loc 1 314 0
 169 003a 90F82520 	 ldrb r2,[r0,#37]
 170 003e 9A42     	 cmp r2,r3
 171 0040 E5D8     	 bhi .L11
 172              	.LVL13:
 173              	.L9:
 324:C:/Files/Projects/Git/XMCLib/src\xmc_eth_mac.c ****   }
 325:C:/Files/Projects/Git/XMCLib/src\xmc_eth_mac.c ****   eth_mac->regs->TRANSMIT_DESCRIPTOR_LIST_ADDRESS = (uint32_t)&(eth_mac->tx_desc[0]);
 174              	 .loc 1 325 0
 175 0042 0268     	 ldr r2,[r0]
 176 0044 4169     	 ldr r1,[r0,#20]
 177 0046 41F21003 	 movw r3,#4112
 178 004a D150     	 str r1,[r2,r3]
 326:C:/Files/Projects/Git/XMCLib/src\xmc_eth_mac.c ****   eth_mac->tx_index = 0U;
 179              	 .loc 1 326 0
 180 004c 0023     	 movs r3,#0
 181 004e 80F82630 	 strb r3,[r0,#38]
 327:C:/Files/Projects/Git/XMCLib/src\xmc_eth_mac.c **** }
 182              	 .loc 1 327 0
 183 0052 70BC     	 pop {r4,r5,r6}
 184              	.LCFI3:
 185              	 .cfi_restore 6
 186              	 .cfi_restore 5
 187              	 .cfi_restore 4
 188              	 .cfi_def_cfa_offset 0
 189 0054 7047     	 bx lr
 190              	.L16:
 191 0056 00BF     	 .align 2
 192              	.L15:
 193 0058 00001030 	 .word 806354944
 194              	 .cfi_endproc
 195              	.LFE236:
 197              	 .section .text.XMC_ETH_MAC_InitEx,"ax",%progbits
 198              	 .align 2
 199              	 .global XMC_ETH_MAC_InitEx
 200              	 .thumb
 201              	 .thumb_func
 203              	XMC_ETH_MAC_InitEx:
 204              	.LFB233:
 221:C:/Files/Projects/Git/XMCLib/src\xmc_eth_mac.c ****   XMC_ASSERT("XMC_ETH_MAC_InitEx: eth_mac is invalid", XMC_ETH_MAC_IsValidModule(eth_mac->regs));
 205              	 .loc 1 221 0
 206              	 .cfi_startproc
 207              	 
 208              	 
 209              	.LVL14:
 210 0000 10B5     	 push {r4,lr}
 211              	.LCFI4:
 212              	 .cfi_def_cfa_offset 8
 213              	 .cfi_offset 4,-8
 214              	 .cfi_offset 14,-4
 215 0002 0446     	 mov r4,r0
 216              	.LVL15:
 217              	.LBB21:
 218              	.LBB22:
 219              	 .file 2 "C:/Files/Projects/Git/XMCLib/inc/xmc_eth_mac.h"
   1:C:/Files/Projects/Git/XMCLib/inc\xmc_eth_mac.h **** 
   2:C:/Files/Projects/Git/XMCLib/inc\xmc_eth_mac.h **** /**
   3:C:/Files/Projects/Git/XMCLib/inc\xmc_eth_mac.h ****  * @file xmc_eth_mac.h
   4:C:/Files/Projects/Git/XMCLib/inc\xmc_eth_mac.h ****  * @date 2018-08-08
   5:C:/Files/Projects/Git/XMCLib/inc\xmc_eth_mac.h ****  *
   6:C:/Files/Projects/Git/XMCLib/inc\xmc_eth_mac.h ****  * @cond
   7:C:/Files/Projects/Git/XMCLib/inc\xmc_eth_mac.h ****  **************************************************************************************************
   8:C:/Files/Projects/Git/XMCLib/inc\xmc_eth_mac.h ****  * XMClib v2.1.24 - XMC Peripheral Driver Library 
   9:C:/Files/Projects/Git/XMCLib/inc\xmc_eth_mac.h ****  *
  10:C:/Files/Projects/Git/XMCLib/inc\xmc_eth_mac.h ****  * Copyright (c) 2015-2019, Infineon Technologies AG
  11:C:/Files/Projects/Git/XMCLib/inc\xmc_eth_mac.h ****  * All rights reserved.                        
  12:C:/Files/Projects/Git/XMCLib/inc\xmc_eth_mac.h ****  *                                             
  13:C:/Files/Projects/Git/XMCLib/inc\xmc_eth_mac.h ****  * Redistribution and use in source and binary forms, with or without modification,are permitted pr
  14:C:/Files/Projects/Git/XMCLib/inc\xmc_eth_mac.h ****  * following conditions are met:   
  15:C:/Files/Projects/Git/XMCLib/inc\xmc_eth_mac.h ****  *                                                                              
  16:C:/Files/Projects/Git/XMCLib/inc\xmc_eth_mac.h ****  * Redistributions of source code must retain the above copyright notice, this list of conditions a
  17:C:/Files/Projects/Git/XMCLib/inc\xmc_eth_mac.h ****  * disclaimer.                        
  18:C:/Files/Projects/Git/XMCLib/inc\xmc_eth_mac.h ****  * 
  19:C:/Files/Projects/Git/XMCLib/inc\xmc_eth_mac.h ****  * Redistributions in binary form must reproduce the above copyright notice, this list of condition
  20:C:/Files/Projects/Git/XMCLib/inc\xmc_eth_mac.h ****  * disclaimer in the documentation and/or other materials provided with the distribution.          
  21:C:/Files/Projects/Git/XMCLib/inc\xmc_eth_mac.h ****  * 
  22:C:/Files/Projects/Git/XMCLib/inc\xmc_eth_mac.h ****  * Neither the name of the copyright holders nor the names of its contributors may be used to endor
  23:C:/Files/Projects/Git/XMCLib/inc\xmc_eth_mac.h ****  * products derived from this software without specific prior written permission.                  
  24:C:/Files/Projects/Git/XMCLib/inc\xmc_eth_mac.h ****  *                                                                              
  25:C:/Files/Projects/Git/XMCLib/inc\xmc_eth_mac.h ****  * THIS SOFTWARE IS PROVIDED BY THE COPYRIGHT HOLDERS AND CONTRIBUTORS "AS IS" AND ANY EXPRESS OR I
  26:C:/Files/Projects/Git/XMCLib/inc\xmc_eth_mac.h ****  * INCLUDING, BUT NOT LIMITED TO, THE IMPLIED WARRANTIES OF MERCHANTABILITY AND FITNESS FOR A PARTI
  27:C:/Files/Projects/Git/XMCLib/inc\xmc_eth_mac.h ****  * DISCLAIMED. IN NO EVENT SHALL THE COPYRIGHT HOLDER OR CONTRIBUTORS BE LIABLE  FOR ANY DIRECT, IN
  28:C:/Files/Projects/Git/XMCLib/inc\xmc_eth_mac.h ****  * SPECIAL, EXEMPLARY, OR CONSEQUENTIAL DAMAGES (INCLUDING, BUT NOT LIMITED TO, PROCUREMENT OF SUBS
  29:C:/Files/Projects/Git/XMCLib/inc\xmc_eth_mac.h ****  * SERVICES; LOSS OF USE, DATA, OR PROFITS; OR BUSINESS INTERRUPTION) HOWEVER CAUSED AND ON ANY THE
  30:C:/Files/Projects/Git/XMCLib/inc\xmc_eth_mac.h ****  * WHETHER IN CONTRACT, STRICT LIABILITY,OR TORT (INCLUDING NEGLIGENCE OR OTHERWISE) ARISING IN ANY
  31:C:/Files/Projects/Git/XMCLib/inc\xmc_eth_mac.h ****  * OF THIS SOFTWARE, EVEN IF ADVISED OF THE POSSIBILITY OF SUCH DAMAGE.                            
  32:C:/Files/Projects/Git/XMCLib/inc\xmc_eth_mac.h ****  *                                                                              
  33:C:/Files/Projects/Git/XMCLib/inc\xmc_eth_mac.h ****  * To improve the quality of the software, users are encouraged to share modifications, enhancement
  34:C:/Files/Projects/Git/XMCLib/inc\xmc_eth_mac.h ****  * Infineon Technologies AG dave@infineon.com).                                                    
  35:C:/Files/Projects/Git/XMCLib/inc\xmc_eth_mac.h ****  **************************************************************************************************
  36:C:/Files/Projects/Git/XMCLib/inc\xmc_eth_mac.h ****  *
  37:C:/Files/Projects/Git/XMCLib/inc\xmc_eth_mac.h ****  * Change History
  38:C:/Files/Projects/Git/XMCLib/inc\xmc_eth_mac.h ****  * --------------
  39:C:/Files/Projects/Git/XMCLib/inc\xmc_eth_mac.h ****  *
  40:C:/Files/Projects/Git/XMCLib/inc\xmc_eth_mac.h ****  * 2015-06-20:
  41:C:/Files/Projects/Git/XMCLib/inc\xmc_eth_mac.h ****  *     - Initial
  42:C:/Files/Projects/Git/XMCLib/inc\xmc_eth_mac.h ****  *
  43:C:/Files/Projects/Git/XMCLib/inc\xmc_eth_mac.h ****  * 2016-04-25:
  44:C:/Files/Projects/Git/XMCLib/inc\xmc_eth_mac.h ****  *     - Change XMC_ETH_MAC_BUF_SIZE to 1524 to allow for Tagged MAC frame format
  45:C:/Files/Projects/Git/XMCLib/inc\xmc_eth_mac.h ****  *  
  46:C:/Files/Projects/Git/XMCLib/inc\xmc_eth_mac.h ****  * 2016-05-19:
  47:C:/Files/Projects/Git/XMCLib/inc\xmc_eth_mac.h ****  *      - Added XMC_ETH_MAC_GetTxBuffer() and XMC_ETH_MAC_GetRxBuffer()
  48:C:/Files/Projects/Git/XMCLib/inc\xmc_eth_mac.h ****  *      - Added XMC_ETH_MAC_SetTxBufferSize()
  49:C:/Files/Projects/Git/XMCLib/inc\xmc_eth_mac.h ****  *
  50:C:/Files/Projects/Git/XMCLib/inc\xmc_eth_mac.h ****  * 2016-06-08:
  51:C:/Files/Projects/Git/XMCLib/inc\xmc_eth_mac.h ****  *      - Added XMC_ETH_MAC_IsRxDescriptorOwnedByDma()
  52:C:/Files/Projects/Git/XMCLib/inc\xmc_eth_mac.h ****  * 
  53:C:/Files/Projects/Git/XMCLib/inc\xmc_eth_mac.h ****  * 2017-02-25:
  54:C:/Files/Projects/Git/XMCLib/inc\xmc_eth_mac.h ****  *      - XMC_ETH_MAC_SetPortControl() fixed compilation warning
  55:C:/Files/Projects/Git/XMCLib/inc\xmc_eth_mac.h ****  *
  56:C:/Files/Projects/Git/XMCLib/inc\xmc_eth_mac.h ****  * 2017-04-02:
  57:C:/Files/Projects/Git/XMCLib/inc\xmc_eth_mac.h ****  *     - Added XMC_ETH_MAC_InitPTPEx()
  58:C:/Files/Projects/Git/XMCLib/inc\xmc_eth_mac.h ****  *     - Added XMC_ETH_MAC_SetPTPTime()
  59:C:/Files/Projects/Git/XMCLib/inc\xmc_eth_mac.h ****  *     - Added XMC_ETH_MAC_UpdateAddend()
  60:C:/Files/Projects/Git/XMCLib/inc\xmc_eth_mac.h ****  *
  61:C:/Files/Projects/Git/XMCLib/inc\xmc_eth_mac.h ****  * 2017-04-11:
  62:C:/Files/Projects/Git/XMCLib/inc\xmc_eth_mac.h ****  *     - Added XMC_ETH_MAC_EnablePTPAlarm() and XMC_ETH_MAC_DisablePTPAlarm
  63:C:/Files/Projects/Git/XMCLib/inc\xmc_eth_mac.h ****  *
  64:C:/Files/Projects/Git/XMCLib/inc\xmc_eth_mac.h ****  * 2017-04-17:
  65:C:/Files/Projects/Git/XMCLib/inc\xmc_eth_mac.h ****  *     - Fixed ordering of PTP nanoseconds and seconds in XMC_ETH_MAC_DMA_DESC_t
  66:C:/Files/Projects/Git/XMCLib/inc\xmc_eth_mac.h ****  *
  67:C:/Files/Projects/Git/XMCLib/inc\xmc_eth_mac.h ****  * 2017-08-07:
  68:C:/Files/Projects/Git/XMCLib/inc\xmc_eth_mac.h ****  *     - Added XMC_ETH_MAC_TIMESTAMP_STATUS_t
  69:C:/Files/Projects/Git/XMCLib/inc\xmc_eth_mac.h ****  *
  70:C:/Files/Projects/Git/XMCLib/inc\xmc_eth_mac.h ****  * 2017-09-27:
  71:C:/Files/Projects/Git/XMCLib/inc\xmc_eth_mac.h ****  *     - Added XMC_ETH_MAC_InitEx()
  72:C:/Files/Projects/Git/XMCLib/inc\xmc_eth_mac.h ****  *     - XMC_ETH_MAC_SetAddressEx(), XMC_ETH_MAC_GetAddressEx() and XMC_ETH_MAC_SetAddressPerfectFi
  73:C:/Files/Projects/Git/XMCLib/inc\xmc_eth_mac.h ****  *
  74:C:/Files/Projects/Git/XMCLib/inc\xmc_eth_mac.h ****  * 2018-06-21:
  75:C:/Files/Projects/Git/XMCLib/inc\xmc_eth_mac.h ****  *     - Changed definition of XMC_ETH_MAC_DMA_DESC_t declaring its fields volatile
  76:C:/Files/Projects/Git/XMCLib/inc\xmc_eth_mac.h ****  *
  77:C:/Files/Projects/Git/XMCLib/inc\xmc_eth_mac.h ****  * 2018-08-08:
  78:C:/Files/Projects/Git/XMCLib/inc\xmc_eth_mac.h ****  *     - Fixed XMC_ETH_MAC_SetVLANTag() which now accepts a 32bit tag parameter that allows setting
  79:C:/Files/Projects/Git/XMCLib/inc\xmc_eth_mac.h ****  *
  80:C:/Files/Projects/Git/XMCLib/inc\xmc_eth_mac.h ****  * @endcond
  81:C:/Files/Projects/Git/XMCLib/inc\xmc_eth_mac.h ****  */
  82:C:/Files/Projects/Git/XMCLib/inc\xmc_eth_mac.h **** 
  83:C:/Files/Projects/Git/XMCLib/inc\xmc_eth_mac.h **** /**
  84:C:/Files/Projects/Git/XMCLib/inc\xmc_eth_mac.h ****  * @addtogroup XMClib XMC Peripheral Library
  85:C:/Files/Projects/Git/XMCLib/inc\xmc_eth_mac.h ****  * @{
  86:C:/Files/Projects/Git/XMCLib/inc\xmc_eth_mac.h ****  */
  87:C:/Files/Projects/Git/XMCLib/inc\xmc_eth_mac.h **** 
  88:C:/Files/Projects/Git/XMCLib/inc\xmc_eth_mac.h **** /**
  89:C:/Files/Projects/Git/XMCLib/inc\xmc_eth_mac.h ****  * @addtogroup ETH_MAC
  90:C:/Files/Projects/Git/XMCLib/inc\xmc_eth_mac.h ****  * @brief Ethernet Low level driver for XMC4000 microcontroller family.
  91:C:/Files/Projects/Git/XMCLib/inc\xmc_eth_mac.h ****  *
  92:C:/Files/Projects/Git/XMCLib/inc\xmc_eth_mac.h ****  * The Ethernet MAC (ETH) is a major communication peripheral that supports 10/100
  93:C:/Files/Projects/Git/XMCLib/inc\xmc_eth_mac.h ****  * MBit/s data transfer rates in compliance with the IEEE 802.3-2002 standard. The ETH
  94:C:/Files/Projects/Git/XMCLib/inc\xmc_eth_mac.h ****  * may be used to implement internet connected applications using IPv4 and IPv6. The
  95:C:/Files/Projects/Git/XMCLib/inc\xmc_eth_mac.h ****  * ETH also includes support for IEEE1588 time synchronisation to allow implementation
  96:C:/Files/Projects/Git/XMCLib/inc\xmc_eth_mac.h ****  * of Real Time Ethernet protocols.
  97:C:/Files/Projects/Git/XMCLib/inc\xmc_eth_mac.h ****  *
  98:C:/Files/Projects/Git/XMCLib/inc\xmc_eth_mac.h ****  * The XMC_ETH_MAC low level driver provides functions to configure and initialize
  99:C:/Files/Projects/Git/XMCLib/inc\xmc_eth_mac.h ****  * the ETH_MAC hardware peripheral.
 100:C:/Files/Projects/Git/XMCLib/inc\xmc_eth_mac.h ****  * @{
 101:C:/Files/Projects/Git/XMCLib/inc\xmc_eth_mac.h ****  */
 102:C:/Files/Projects/Git/XMCLib/inc\xmc_eth_mac.h **** 
 103:C:/Files/Projects/Git/XMCLib/inc\xmc_eth_mac.h **** #ifndef XMC_ETH_MAC_H
 104:C:/Files/Projects/Git/XMCLib/inc\xmc_eth_mac.h **** #define XMC_ETH_MAC_H
 105:C:/Files/Projects/Git/XMCLib/inc\xmc_eth_mac.h **** 
 106:C:/Files/Projects/Git/XMCLib/inc\xmc_eth_mac.h **** /**************************************************************************************************
 107:C:/Files/Projects/Git/XMCLib/inc\xmc_eth_mac.h ****  * HEADER FILES
 108:C:/Files/Projects/Git/XMCLib/inc\xmc_eth_mac.h ****  **************************************************************************************************
 109:C:/Files/Projects/Git/XMCLib/inc\xmc_eth_mac.h **** 
 110:C:/Files/Projects/Git/XMCLib/inc\xmc_eth_mac.h **** #include "xmc_common.h"
 111:C:/Files/Projects/Git/XMCLib/inc\xmc_eth_mac.h **** 
 112:C:/Files/Projects/Git/XMCLib/inc\xmc_eth_mac.h **** #if defined (ETH0)
 113:C:/Files/Projects/Git/XMCLib/inc\xmc_eth_mac.h **** 
 114:C:/Files/Projects/Git/XMCLib/inc\xmc_eth_mac.h **** #include "xmc_eth_mac_map.h"
 115:C:/Files/Projects/Git/XMCLib/inc\xmc_eth_mac.h **** 
 116:C:/Files/Projects/Git/XMCLib/inc\xmc_eth_mac.h **** /**************************************************************************************************
 117:C:/Files/Projects/Git/XMCLib/inc\xmc_eth_mac.h ****  * MACROS
 118:C:/Files/Projects/Git/XMCLib/inc\xmc_eth_mac.h ****  **************************************************************************************************
 119:C:/Files/Projects/Git/XMCLib/inc\xmc_eth_mac.h **** 
 120:C:/Files/Projects/Git/XMCLib/inc\xmc_eth_mac.h **** #define XMC_ETH_MAC_BUF_SIZE           (1524)     /**< ETH MAC buffer size */
 121:C:/Files/Projects/Git/XMCLib/inc\xmc_eth_mac.h **** #define XMC_ETH_MAC_PHY_MAX_RETRIES    (0xffffUL) /**< Maximum retries */
 122:C:/Files/Projects/Git/XMCLib/inc\xmc_eth_mac.h **** #define XMC_ETH_WAKEUP_REGISTER_LENGTH (8U)       /**< Remote wakeup frame reg length */
 123:C:/Files/Projects/Git/XMCLib/inc\xmc_eth_mac.h **** 
 124:C:/Files/Projects/Git/XMCLib/inc\xmc_eth_mac.h **** /**
 125:C:/Files/Projects/Git/XMCLib/inc\xmc_eth_mac.h ****  * TDES0 Descriptor TX Packet Control/Status
 126:C:/Files/Projects/Git/XMCLib/inc\xmc_eth_mac.h ****  */
 127:C:/Files/Projects/Git/XMCLib/inc\xmc_eth_mac.h **** #define ETH_MAC_DMA_TDES0_OWN  (0x80000000U) /**< Own bit 1=DMA, 0=CPU */
 128:C:/Files/Projects/Git/XMCLib/inc\xmc_eth_mac.h **** #define ETH_MAC_DMA_TDES0_IC   (0x40000000U) /**< Interrupt on competition */
 129:C:/Files/Projects/Git/XMCLib/inc\xmc_eth_mac.h **** #define ETH_MAC_DMA_TDES0_LS   (0x20000000U) /**< Last segment */
 130:C:/Files/Projects/Git/XMCLib/inc\xmc_eth_mac.h **** #define ETH_MAC_DMA_TDES0_FS   (0x10000000U) /**< First segment */
 131:C:/Files/Projects/Git/XMCLib/inc\xmc_eth_mac.h **** #define ETH_MAC_DMA_TDES0_DC   (0x08000000U) /**< Disable CRC */
 132:C:/Files/Projects/Git/XMCLib/inc\xmc_eth_mac.h **** #define ETH_MAC_DMA_TDES0_DP   (0x04000000U) /**< Disable pad */
 133:C:/Files/Projects/Git/XMCLib/inc\xmc_eth_mac.h **** #define ETH_MAC_DMA_TDES0_TTSE (0x02000000U) /**< Transmit time stamp enable */
 134:C:/Files/Projects/Git/XMCLib/inc\xmc_eth_mac.h **** #define ETH_MAC_DMA_TDES0_CIC  (0x00C00000U) /**< Checksum insertion control */
 135:C:/Files/Projects/Git/XMCLib/inc\xmc_eth_mac.h **** #define ETH_MAC_DMA_TDES0_TER  (0x00200000U) /**< Transmit end of ring */
 136:C:/Files/Projects/Git/XMCLib/inc\xmc_eth_mac.h **** #define ETH_MAC_DMA_TDES0_TCH  (0x00100000U) /**< Second address chained */
 137:C:/Files/Projects/Git/XMCLib/inc\xmc_eth_mac.h **** #define ETH_MAC_DMA_TDES0_TTSS (0x00020000U) /**< Transmit time stamp status */
 138:C:/Files/Projects/Git/XMCLib/inc\xmc_eth_mac.h **** #define ETH_MAC_DMA_TDES0_IHE  (0x00010000U) /**< IP header error */
 139:C:/Files/Projects/Git/XMCLib/inc\xmc_eth_mac.h **** #define ETH_MAC_DMA_TDES0_ES   (0x00008000U) /**< Error summary */
 140:C:/Files/Projects/Git/XMCLib/inc\xmc_eth_mac.h **** #define ETH_MAC_DMA_TDES0_JT   (0x00004000U) /**< Jabber timeout */
 141:C:/Files/Projects/Git/XMCLib/inc\xmc_eth_mac.h **** #define ETH_MAC_DMA_TDES0_FF   (0x00002000U) /**< Frame flushed */
 142:C:/Files/Projects/Git/XMCLib/inc\xmc_eth_mac.h **** #define ETH_MAC_DMA_TDES0_IPE  (0x00001000U) /**< IP payload error */
 143:C:/Files/Projects/Git/XMCLib/inc\xmc_eth_mac.h **** #define ETH_MAC_DMA_TDES0_LOC  (0x00000800U) /**< Loss of carrier */
 144:C:/Files/Projects/Git/XMCLib/inc\xmc_eth_mac.h **** #define ETH_MAC_DMA_TDES0_NC   (0x00000400U) /**< No carrier */
 145:C:/Files/Projects/Git/XMCLib/inc\xmc_eth_mac.h **** #define ETH_MAC_DMA_TDES0_LC   (0x00000200U) /**< Late collision */
 146:C:/Files/Projects/Git/XMCLib/inc\xmc_eth_mac.h **** #define ETH_MAC_DMA_TDES0_EC   (0x00000100U) /**< Excessive collision */
 147:C:/Files/Projects/Git/XMCLib/inc\xmc_eth_mac.h **** #define ETH_MAC_DMA_TDES0_VF   (0x00000080U) /**< VLAN frame */
 148:C:/Files/Projects/Git/XMCLib/inc\xmc_eth_mac.h **** #define ETH_MAC_DMA_TDES0_CC   (0x00000078U) /**< Collision count */
 149:C:/Files/Projects/Git/XMCLib/inc\xmc_eth_mac.h **** #define ETH_MAC_DMA_TDES0_ED   (0x00000004U) /**< Excessive deferral */
 150:C:/Files/Projects/Git/XMCLib/inc\xmc_eth_mac.h **** #define ETH_MAC_DMA_TDES0_UF   (0x00000002U) /**< Underflow error */
 151:C:/Files/Projects/Git/XMCLib/inc\xmc_eth_mac.h **** #define ETH_MAC_DMA_TDES0_DB   (0x00000001U) /**< Deferred bit */
 152:C:/Files/Projects/Git/XMCLib/inc\xmc_eth_mac.h **** 
 153:C:/Files/Projects/Git/XMCLib/inc\xmc_eth_mac.h **** /**
 154:C:/Files/Projects/Git/XMCLib/inc\xmc_eth_mac.h ****  * RDES0 Descriptor RX Packet Status
 155:C:/Files/Projects/Git/XMCLib/inc\xmc_eth_mac.h ****  */
 156:C:/Files/Projects/Git/XMCLib/inc\xmc_eth_mac.h **** #define ETH_MAC_DMA_RDES0_OWN  (0x80000000U) /**< Own bit 1=DMA, 0=CPU */
 157:C:/Files/Projects/Git/XMCLib/inc\xmc_eth_mac.h **** #define ETH_MAC_DMA_RDES0_AFM  (0x40000000U) /**< Destination address filter fail */
 158:C:/Files/Projects/Git/XMCLib/inc\xmc_eth_mac.h **** #define ETH_MAC_DMA_RDES0_FL   (0x3FFF0000U) /**< Frame length mask */
 159:C:/Files/Projects/Git/XMCLib/inc\xmc_eth_mac.h **** #define ETH_MAC_DMA_RDES0_ES   (0x00008000U) /**< Error summary */
 160:C:/Files/Projects/Git/XMCLib/inc\xmc_eth_mac.h **** #define ETH_MAC_DMA_RDES0_DE   (0x00004000U) /**< Descriptor error */
 161:C:/Files/Projects/Git/XMCLib/inc\xmc_eth_mac.h **** #define ETH_MAC_DMA_RDES0_SAF  (0x00002000U) /**< Source address filter fail */
 162:C:/Files/Projects/Git/XMCLib/inc\xmc_eth_mac.h **** #define ETH_MAC_DMA_RDES0_LE   (0x00001000U) /**< Length error */
 163:C:/Files/Projects/Git/XMCLib/inc\xmc_eth_mac.h **** #define ETH_MAC_DMA_RDES0_OE   (0x00000800U) /**< Overflow error */
 164:C:/Files/Projects/Git/XMCLib/inc\xmc_eth_mac.h **** #define ETH_MAC_DMA_RDES0_VLAN (0x00000400U) /**< VLAN tag */
 165:C:/Files/Projects/Git/XMCLib/inc\xmc_eth_mac.h **** #define ETH_MAC_DMA_RDES0_FS   (0x00000200U) /**< First descriptor */
 166:C:/Files/Projects/Git/XMCLib/inc\xmc_eth_mac.h **** #define ETH_MAC_DMA_RDES0_LS   (0x00000100U) /**< Last descriptor */
 167:C:/Files/Projects/Git/XMCLib/inc\xmc_eth_mac.h **** #define ETH_MAC_DMA_RDES0_TSA  (0x00000080U) /**< Timestamp available */
 168:C:/Files/Projects/Git/XMCLib/inc\xmc_eth_mac.h **** #define ETH_MAC_DMA_RDES0_LC   (0x00000040U) /**< Late collision */
 169:C:/Files/Projects/Git/XMCLib/inc\xmc_eth_mac.h **** #define ETH_MAC_DMA_RDES0_FT   (0x00000020U) /**< Frame type */
 170:C:/Files/Projects/Git/XMCLib/inc\xmc_eth_mac.h **** #define ETH_MAC_DMA_RDES0_RWT  (0x00000010U) /**< Receive watchdog timeout */
 171:C:/Files/Projects/Git/XMCLib/inc\xmc_eth_mac.h **** #define ETH_MAC_DMA_RDES0_RE   (0x00000008U) /**< Receive error */
 172:C:/Files/Projects/Git/XMCLib/inc\xmc_eth_mac.h **** #define ETH_MAC_DMA_RDES0_DBE  (0x00000004U) /**< Dribble bit error */
 173:C:/Files/Projects/Git/XMCLib/inc\xmc_eth_mac.h **** #define ETH_MAC_DMA_RDES0_CE   (0x00000002U) /**< CRC error */
 174:C:/Files/Projects/Git/XMCLib/inc\xmc_eth_mac.h **** #define ETH_MAC_DMA_RDES0_ESA  (0x00000001U) /**< Extended Status/Rx MAC address */
 175:C:/Files/Projects/Git/XMCLib/inc\xmc_eth_mac.h **** 
 176:C:/Files/Projects/Git/XMCLib/inc\xmc_eth_mac.h **** /**************************************************************************************************
 177:C:/Files/Projects/Git/XMCLib/inc\xmc_eth_mac.h ****  * ENUMS
 178:C:/Files/Projects/Git/XMCLib/inc\xmc_eth_mac.h ****  **************************************************************************************************
 179:C:/Files/Projects/Git/XMCLib/inc\xmc_eth_mac.h **** 
 180:C:/Files/Projects/Git/XMCLib/inc\xmc_eth_mac.h **** /**
 181:C:/Files/Projects/Git/XMCLib/inc\xmc_eth_mac.h ****  * Ethernet MAC status return values
 182:C:/Files/Projects/Git/XMCLib/inc\xmc_eth_mac.h ****  */
 183:C:/Files/Projects/Git/XMCLib/inc\xmc_eth_mac.h **** typedef enum XMC_ETH_MAC_STATUS
 184:C:/Files/Projects/Git/XMCLib/inc\xmc_eth_mac.h **** {
 185:C:/Files/Projects/Git/XMCLib/inc\xmc_eth_mac.h ****   XMC_ETH_MAC_STATUS_OK    = 0U, /**< Driver accepted application request */
 186:C:/Files/Projects/Git/XMCLib/inc\xmc_eth_mac.h ****   XMC_ETH_MAC_STATUS_BUSY  = 1U, /**< Driver is busy and cannot handle request */
 187:C:/Files/Projects/Git/XMCLib/inc\xmc_eth_mac.h ****   XMC_ETH_MAC_STATUS_ERROR = 2U  /**< Driver could not fulfil application request */
 188:C:/Files/Projects/Git/XMCLib/inc\xmc_eth_mac.h **** } XMC_ETH_MAC_STATUS_t;
 189:C:/Files/Projects/Git/XMCLib/inc\xmc_eth_mac.h **** 
 190:C:/Files/Projects/Git/XMCLib/inc\xmc_eth_mac.h **** /**
 191:C:/Files/Projects/Git/XMCLib/inc\xmc_eth_mac.h ****  * Transmission frame
 192:C:/Files/Projects/Git/XMCLib/inc\xmc_eth_mac.h ****  */
 193:C:/Files/Projects/Git/XMCLib/inc\xmc_eth_mac.h **** typedef enum XMC_ETH_MAC_TX_FRAME
 194:C:/Files/Projects/Git/XMCLib/inc\xmc_eth_mac.h **** {
 195:C:/Files/Projects/Git/XMCLib/inc\xmc_eth_mac.h ****   XMC_ETH_MAC_TX_FRAME_FRAGMENT  = 0x1U, /**< Indicate frame fragment */
 196:C:/Files/Projects/Git/XMCLib/inc\xmc_eth_mac.h ****   XMC_ETH_MAC_TX_FRAME_EVENT     = 0x2U, /**< Generate event when frame is transmitted */
 197:C:/Files/Projects/Git/XMCLib/inc\xmc_eth_mac.h ****   XMC_ETH_MAC_TX_FRAME_TIMESTAMP = 0x4U  /**< Capture frame time stamp */
 198:C:/Files/Projects/Git/XMCLib/inc\xmc_eth_mac.h **** } XMC_ETH_MAC_TX_FRAME_t;
 199:C:/Files/Projects/Git/XMCLib/inc\xmc_eth_mac.h **** 
 200:C:/Files/Projects/Git/XMCLib/inc\xmc_eth_mac.h **** /**
 201:C:/Files/Projects/Git/XMCLib/inc\xmc_eth_mac.h ****  * ETH MAC event
 202:C:/Files/Projects/Git/XMCLib/inc\xmc_eth_mac.h ****  */
 203:C:/Files/Projects/Git/XMCLib/inc\xmc_eth_mac.h **** typedef enum XMC_ETH_MAC_EVENT
 204:C:/Files/Projects/Git/XMCLib/inc\xmc_eth_mac.h **** {
 205:C:/Files/Projects/Git/XMCLib/inc\xmc_eth_mac.h ****   XMC_ETH_MAC_EVENT_PMT = ETH_INTERRUPT_MASK_PMTIM_Msk << 16,        /**< Power management event */
 206:C:/Files/Projects/Git/XMCLib/inc\xmc_eth_mac.h ****   XMC_ETH_MAC_EVENT_TIMESTAMP = ETH_INTERRUPT_MASK_TSIM_Msk << 16,   /**< Time stamp event */
 207:C:/Files/Projects/Git/XMCLib/inc\xmc_eth_mac.h ****   XMC_ETH_MAC_EVENT_EARLY_RECEIVE = ETH_STATUS_ERI_Msk,              /**< Early receive */
 208:C:/Files/Projects/Git/XMCLib/inc\xmc_eth_mac.h ****   XMC_ETH_MAC_EVENT_BUS_ERROR = ETH_STATUS_FBI_Msk,                  /**< Bus error */
 209:C:/Files/Projects/Git/XMCLib/inc\xmc_eth_mac.h ****   XMC_ETH_MAC_EVENT_EARLY_TRANSMIT = ETH_STATUS_ETI_Msk,             /**< Early transmit */
 210:C:/Files/Projects/Git/XMCLib/inc\xmc_eth_mac.h ****   XMC_ETH_MAC_EVENT_RECEIVE_WATCHDOG_TIMEOUT = ETH_STATUS_RWT_Msk,   /**< Receive watchdog time-out
 211:C:/Files/Projects/Git/XMCLib/inc\xmc_eth_mac.h ****   XMC_ETH_MAC_EVENT_RECEIVE_PROCESS_STOPPED = ETH_STATUS_RPS_Msk,    /**< Receive process stopped *
 212:C:/Files/Projects/Git/XMCLib/inc\xmc_eth_mac.h ****   XMC_ETH_MAC_EVENT_RECEIVE_BUFFER_UNAVAILABLE = ETH_STATUS_RU_Msk,  /**< Receive buffer unavailabl
 213:C:/Files/Projects/Git/XMCLib/inc\xmc_eth_mac.h ****   XMC_ETH_MAC_EVENT_RECEIVE = ETH_STATUS_RI_Msk,                     /**< Receive event */
 214:C:/Files/Projects/Git/XMCLib/inc\xmc_eth_mac.h ****   XMC_ETH_MAC_EVENT_TRANSMIT_UNDERFLOW = ETH_STATUS_UNF_Msk,         /**< Transmit underflow */
 215:C:/Files/Projects/Git/XMCLib/inc\xmc_eth_mac.h ****   XMC_ETH_MAC_EVENT_RECEIVE_OVERFLOW = ETH_STATUS_OVF_Msk,           /**< Receive overflow */
 216:C:/Files/Projects/Git/XMCLib/inc\xmc_eth_mac.h ****   XMC_ETH_MAC_EVENT_TRANSMIT_JABBER_TIMEOUT = ETH_STATUS_TJT_Msk,    /**< Transmit jabber time-out 
 217:C:/Files/Projects/Git/XMCLib/inc\xmc_eth_mac.h ****   XMC_ETH_MAC_EVENT_TRANSMIT_BUFFER_UNAVAILABLE = ETH_STATUS_TU_Msk, /**< Transmit buffer unavailab
 218:C:/Files/Projects/Git/XMCLib/inc\xmc_eth_mac.h ****   XMC_ETH_MAC_EVENT_TRANSMIT_PROCESS_STOPPED = ETH_STATUS_TPS_Msk,   /**< Transmit process stopped 
 219:C:/Files/Projects/Git/XMCLib/inc\xmc_eth_mac.h ****   XMC_ETH_MAC_EVENT_TRANSMIT = ETH_STATUS_TI_Msk                     /**< Transmit event */
 220:C:/Files/Projects/Git/XMCLib/inc\xmc_eth_mac.h **** } XMC_ETH_MAC_EVENT_t;
 221:C:/Files/Projects/Git/XMCLib/inc\xmc_eth_mac.h **** 
 222:C:/Files/Projects/Git/XMCLib/inc\xmc_eth_mac.h **** /**
 223:C:/Files/Projects/Git/XMCLib/inc\xmc_eth_mac.h ****  * Link interface
 224:C:/Files/Projects/Git/XMCLib/inc\xmc_eth_mac.h ****  */
 225:C:/Files/Projects/Git/XMCLib/inc\xmc_eth_mac.h **** typedef enum XMC_ETH_LINK_INTERFACE
 226:C:/Files/Projects/Git/XMCLib/inc\xmc_eth_mac.h **** {
 227:C:/Files/Projects/Git/XMCLib/inc\xmc_eth_mac.h ****   XMC_ETH_LINK_INTERFACE_MII, /**< Link interface: Media independent interface */
 228:C:/Files/Projects/Git/XMCLib/inc\xmc_eth_mac.h ****   XMC_ETH_LINK_INTERFACE_RMII /**< Link interface: Reduced media independent interface */
 229:C:/Files/Projects/Git/XMCLib/inc\xmc_eth_mac.h **** } XMC_ETH_LINK_INTERFACE_t;
 230:C:/Files/Projects/Git/XMCLib/inc\xmc_eth_mac.h **** 
 231:C:/Files/Projects/Git/XMCLib/inc\xmc_eth_mac.h **** /**
 232:C:/Files/Projects/Git/XMCLib/inc\xmc_eth_mac.h ****  * ETH link status
 233:C:/Files/Projects/Git/XMCLib/inc\xmc_eth_mac.h ****  */
 234:C:/Files/Projects/Git/XMCLib/inc\xmc_eth_mac.h **** typedef enum XMC_ETH_LINK_STATUS
 235:C:/Files/Projects/Git/XMCLib/inc\xmc_eth_mac.h **** {
 236:C:/Files/Projects/Git/XMCLib/inc\xmc_eth_mac.h ****   XMC_ETH_LINK_STATUS_DOWN, /**< Link status down */
 237:C:/Files/Projects/Git/XMCLib/inc\xmc_eth_mac.h ****   XMC_ETH_LINK_STATUS_UP    /**< Link status up */
 238:C:/Files/Projects/Git/XMCLib/inc\xmc_eth_mac.h **** } XMC_ETH_LINK_STATUS_t;
 239:C:/Files/Projects/Git/XMCLib/inc\xmc_eth_mac.h **** 
 240:C:/Files/Projects/Git/XMCLib/inc\xmc_eth_mac.h **** /**
 241:C:/Files/Projects/Git/XMCLib/inc\xmc_eth_mac.h ****  * ETH link speed
 242:C:/Files/Projects/Git/XMCLib/inc\xmc_eth_mac.h ****  */
 243:C:/Files/Projects/Git/XMCLib/inc\xmc_eth_mac.h **** typedef enum XMC_ETH_LINK_SPEED
 244:C:/Files/Projects/Git/XMCLib/inc\xmc_eth_mac.h **** {
 245:C:/Files/Projects/Git/XMCLib/inc\xmc_eth_mac.h ****   XMC_ETH_LINK_SPEED_10M  = 0UL << ETH_MAC_CONFIGURATION_FES_Pos, /**< Link speed: 10M */
 246:C:/Files/Projects/Git/XMCLib/inc\xmc_eth_mac.h ****   XMC_ETH_LINK_SPEED_100M = 1UL << ETH_MAC_CONFIGURATION_FES_Pos  /**< Link speed: 100M */
 247:C:/Files/Projects/Git/XMCLib/inc\xmc_eth_mac.h **** } XMC_ETH_LINK_SPEED_t;
 248:C:/Files/Projects/Git/XMCLib/inc\xmc_eth_mac.h **** 
 249:C:/Files/Projects/Git/XMCLib/inc\xmc_eth_mac.h **** /**
 250:C:/Files/Projects/Git/XMCLib/inc\xmc_eth_mac.h ****  * ETH duplex settings (full/half?)
 251:C:/Files/Projects/Git/XMCLib/inc\xmc_eth_mac.h ****  */
 252:C:/Files/Projects/Git/XMCLib/inc\xmc_eth_mac.h **** typedef enum XMC_ETH_LINK_DUPLEX
 253:C:/Files/Projects/Git/XMCLib/inc\xmc_eth_mac.h **** {
 254:C:/Files/Projects/Git/XMCLib/inc\xmc_eth_mac.h ****   XMC_ETH_LINK_DUPLEX_HALF = 0UL << ETH_MAC_CONFIGURATION_DM_Pos, /**< Half duplex */
 255:C:/Files/Projects/Git/XMCLib/inc\xmc_eth_mac.h ****   XMC_ETH_LINK_DUPLEX_FULL = 1UL << ETH_MAC_CONFIGURATION_DM_Pos  /**< Full duplex */
 256:C:/Files/Projects/Git/XMCLib/inc\xmc_eth_mac.h **** } XMC_ETH_LINK_DUPLEX_t;
 257:C:/Files/Projects/Git/XMCLib/inc\xmc_eth_mac.h **** 
 258:C:/Files/Projects/Git/XMCLib/inc\xmc_eth_mac.h **** /**
 259:C:/Files/Projects/Git/XMCLib/inc\xmc_eth_mac.h ****  * MAC address filter
 260:C:/Files/Projects/Git/XMCLib/inc\xmc_eth_mac.h ****  */
 261:C:/Files/Projects/Git/XMCLib/inc\xmc_eth_mac.h **** typedef enum XMC_ETH_MAC_ADDR_FILTER
 262:C:/Files/Projects/Git/XMCLib/inc\xmc_eth_mac.h **** {
 263:C:/Files/Projects/Git/XMCLib/inc\xmc_eth_mac.h ****   XMC_ETH_MAC_ADDR_FILTER_MASK_BYTE0 = 0x01000000UL, /**< Address filter mask: byte 0 */
 264:C:/Files/Projects/Git/XMCLib/inc\xmc_eth_mac.h ****   XMC_ETH_MAC_ADDR_FILTER_MASK_BYTE1 = 0x02000000UL, /**< Address filter mask: byte 1 */
 265:C:/Files/Projects/Git/XMCLib/inc\xmc_eth_mac.h ****   XMC_ETH_MAC_ADDR_FILTER_MASK_BYTE2 = 0x04000000UL, /**< Address filter mask: byte 2 */
 266:C:/Files/Projects/Git/XMCLib/inc\xmc_eth_mac.h ****   XMC_ETH_MAC_ADDR_FILTER_MASK_BYTE3 = 0x08000000UL, /**< Address filter mask: byte 3 */
 267:C:/Files/Projects/Git/XMCLib/inc\xmc_eth_mac.h ****   XMC_ETH_MAC_ADDR_FILTER_MASK_BYTE4 = 0x10000000UL, /**< Address filter mask: byte 4 */
 268:C:/Files/Projects/Git/XMCLib/inc\xmc_eth_mac.h ****   XMC_ETH_MAC_ADDR_FILTER_MASK_BYTE5 = 0x20000000UL, /**< Address filter mask: byte 5 */
 269:C:/Files/Projects/Git/XMCLib/inc\xmc_eth_mac.h ****   XMC_ETH_MAC_ADDR_FILTER_SA         = 0x40000000UL  /**< Address filter SA */
 270:C:/Files/Projects/Git/XMCLib/inc\xmc_eth_mac.h **** } XMC_ETH_MAC_ADDR_FILTER_t;
 271:C:/Files/Projects/Git/XMCLib/inc\xmc_eth_mac.h **** 
 272:C:/Files/Projects/Git/XMCLib/inc\xmc_eth_mac.h **** /**
 273:C:/Files/Projects/Git/XMCLib/inc\xmc_eth_mac.h ****  * Power management events that triggers a PMT interrupt
 274:C:/Files/Projects/Git/XMCLib/inc\xmc_eth_mac.h ****  */
 275:C:/Files/Projects/Git/XMCLib/inc\xmc_eth_mac.h **** typedef enum XMC_ETH_MAC_PMT_EVENT
 276:C:/Files/Projects/Git/XMCLib/inc\xmc_eth_mac.h **** {
 277:C:/Files/Projects/Git/XMCLib/inc\xmc_eth_mac.h ****   XMC_ETH_MAC_PMT_EVENT_ON_WAKEUP_FRAME         = ETH_PMT_CONTROL_STATUS_RWKPKTEN_Msk,  /**< Wakeup
 278:C:/Files/Projects/Git/XMCLib/inc\xmc_eth_mac.h ****   XMC_ETH_MAC_PMT_EVENT_ON_MAGIC_PACKET         = ETH_PMT_CONTROL_STATUS_MGKPKTEN_Msk,  /**< Magic 
 279:C:/Files/Projects/Git/XMCLib/inc\xmc_eth_mac.h ****   XMC_ETH_MAC_PMT_EVENT_ON_UNICAST_FRAME_FILTER = ETH_PMT_CONTROL_STATUS_GLBLUCAST_Msk  /**< Unicas
 280:C:/Files/Projects/Git/XMCLib/inc\xmc_eth_mac.h **** } XMC_ETH_MAC_PMT_EVENT_t;
 281:C:/Files/Projects/Git/XMCLib/inc\xmc_eth_mac.h **** 
 282:C:/Files/Projects/Git/XMCLib/inc\xmc_eth_mac.h **** 
 283:C:/Files/Projects/Git/XMCLib/inc\xmc_eth_mac.h **** /**
 284:C:/Files/Projects/Git/XMCLib/inc\xmc_eth_mac.h ****  * ETH MAC time-stamp configuration enable
 285:C:/Files/Projects/Git/XMCLib/inc\xmc_eth_mac.h ****  */
 286:C:/Files/Projects/Git/XMCLib/inc\xmc_eth_mac.h **** typedef enum XMC_ETH_MAC_TIMESTAMP_CONFIG
 287:C:/Files/Projects/Git/XMCLib/inc\xmc_eth_mac.h **** {
 288:C:/Files/Projects/Git/XMCLib/inc\xmc_eth_mac.h ****   XMC_ETH_MAC_TIMESTAMP_CONFIG_FINE_UPDATE = ETH_TIMESTAMP_CONTROL_TSCFUPDT_Msk,             /**< F
 289:C:/Files/Projects/Git/XMCLib/inc\xmc_eth_mac.h ****   XMC_ETH_MAC_TIMESTAMP_CONFIG_ENABLE_TS_INTERRUPT = ETH_TIMESTAMP_CONTROL_TSTRIG_Msk,       /**< T
 290:C:/Files/Projects/Git/XMCLib/inc\xmc_eth_mac.h ****   XMC_ETH_MAC_TIMESTAMP_CONFIG_ENABLE_ALL_FRAMES = ETH_TIMESTAMP_CONTROL_TSENALL_Msk,        /**< E
 291:C:/Files/Projects/Git/XMCLib/inc\xmc_eth_mac.h ****   XMC_ETH_MAC_TIMESTAMP_CONFIG_ENABLE_PTPV2 = ETH_TIMESTAMP_CONTROL_TSVER2ENA_Msk,           /**< P
 292:C:/Files/Projects/Git/XMCLib/inc\xmc_eth_mac.h ****   XMC_ETH_MAC_TIMESTAMP_CONFIG_ENABLE_PTP_OVER_ETHERNET = ETH_TIMESTAMP_CONTROL_TSIPENA_Msk, /**< P
 293:C:/Files/Projects/Git/XMCLib/inc\xmc_eth_mac.h ****   XMC_ETH_MAC_TIMESTAMP_CONFIG_ENABLE_PTP_OVER_IPV6 = ETH_TIMESTAMP_CONTROL_TSIPV6ENA_Msk,   /**< P
 294:C:/Files/Projects/Git/XMCLib/inc\xmc_eth_mac.h ****   XMC_ETH_MAC_TIMESTAMP_CONFIG_ENABLE_PTP_OVER_IPV4 = ETH_TIMESTAMP_CONTROL_TSIPV4ENA_Msk,   /**< P
 295:C:/Files/Projects/Git/XMCLib/inc\xmc_eth_mac.h ****   XMC_ETH_MAC_TIMESTAMP_CONFIG_ENABLE_MAC_ADDRESS_FILTER = ETH_TIMESTAMP_CONTROL_TSENMACADDR_Msk /*
 296:C:/Files/Projects/Git/XMCLib/inc\xmc_eth_mac.h **** } XMC_ETH_MAC_TIMESTAMP_CONFIG_t;
 297:C:/Files/Projects/Git/XMCLib/inc\xmc_eth_mac.h **** 
 298:C:/Files/Projects/Git/XMCLib/inc\xmc_eth_mac.h **** /**
 299:C:/Files/Projects/Git/XMCLib/inc\xmc_eth_mac.h ****  * ETH MAC time-stamp status
 300:C:/Files/Projects/Git/XMCLib/inc\xmc_eth_mac.h ****  */
 301:C:/Files/Projects/Git/XMCLib/inc\xmc_eth_mac.h **** typedef enum XMC_ETH_MAC_TIMESTAMP_STATUS
 302:C:/Files/Projects/Git/XMCLib/inc\xmc_eth_mac.h **** {
 303:C:/Files/Projects/Git/XMCLib/inc\xmc_eth_mac.h ****   XMC_ETH_MAC_TIMESTAMP_STATUS_SECONDS_OVERFLOW = ETH_TIMESTAMP_STATUS_TSSOVF_Msk,           /**< I
 304:C:/Files/Projects/Git/XMCLib/inc\xmc_eth_mac.h ****   XMC_ETH_MAC_TIMESTAMP_STATUS_TARGET_TIME_REACHED = ETH_TIMESTAMP_STATUS_TSTARGT_Msk,       /**< I
 305:C:/Files/Projects/Git/XMCLib/inc\xmc_eth_mac.h ****   XMC_ETH_MAC_TIMESTAMP_STATUS_TARGET_TIMER_ERROR = ETH_TIMESTAMP_STATUS_TSTRGTERR_Msk,      /**< S
 306:C:/Files/Projects/Git/XMCLib/inc\xmc_eth_mac.h **** } XMC_ETH_MAC_TIMESTAMP_STATUS_t;
 307:C:/Files/Projects/Git/XMCLib/inc\xmc_eth_mac.h **** 
 308:C:/Files/Projects/Git/XMCLib/inc\xmc_eth_mac.h **** 
 309:C:/Files/Projects/Git/XMCLib/inc\xmc_eth_mac.h **** /**************************************************************************************************
 310:C:/Files/Projects/Git/XMCLib/inc\xmc_eth_mac.h ****  * DATA STRUCTURES
 311:C:/Files/Projects/Git/XMCLib/inc\xmc_eth_mac.h ****  **************************************************************************************************
 312:C:/Files/Projects/Git/XMCLib/inc\xmc_eth_mac.h **** 
 313:C:/Files/Projects/Git/XMCLib/inc\xmc_eth_mac.h **** /* Anonymous structure/union guard start */
 314:C:/Files/Projects/Git/XMCLib/inc\xmc_eth_mac.h **** #if defined (__CC_ARM)
 315:C:/Files/Projects/Git/XMCLib/inc\xmc_eth_mac.h **** #pragma push
 316:C:/Files/Projects/Git/XMCLib/inc\xmc_eth_mac.h **** #pragma anon_unions
 317:C:/Files/Projects/Git/XMCLib/inc\xmc_eth_mac.h **** #elif defined (__TASKING__)
 318:C:/Files/Projects/Git/XMCLib/inc\xmc_eth_mac.h **** #pragma warning 586
 319:C:/Files/Projects/Git/XMCLib/inc\xmc_eth_mac.h **** #endif
 320:C:/Files/Projects/Git/XMCLib/inc\xmc_eth_mac.h **** 
 321:C:/Files/Projects/Git/XMCLib/inc\xmc_eth_mac.h **** /**
 322:C:/Files/Projects/Git/XMCLib/inc\xmc_eth_mac.h ****  * ETH MAC port control
 323:C:/Files/Projects/Git/XMCLib/inc\xmc_eth_mac.h ****  */
 324:C:/Files/Projects/Git/XMCLib/inc\xmc_eth_mac.h **** typedef union XMC_ETH_MAC_PORT_CTRL
 325:C:/Files/Projects/Git/XMCLib/inc\xmc_eth_mac.h **** {
 326:C:/Files/Projects/Git/XMCLib/inc\xmc_eth_mac.h ****   struct
 327:C:/Files/Projects/Git/XMCLib/inc\xmc_eth_mac.h ****   {
 328:C:/Files/Projects/Git/XMCLib/inc\xmc_eth_mac.h ****     uint32_t rxd0: 2;     /**< Receive data bit 0 (::XMC_ETH_MAC_PORT_CTRL_RXD0_t) */
 329:C:/Files/Projects/Git/XMCLib/inc\xmc_eth_mac.h ****     uint32_t rxd1: 2;     /**< Receive data bit 1 (::XMC_ETH_MAC_PORT_CTRL_RXD1_t) */
 330:C:/Files/Projects/Git/XMCLib/inc\xmc_eth_mac.h ****     uint32_t rxd2: 2;     /**< Receive data bit 2 (only MII) (::XMC_ETH_MAC_PORT_CTRL_RXD2_t) */
 331:C:/Files/Projects/Git/XMCLib/inc\xmc_eth_mac.h ****     uint32_t rxd3: 2;     /**< Receive data bit 3 (only MII) (::XMC_ETH_MAC_PORT_CTRL_RXD3_t) */
 332:C:/Files/Projects/Git/XMCLib/inc\xmc_eth_mac.h ****     uint32_t clk_rmii: 2; /**< RMII: Continuous 50 MHz reference clock.
 333:C:/Files/Projects/Git/XMCLib/inc\xmc_eth_mac.h ****                                MII: Receive clock, 25 MHz for 100Mbit/s, 2.5 MHz for 10Mbit/s
 334:C:/Files/Projects/Git/XMCLib/inc\xmc_eth_mac.h ****                                (::XMC_ETH_MAC_PORT_CTRL_CLK_RMII_t) */
 335:C:/Files/Projects/Git/XMCLib/inc\xmc_eth_mac.h ****     uint32_t crs_dv: 2;   /**< RMII: carrier sense/RX_Data valid. MII: RX_Data valid (::XMC_ETH_MAC
 336:C:/Files/Projects/Git/XMCLib/inc\xmc_eth_mac.h ****     uint32_t crs: 2;      /**< Carrier sense for only MII (::XMC_ETH_MAC_PORT_CTRL_CRS_t) */
 337:C:/Files/Projects/Git/XMCLib/inc\xmc_eth_mac.h ****     uint32_t rxer: 2;     /**< Receive error (::XMC_ETH_MAC_PORT_CTRL_RXER_t) */
 338:C:/Files/Projects/Git/XMCLib/inc\xmc_eth_mac.h ****     uint32_t col: 2;      /**< Collision Detect for only MII (::XMC_ETH_MAC_PORT_CTRL_COL_t) */
 339:C:/Files/Projects/Git/XMCLib/inc\xmc_eth_mac.h ****     uint32_t clk_tx: 2;   /**< Transmit clock (only MII), 25 MHz for 100Mbit/s, 2.5 MHz for 10Mbit/
 340:C:/Files/Projects/Git/XMCLib/inc\xmc_eth_mac.h ****     uint32_t: 2;          /**< Reserved bits */
 341:C:/Files/Projects/Git/XMCLib/inc\xmc_eth_mac.h ****     uint32_t mdio: 2;     /**< Bidirectional, push-pull management data I/O line (::XMC_ETH_MAC_POR
 342:C:/Files/Projects/Git/XMCLib/inc\xmc_eth_mac.h ****     uint32_t: 2;          /**< Reserved bits */
 343:C:/Files/Projects/Git/XMCLib/inc\xmc_eth_mac.h ****     uint32_t mode: 1;     /**< RMII or MII (::XMC_ETH_MAC_PORT_CTRL_MODE_t) */
 344:C:/Files/Projects/Git/XMCLib/inc\xmc_eth_mac.h ****   };
 345:C:/Files/Projects/Git/XMCLib/inc\xmc_eth_mac.h **** 
 346:C:/Files/Projects/Git/XMCLib/inc\xmc_eth_mac.h ****   uint32_t raw;
 347:C:/Files/Projects/Git/XMCLib/inc\xmc_eth_mac.h **** } XMC_ETH_MAC_PORT_CTRL_t;
 348:C:/Files/Projects/Git/XMCLib/inc\xmc_eth_mac.h **** 
 349:C:/Files/Projects/Git/XMCLib/inc\xmc_eth_mac.h **** /**
 350:C:/Files/Projects/Git/XMCLib/inc\xmc_eth_mac.h ****  * ETH MAC DMA descriptor
 351:C:/Files/Projects/Git/XMCLib/inc\xmc_eth_mac.h ****  */
 352:C:/Files/Projects/Git/XMCLib/inc\xmc_eth_mac.h **** typedef struct XMC_ETH_MAC_DMA_DESC
 353:C:/Files/Projects/Git/XMCLib/inc\xmc_eth_mac.h **** {
 354:C:/Files/Projects/Git/XMCLib/inc\xmc_eth_mac.h ****   volatile uint32_t status;                 /**< DMA descriptor status */
 355:C:/Files/Projects/Git/XMCLib/inc\xmc_eth_mac.h ****   volatile uint32_t length;                 /**< Descriptor length */
 356:C:/Files/Projects/Git/XMCLib/inc\xmc_eth_mac.h ****   volatile uint32_t buffer1;                /**< Buffer 1 */
 357:C:/Files/Projects/Git/XMCLib/inc\xmc_eth_mac.h ****   volatile uint32_t buffer2;                /**< Buffer 2 */
 358:C:/Files/Projects/Git/XMCLib/inc\xmc_eth_mac.h ****   volatile uint32_t extended_status;        /**< Extended status */
 359:C:/Files/Projects/Git/XMCLib/inc\xmc_eth_mac.h ****   volatile uint32_t reserved;               /**< Reserved */
 360:C:/Files/Projects/Git/XMCLib/inc\xmc_eth_mac.h ****   volatile uint32_t time_stamp_nanoseconds; /**< Time stamp low */
 361:C:/Files/Projects/Git/XMCLib/inc\xmc_eth_mac.h ****   volatile uint32_t time_stamp_seconds;     /**< Time stamp high */
 362:C:/Files/Projects/Git/XMCLib/inc\xmc_eth_mac.h **** } XMC_ETH_MAC_DMA_DESC_t;
 363:C:/Files/Projects/Git/XMCLib/inc\xmc_eth_mac.h **** 
 364:C:/Files/Projects/Git/XMCLib/inc\xmc_eth_mac.h **** /**
 365:C:/Files/Projects/Git/XMCLib/inc\xmc_eth_mac.h ****  * ETH MAC time
 366:C:/Files/Projects/Git/XMCLib/inc\xmc_eth_mac.h ****  */
 367:C:/Files/Projects/Git/XMCLib/inc\xmc_eth_mac.h **** typedef struct XMC_ETH_MAC_TIME
 368:C:/Files/Projects/Git/XMCLib/inc\xmc_eth_mac.h **** {
 369:C:/Files/Projects/Git/XMCLib/inc\xmc_eth_mac.h ****   uint32_t seconds;                 /**< Seconds */
 370:C:/Files/Projects/Git/XMCLib/inc\xmc_eth_mac.h ****   int32_t nanoseconds;              /**< Nanoseconds */
 371:C:/Files/Projects/Git/XMCLib/inc\xmc_eth_mac.h **** } XMC_ETH_MAC_TIME_t;
 372:C:/Files/Projects/Git/XMCLib/inc\xmc_eth_mac.h **** 
 373:C:/Files/Projects/Git/XMCLib/inc\xmc_eth_mac.h **** /**
 374:C:/Files/Projects/Git/XMCLib/inc\xmc_eth_mac.h ****  * ETH driver structure
 375:C:/Files/Projects/Git/XMCLib/inc\xmc_eth_mac.h ****  */
 376:C:/Files/Projects/Git/XMCLib/inc\xmc_eth_mac.h **** typedef struct XMC_ETH_MAC
 377:C:/Files/Projects/Git/XMCLib/inc\xmc_eth_mac.h **** {
 378:C:/Files/Projects/Git/XMCLib/inc\xmc_eth_mac.h ****   ETH_GLOBAL_TypeDef *regs;        /**< ETH module 0 (now, we have a single ETH module) */
 379:C:/Files/Projects/Git/XMCLib/inc\xmc_eth_mac.h ****   uint64_t address;              /**< MAC address */
 380:C:/Files/Projects/Git/XMCLib/inc\xmc_eth_mac.h ****   XMC_ETH_MAC_DMA_DESC_t *rx_desc; /**< DMA descriptor: RX */
 381:C:/Files/Projects/Git/XMCLib/inc\xmc_eth_mac.h ****   XMC_ETH_MAC_DMA_DESC_t *tx_desc; /**< DMA descriptor: TX */
 382:C:/Files/Projects/Git/XMCLib/inc\xmc_eth_mac.h ****   uint8_t *rx_buf;                /**< RX buffer */
 383:C:/Files/Projects/Git/XMCLib/inc\xmc_eth_mac.h ****   uint8_t *tx_buf;                /**< TX buffer */
 384:C:/Files/Projects/Git/XMCLib/inc\xmc_eth_mac.h ****   uint8_t *frame_end;              /**< End of assembled frame fragments */
 385:C:/Files/Projects/Git/XMCLib/inc\xmc_eth_mac.h ****   uint8_t num_rx_buf;              /**< How many RX descriptors? */
 386:C:/Files/Projects/Git/XMCLib/inc\xmc_eth_mac.h ****   uint8_t num_tx_buf;              /**< How many TX descriptors? */
 387:C:/Files/Projects/Git/XMCLib/inc\xmc_eth_mac.h ****   uint8_t tx_index;                /**< Transmit descriptor index */
 388:C:/Files/Projects/Git/XMCLib/inc\xmc_eth_mac.h ****   uint8_t rx_index;                /**< Receive descriptor index */
 389:C:/Files/Projects/Git/XMCLib/inc\xmc_eth_mac.h ****   uint8_t tx_ts_index;             /**< Transmit time-stamp descriptor index */
 390:C:/Files/Projects/Git/XMCLib/inc\xmc_eth_mac.h **** } XMC_ETH_MAC_t;
 391:C:/Files/Projects/Git/XMCLib/inc\xmc_eth_mac.h **** 
 392:C:/Files/Projects/Git/XMCLib/inc\xmc_eth_mac.h **** /* Anonymous structure/union guard end */
 393:C:/Files/Projects/Git/XMCLib/inc\xmc_eth_mac.h **** #if defined (__CC_ARM)
 394:C:/Files/Projects/Git/XMCLib/inc\xmc_eth_mac.h **** #pragma pop
 395:C:/Files/Projects/Git/XMCLib/inc\xmc_eth_mac.h **** #elif defined (__TASKING__)
 396:C:/Files/Projects/Git/XMCLib/inc\xmc_eth_mac.h **** #pragma warning restore
 397:C:/Files/Projects/Git/XMCLib/inc\xmc_eth_mac.h **** #endif
 398:C:/Files/Projects/Git/XMCLib/inc\xmc_eth_mac.h **** 
 399:C:/Files/Projects/Git/XMCLib/inc\xmc_eth_mac.h **** /**************************************************************************************************
 400:C:/Files/Projects/Git/XMCLib/inc\xmc_eth_mac.h ****  * API PROTOTYPES
 401:C:/Files/Projects/Git/XMCLib/inc\xmc_eth_mac.h ****  **************************************************************************************************
 402:C:/Files/Projects/Git/XMCLib/inc\xmc_eth_mac.h **** 
 403:C:/Files/Projects/Git/XMCLib/inc\xmc_eth_mac.h **** #ifdef __cplusplus
 404:C:/Files/Projects/Git/XMCLib/inc\xmc_eth_mac.h **** extern "C" {
 405:C:/Files/Projects/Git/XMCLib/inc\xmc_eth_mac.h **** #endif
 406:C:/Files/Projects/Git/XMCLib/inc\xmc_eth_mac.h **** 
 407:C:/Files/Projects/Git/XMCLib/inc\xmc_eth_mac.h **** /**
 408:C:/Files/Projects/Git/XMCLib/inc\xmc_eth_mac.h ****  * @param eth_mac A constant pointer to XMC_ETH_MAC_t, pointing to the ETH MAC base address
 409:C:/Files/Projects/Git/XMCLib/inc\xmc_eth_mac.h ****  * @return XMC_ETH_MAC_STATUS_t Initialization status
 410:C:/Files/Projects/Git/XMCLib/inc\xmc_eth_mac.h ****  *
 411:C:/Files/Projects/Git/XMCLib/inc\xmc_eth_mac.h ****  * \par<b>Description: </b><br>
 412:C:/Files/Projects/Git/XMCLib/inc\xmc_eth_mac.h ****  * Initialize the Ethernet MAC peripheral <br>
 413:C:/Files/Projects/Git/XMCLib/inc\xmc_eth_mac.h ****  *
 414:C:/Files/Projects/Git/XMCLib/inc\xmc_eth_mac.h ****  * \par
 415:C:/Files/Projects/Git/XMCLib/inc\xmc_eth_mac.h ****  * The function sets the link speed, applies the duplex mode, sets auto-negotiation
 416:C:/Files/Projects/Git/XMCLib/inc\xmc_eth_mac.h ****  * and loop-back settings.
 417:C:/Files/Projects/Git/XMCLib/inc\xmc_eth_mac.h ****  */
 418:C:/Files/Projects/Git/XMCLib/inc\xmc_eth_mac.h **** XMC_ETH_MAC_STATUS_t XMC_ETH_MAC_Init(XMC_ETH_MAC_t *const eth_mac);
 419:C:/Files/Projects/Git/XMCLib/inc\xmc_eth_mac.h **** 
 420:C:/Files/Projects/Git/XMCLib/inc\xmc_eth_mac.h **** /**
 421:C:/Files/Projects/Git/XMCLib/inc\xmc_eth_mac.h ****  * @param eth_mac A constant pointer to XMC_ETH_MAC_t, pointing to the ETH MAC base address
 422:C:/Files/Projects/Git/XMCLib/inc\xmc_eth_mac.h ****  * @return None
 423:C:/Files/Projects/Git/XMCLib/inc\xmc_eth_mac.h ****  *
 424:C:/Files/Projects/Git/XMCLib/inc\xmc_eth_mac.h ****  * \par<b>Description: </b><br>
 425:C:/Files/Projects/Git/XMCLib/inc\xmc_eth_mac.h ****  * Initialize the Ethernet MAC peripheral. <br>
 426:C:/Files/Projects/Git/XMCLib/inc\xmc_eth_mac.h ****  * Required when initializing the PHY, to deliver the clocks to the MAC, before MAC is reseted.
 427:C:/Files/Projects/Git/XMCLib/inc\xmc_eth_mac.h ****  * \note The module needs to be enabled before using XMC_ETH_MAC_Enable() <br>
 428:C:/Files/Projects/Git/XMCLib/inc\xmc_eth_mac.h ****  *
 429:C:/Files/Projects/Git/XMCLib/inc\xmc_eth_mac.h ****  * \par
 430:C:/Files/Projects/Git/XMCLib/inc\xmc_eth_mac.h ****  * The function sets the link speed, applies the duplex mode, sets auto-negotiation
 431:C:/Files/Projects/Git/XMCLib/inc\xmc_eth_mac.h ****  * and loop-back settings.
 432:C:/Files/Projects/Git/XMCLib/inc\xmc_eth_mac.h ****  */
 433:C:/Files/Projects/Git/XMCLib/inc\xmc_eth_mac.h **** void XMC_ETH_MAC_InitEx(XMC_ETH_MAC_t *const eth_mac);
 434:C:/Files/Projects/Git/XMCLib/inc\xmc_eth_mac.h **** 
 435:C:/Files/Projects/Git/XMCLib/inc\xmc_eth_mac.h **** /**
 436:C:/Files/Projects/Git/XMCLib/inc\xmc_eth_mac.h ****  * @param eth_mac A constant pointer to XMC_ETH_MAC_t, pointing to the ETH MAC base address
 437:C:/Files/Projects/Git/XMCLib/inc\xmc_eth_mac.h ****  * @return None
 438:C:/Files/Projects/Git/XMCLib/inc\xmc_eth_mac.h ****  *
 439:C:/Files/Projects/Git/XMCLib/inc\xmc_eth_mac.h ****  * \par<b>Description: </b><br>
 440:C:/Files/Projects/Git/XMCLib/inc\xmc_eth_mac.h ****  * Initialize the RX DMA descriptors <br>
 441:C:/Files/Projects/Git/XMCLib/inc\xmc_eth_mac.h ****  *
 442:C:/Files/Projects/Git/XMCLib/inc\xmc_eth_mac.h ****  * \par
 443:C:/Files/Projects/Git/XMCLib/inc\xmc_eth_mac.h ****  * The function initializes the RX descriptors in a chained configuration. It sets
 444:C:/Files/Projects/Git/XMCLib/inc\xmc_eth_mac.h ****  * up the status bit, control bit, buffer length and the buffer pointer.
 445:C:/Files/Projects/Git/XMCLib/inc\xmc_eth_mac.h ****  */
 446:C:/Files/Projects/Git/XMCLib/inc\xmc_eth_mac.h **** void XMC_ETH_MAC_InitRxDescriptors(XMC_ETH_MAC_t *const eth_mac);
 447:C:/Files/Projects/Git/XMCLib/inc\xmc_eth_mac.h **** 
 448:C:/Files/Projects/Git/XMCLib/inc\xmc_eth_mac.h **** /**
 449:C:/Files/Projects/Git/XMCLib/inc\xmc_eth_mac.h ****  * @param eth_mac A constant pointer to XMC_ETH_MAC_t, pointing to the ETH MAC base address
 450:C:/Files/Projects/Git/XMCLib/inc\xmc_eth_mac.h ****  * @return None
 451:C:/Files/Projects/Git/XMCLib/inc\xmc_eth_mac.h ****  *
 452:C:/Files/Projects/Git/XMCLib/inc\xmc_eth_mac.h ****  * \par<b>Description: </b><br>
 453:C:/Files/Projects/Git/XMCLib/inc\xmc_eth_mac.h ****  * Initialize the TX DMA descriptors <br>
 454:C:/Files/Projects/Git/XMCLib/inc\xmc_eth_mac.h ****  *
 455:C:/Files/Projects/Git/XMCLib/inc\xmc_eth_mac.h ****  * \par
 456:C:/Files/Projects/Git/XMCLib/inc\xmc_eth_mac.h ****  * The function initializes the TX descriptors in a chained configuration. It sets
 457:C:/Files/Projects/Git/XMCLib/inc\xmc_eth_mac.h ****  * up the status bit, control bit, buffer length and the buffer pointer.
 458:C:/Files/Projects/Git/XMCLib/inc\xmc_eth_mac.h ****  */
 459:C:/Files/Projects/Git/XMCLib/inc\xmc_eth_mac.h **** void XMC_ETH_MAC_InitTxDescriptors(XMC_ETH_MAC_t *const eth_mac);
 460:C:/Files/Projects/Git/XMCLib/inc\xmc_eth_mac.h ****  
 461:C:/Files/Projects/Git/XMCLib/inc\xmc_eth_mac.h **** /**
 462:C:/Files/Projects/Git/XMCLib/inc\xmc_eth_mac.h ****  * @param eth_mac A constant pointer to XMC_ETH_MAC_t, pointing to the ETH MAC base address
 463:C:/Files/Projects/Git/XMCLib/inc\xmc_eth_mac.h ****  * @return None
 464:C:/Files/Projects/Git/XMCLib/inc\xmc_eth_mac.h ****  *
 465:C:/Files/Projects/Git/XMCLib/inc\xmc_eth_mac.h ****  * \par<b>Description: </b><br>
 466:C:/Files/Projects/Git/XMCLib/inc\xmc_eth_mac.h ****  * Enable the Ethernet MAC peripheral <br>
 467:C:/Files/Projects/Git/XMCLib/inc\xmc_eth_mac.h ****  *
 468:C:/Files/Projects/Git/XMCLib/inc\xmc_eth_mac.h ****  * \par
 469:C:/Files/Projects/Git/XMCLib/inc\xmc_eth_mac.h ****  * The function de-asserts the peripheral reset.
 470:C:/Files/Projects/Git/XMCLib/inc\xmc_eth_mac.h ****  */
 471:C:/Files/Projects/Git/XMCLib/inc\xmc_eth_mac.h **** void XMC_ETH_MAC_Enable(XMC_ETH_MAC_t *const eth_mac);
 472:C:/Files/Projects/Git/XMCLib/inc\xmc_eth_mac.h **** 
 473:C:/Files/Projects/Git/XMCLib/inc\xmc_eth_mac.h **** /**
 474:C:/Files/Projects/Git/XMCLib/inc\xmc_eth_mac.h ****  * @param eth_mac A constant pointer to XMC_ETH_MAC_t, pointing to the ETH MAC base address
 475:C:/Files/Projects/Git/XMCLib/inc\xmc_eth_mac.h ****  * @return None
 476:C:/Files/Projects/Git/XMCLib/inc\xmc_eth_mac.h ****  *
 477:C:/Files/Projects/Git/XMCLib/inc\xmc_eth_mac.h ****  * \par<b>Description: </b><br>
 478:C:/Files/Projects/Git/XMCLib/inc\xmc_eth_mac.h ****  * Disable the Ethernet MAC peripheral <br>
 479:C:/Files/Projects/Git/XMCLib/inc\xmc_eth_mac.h ****  *
 480:C:/Files/Projects/Git/XMCLib/inc\xmc_eth_mac.h ****  * \par
 481:C:/Files/Projects/Git/XMCLib/inc\xmc_eth_mac.h ****  * The function asserts the peripheral reset.
 482:C:/Files/Projects/Git/XMCLib/inc\xmc_eth_mac.h ****  */
 483:C:/Files/Projects/Git/XMCLib/inc\xmc_eth_mac.h **** void XMC_ETH_MAC_Disable(XMC_ETH_MAC_t *const eth_mac);
 484:C:/Files/Projects/Git/XMCLib/inc\xmc_eth_mac.h **** 
 485:C:/Files/Projects/Git/XMCLib/inc\xmc_eth_mac.h **** /**
 486:C:/Files/Projects/Git/XMCLib/inc\xmc_eth_mac.h ****  * @param eth_mac A constant pointer to XMC_ETH_MAC_t, pointing to the ETH MAC base address
 487:C:/Files/Projects/Git/XMCLib/inc\xmc_eth_mac.h ****  * @return bool
 488:C:/Files/Projects/Git/XMCLib/inc\xmc_eth_mac.h ****  *
 489:C:/Files/Projects/Git/XMCLib/inc\xmc_eth_mac.h ****  * \par<b>Description: </b><br>
 490:C:/Files/Projects/Git/XMCLib/inc\xmc_eth_mac.h ****  * Check if the ETH MAC is enabled <br>
 491:C:/Files/Projects/Git/XMCLib/inc\xmc_eth_mac.h ****  *
 492:C:/Files/Projects/Git/XMCLib/inc\xmc_eth_mac.h ****  * \par
 493:C:/Files/Projects/Git/XMCLib/inc\xmc_eth_mac.h ****  * The function checks if the ETH MAC is enabled or not. It returns "true" if the
 494:C:/Files/Projects/Git/XMCLib/inc\xmc_eth_mac.h ****  * peripheral is enabled, "false" otherwise.
 495:C:/Files/Projects/Git/XMCLib/inc\xmc_eth_mac.h ****  */
 496:C:/Files/Projects/Git/XMCLib/inc\xmc_eth_mac.h **** bool XMC_ETH_MAC_IsEnabled(const XMC_ETH_MAC_t *const eth_mac);
 497:C:/Files/Projects/Git/XMCLib/inc\xmc_eth_mac.h **** 
 498:C:/Files/Projects/Git/XMCLib/inc\xmc_eth_mac.h **** /**
 499:C:/Files/Projects/Git/XMCLib/inc\xmc_eth_mac.h ****  * @param eth_mac A constant pointer to XMC_ETH_MAC_t, pointing to the ETH MAC base address
 500:C:/Files/Projects/Git/XMCLib/inc\xmc_eth_mac.h ****  * @return None
 501:C:/Files/Projects/Git/XMCLib/inc\xmc_eth_mac.h ****  *
 502:C:/Files/Projects/Git/XMCLib/inc\xmc_eth_mac.h ****  * \par<b>Description: </b><br>
 503:C:/Files/Projects/Git/XMCLib/inc\xmc_eth_mac.h ****  * Reset the ETH MAC peripheral <br>
 504:C:/Files/Projects/Git/XMCLib/inc\xmc_eth_mac.h ****  *
 505:C:/Files/Projects/Git/XMCLib/inc\xmc_eth_mac.h ****  * \par
 506:C:/Files/Projects/Git/XMCLib/inc\xmc_eth_mac.h ****  * The function resets the ETH MAC peripheral. It blocks until reset.
 507:C:/Files/Projects/Git/XMCLib/inc\xmc_eth_mac.h ****  */
 508:C:/Files/Projects/Git/XMCLib/inc\xmc_eth_mac.h **** __STATIC_INLINE void XMC_ETH_MAC_Reset(XMC_ETH_MAC_t *const eth_mac)
 509:C:/Files/Projects/Git/XMCLib/inc\xmc_eth_mac.h **** {
 510:C:/Files/Projects/Git/XMCLib/inc\xmc_eth_mac.h ****   eth_mac->regs->BUS_MODE |= (uint32_t)ETH_BUS_MODE_SWR_Msk;
 220              	 .loc 2 510 0
 221 0004 0368     	 ldr r3,[r0]
 222 0006 03F58053 	 add r3,r3,#4096
 223 000a 1A68     	 ldr r2,[r3]
 224 000c 42F00102 	 orr r2,r2,#1
 225 0010 1A60     	 str r2,[r3]
 511:C:/Files/Projects/Git/XMCLib/inc\xmc_eth_mac.h ****   while ((eth_mac->regs->BUS_MODE & (uint32_t)ETH_BUS_MODE_SWR_Msk) != 0U)
 226              	 .loc 2 511 0
 227 0012 0168     	 ldr r1,[r0]
 228 0014 01F58052 	 add r2,r1,#4096
 229              	.L18:
 230 0018 1368     	 ldr r3,[r2]
 231 001a 13F0010F 	 tst r3,#1
 232 001e FBD1     	 bne .L18
 233              	.LBE22:
 234              	.LBE21:
 227:C:/Files/Projects/Git/XMCLib/src\xmc_eth_mac.c **** 
 235              	 .loc 1 227 0
 236 0020 4FF48063 	 mov r3,#1024
 237 0024 0B60     	 str r3,[r1]
 230:C:/Files/Projects/Git/XMCLib/src\xmc_eth_mac.c **** 
 238              	 .loc 1 230 0
 239 0026 2368     	 ldr r3,[r4]
 240 0028 8022     	 movs r2,#128
 241 002a 9A61     	 str r2,[r3,#24]
 232:C:/Files/Projects/Git/XMCLib/src\xmc_eth_mac.c **** 	                              (uint32_t)ETH_OPERATION_MODE_TSF_Msk |
 242              	 .loc 1 232 0
 243 002c 2268     	 ldr r2,[r4]
 244 002e 1449     	 ldr r1,.L21
 245 0030 41F21803 	 movw r3,#4120
 246 0034 D150     	 str r1,[r2,r3]
 237:C:/Files/Projects/Git/XMCLib/src\xmc_eth_mac.c **** 	                        (uint32_t)ETH_BUS_MODE_AAL_Msk | /* the AHB interface generates all bursts
 247              	 .loc 1 237 0
 248 0036 2368     	 ldr r3,[r4]
 249 0038 03F58053 	 add r3,r3,#4096
 250 003c 114A     	 ldr r2,.L21+4
 251 003e 1A60     	 str r2,[r3]
 243:C:/Files/Projects/Git/XMCLib/src\xmc_eth_mac.c ****   XMC_ETH_MAC_InitTxDescriptors(eth_mac);
 252              	 .loc 1 243 0
 253 0040 2046     	 mov r0,r4
 254              	.LVL16:
 255 0042 FFF7FEFF 	 bl XMC_ETH_MAC_InitRxDescriptors
 256              	.LVL17:
 244:C:/Files/Projects/Git/XMCLib/src\xmc_eth_mac.c **** 
 257              	 .loc 1 244 0
 258 0046 2046     	 mov r0,r4
 259 0048 FFF7FEFF 	 bl XMC_ETH_MAC_InitTxDescriptors
 260              	.LVL18:
 247:C:/Files/Projects/Git/XMCLib/src\xmc_eth_mac.c **** 
 261              	 .loc 1 247 0
 262 004c 2268     	 ldr r2,[r4]
 263 004e 4FF0FF31 	 mov r1,#-1
 264 0052 41F21403 	 movw r3,#4116
 265 0056 D150     	 str r1,[r2,r3]
 250:C:/Files/Projects/Git/XMCLib/src\xmc_eth_mac.c ****   eth_mac->regs->MMC_RECEIVE_INTERRUPT_MASK = ETH_MAC_DISABLE_MMC_INTERRUPT_MSK;
 266              	 .loc 1 250 0
 267 0058 2268     	 ldr r2,[r4]
 268 005a 6FF07C43 	 mvn r3,#-67108864
 269 005e C2F81031 	 str r3,[r2,#272]
 251:C:/Files/Projects/Git/XMCLib/src\xmc_eth_mac.c ****   eth_mac->regs->MMC_IPC_RECEIVE_INTERRUPT_MASK = ETH_MAC_DISABLE_MMC_IPC_RECEIVE_INTERRUPT_MSK;
 270              	 .loc 1 251 0
 271 0062 2268     	 ldr r2,[r4]
 272 0064 C2F80C31 	 str r3,[r2,#268]
 252:C:/Files/Projects/Git/XMCLib/src\xmc_eth_mac.c **** 
 273              	 .loc 1 252 0
 274 0068 2368     	 ldr r3,[r4]
 275 006a 6FF0C022 	 mvn r2,#-1073692672
 276 006e C3F80022 	 str r2,[r3,#512]
 255:C:/Files/Projects/Git/XMCLib/src\xmc_eth_mac.c **** 
 277              	 .loc 1 255 0
 278 0072 2368     	 ldr r3,[r4]
 279 0074 4FF40272 	 mov r2,#520
 280 0078 DA63     	 str r2,[r3,#60]
 257:C:/Files/Projects/Git/XMCLib/src\xmc_eth_mac.c **** }
 281              	 .loc 1 257 0
 282 007a 0023     	 movs r3,#0
 283 007c 2362     	 str r3,[r4,#32]
 284 007e 10BD     	 pop {r4,pc}
 285              	.LVL19:
 286              	.L22:
 287              	 .align 2
 288              	.L21:
 289 0080 04002002 	 .word 35651588
 290 0084 80200102 	 .word 33628288
 291              	 .cfi_endproc
 292              	.LFE233:
 294              	 .section .text.XMC_ETH_MAC_SetAddressEx,"ax",%progbits
 295              	 .align 2
 296              	 .global XMC_ETH_MAC_SetAddressEx
 297              	 .thumb
 298              	 .thumb_func
 300              	XMC_ETH_MAC_SetAddressEx:
 301              	.LFB237:
 328:C:/Files/Projects/Git/XMCLib/src\xmc_eth_mac.c **** 
 329:C:/Files/Projects/Git/XMCLib/src\xmc_eth_mac.c **** void XMC_ETH_MAC_SetAddressEx(XMC_ETH_MAC_t *const eth_mac, uint8_t *const addr)
 330:C:/Files/Projects/Git/XMCLib/src\xmc_eth_mac.c **** {
 302              	 .loc 1 330 0
 303              	 .cfi_startproc
 304              	 
 305              	 
 306              	 
 307              	.LVL20:
 308 0000 10B4     	 push {r4}
 309              	.LCFI5:
 310              	 .cfi_def_cfa_offset 4
 311              	 .cfi_offset 4,-4
 331:C:/Files/Projects/Git/XMCLib/src\xmc_eth_mac.c ****   eth_mac->regs->MAC_ADDRESS0_HIGH = addr[4] | (addr[5] << 8); 
 312              	 .loc 1 331 0
 313 0002 0268     	 ldr r2,[r0]
 314 0004 4C79     	 ldrb r4,[r1,#5]
 315 0006 0B79     	 ldrb r3,[r1,#4]
 316 0008 43EA0423 	 orr r3,r3,r4,lsl#8
 317 000c 1364     	 str r3,[r2,#64]
 332:C:/Files/Projects/Git/XMCLib/src\xmc_eth_mac.c ****   eth_mac->regs->MAC_ADDRESS0_LOW = addr[0] | (addr[1] << 8) | (addr[2] << 16) | (addr[3] << 24); 
 318              	 .loc 1 332 0
 319 000e 0068     	 ldr r0,[r0]
 320              	.LVL21:
 321 0010 4A78     	 ldrb r2,[r1,#1]
 322 0012 8B78     	 ldrb r3,[r1,#2]
 323 0014 1B04     	 lsls r3,r3,#16
 324 0016 43EA0223 	 orr r3,r3,r2,lsl#8
 325 001a 0A78     	 ldrb r2,[r1]
 326 001c 1343     	 orrs r3,r3,r2
 327 001e CA78     	 ldrb r2,[r1,#3]
 328 0020 43EA0263 	 orr r3,r3,r2,lsl#24
 329 0024 4364     	 str r3,[r0,#68]
 333:C:/Files/Projects/Git/XMCLib/src\xmc_eth_mac.c **** }
 330              	 .loc 1 333 0
 331 0026 5DF8044B 	 ldr r4,[sp],#4
 332              	.LCFI6:
 333              	 .cfi_restore 4
 334              	 .cfi_def_cfa_offset 0
 335 002a 7047     	 bx lr
 336              	 .cfi_endproc
 337              	.LFE237:
 339              	 .section .text.XMC_ETH_MAC_GetAddressEx,"ax",%progbits
 340              	 .align 2
 341              	 .global XMC_ETH_MAC_GetAddressEx
 342              	 .thumb
 343              	 .thumb_func
 345              	XMC_ETH_MAC_GetAddressEx:
 346              	.LFB238:
 334:C:/Files/Projects/Git/XMCLib/src\xmc_eth_mac.c **** 
 335:C:/Files/Projects/Git/XMCLib/src\xmc_eth_mac.c **** void XMC_ETH_MAC_GetAddressEx(XMC_ETH_MAC_t *const eth_mac, uint8_t *const addr)
 336:C:/Files/Projects/Git/XMCLib/src\xmc_eth_mac.c **** {
 347              	 .loc 1 336 0
 348              	 .cfi_startproc
 349              	 
 350              	 
 351              	 
 352              	.LVL22:
 337:C:/Files/Projects/Git/XMCLib/src\xmc_eth_mac.c ****   uint32_t low_addr = eth_mac->regs->MAC_ADDRESS0_LOW;
 353              	 .loc 1 337 0
 354 0000 0268     	 ldr r2,[r0]
 355 0002 536C     	 ldr r3,[r2,#68]
 356              	.LVL23:
 338:C:/Files/Projects/Git/XMCLib/src\xmc_eth_mac.c ****   uint32_t high_addr = eth_mac->regs->MAC_ADDRESS0_HIGH;
 357              	 .loc 1 338 0
 358 0004 126C     	 ldr r2,[r2,#64]
 359              	.LVL24:
 339:C:/Files/Projects/Git/XMCLib/src\xmc_eth_mac.c **** 
 340:C:/Files/Projects/Git/XMCLib/src\xmc_eth_mac.c ****   addr[0] = low_addr & 0xff;
 360              	 .loc 1 340 0
 361 0006 0B70     	 strb r3,[r1]
 341:C:/Files/Projects/Git/XMCLib/src\xmc_eth_mac.c ****   addr[1] = (low_addr >> 8) & 0xff;
 362              	 .loc 1 341 0
 363 0008 180A     	 lsrs r0,r3,#8
 364              	.LVL25:
 365 000a 4870     	 strb r0,[r1,#1]
 342:C:/Files/Projects/Git/XMCLib/src\xmc_eth_mac.c ****   addr[2] = (low_addr >> 16) & 0xff;
 366              	 .loc 1 342 0
 367 000c 180C     	 lsrs r0,r3,#16
 368 000e 8870     	 strb r0,[r1,#2]
 343:C:/Files/Projects/Git/XMCLib/src\xmc_eth_mac.c ****   addr[3] = (low_addr >> 24) & 0xff;
 369              	 .loc 1 343 0
 370 0010 1B0E     	 lsrs r3,r3,#24
 371              	.LVL26:
 372 0012 CB70     	 strb r3,[r1,#3]
 344:C:/Files/Projects/Git/XMCLib/src\xmc_eth_mac.c ****   addr[4] = high_addr & 0xff;
 373              	 .loc 1 344 0
 374 0014 0A71     	 strb r2,[r1,#4]
 345:C:/Files/Projects/Git/XMCLib/src\xmc_eth_mac.c ****   addr[5] = (high_addr >> 8) & 0xff;
 375              	 .loc 1 345 0
 376 0016 120A     	 lsrs r2,r2,#8
 377              	.LVL27:
 378 0018 4A71     	 strb r2,[r1,#5]
 379 001a 7047     	 bx lr
 380              	 .cfi_endproc
 381              	.LFE238:
 383              	 .section .text.XMC_ETH_MAC_SetAddressPerfectFilter,"ax",%progbits
 384              	 .align 2
 385              	 .global XMC_ETH_MAC_SetAddressPerfectFilter
 386              	 .thumb
 387              	 .thumb_func
 389              	XMC_ETH_MAC_SetAddressPerfectFilter:
 390              	.LFB239:
 346:C:/Files/Projects/Git/XMCLib/src\xmc_eth_mac.c **** }
 347:C:/Files/Projects/Git/XMCLib/src\xmc_eth_mac.c **** 
 348:C:/Files/Projects/Git/XMCLib/src\xmc_eth_mac.c **** /* Set address perfect filter */
 349:C:/Files/Projects/Git/XMCLib/src\xmc_eth_mac.c **** void XMC_ETH_MAC_SetAddressPerfectFilter(XMC_ETH_MAC_t *const eth_mac,
 350:C:/Files/Projects/Git/XMCLib/src\xmc_eth_mac.c ****                                          uint8_t index,
 351:C:/Files/Projects/Git/XMCLib/src\xmc_eth_mac.c ****                                          const uint64_t addr,
 352:C:/Files/Projects/Git/XMCLib/src\xmc_eth_mac.c ****                                          uint32_t flags)
 353:C:/Files/Projects/Git/XMCLib/src\xmc_eth_mac.c **** {
 391              	 .loc 1 353 0
 392              	 .cfi_startproc
 393              	 
 394              	 
 395              	 
 396              	.LVL28:
 397 0000 30B4     	 push {r4,r5}
 398              	.LCFI7:
 399              	 .cfi_def_cfa_offset 8
 400              	 .cfi_offset 4,-8
 401              	 .cfi_offset 5,-4
 354:C:/Files/Projects/Git/XMCLib/src\xmc_eth_mac.c ****   __IO uint32_t *reg;
 355:C:/Files/Projects/Git/XMCLib/src\xmc_eth_mac.c **** 
 356:C:/Files/Projects/Git/XMCLib/src\xmc_eth_mac.c ****   XMC_ASSERT("XMC_ETH_MAC_SetAddressPerfectFilter: eth_mac is invalid", XMC_ETH_MAC_IsValidModule(e
 357:C:/Files/Projects/Git/XMCLib/src\xmc_eth_mac.c ****   XMC_ASSERT("XMC_ETH_MAC_SetAddressFilter: index is out of range", ((index > 0) && (index < 4)));
 358:C:/Files/Projects/Git/XMCLib/src\xmc_eth_mac.c **** 
 359:C:/Files/Projects/Git/XMCLib/src\xmc_eth_mac.c ****   reg = &(eth_mac->regs->MAC_ADDRESS0_HIGH);
 402              	 .loc 1 359 0
 403 0002 0068     	 ldr r0,[r0]
 404              	.LVL29:
 405 0004 4030     	 adds r0,r0,#64
 406              	.LVL30:
 360:C:/Files/Projects/Git/XMCLib/src\xmc_eth_mac.c ****   reg[index] = (uint32_t)(addr >> 32U) | flags;
 407              	 .loc 1 360 0
 408 0006 8C00     	 lsls r4,r1,#2
 409 0008 029D     	 ldr r5,[sp,#8]
 410 000a 2B43     	 orrs r3,r3,r5
 411 000c 40F82130 	 str r3,[r0,r1,lsl#2]
 361:C:/Files/Projects/Git/XMCLib/src\xmc_eth_mac.c ****   reg[index + 1U] = (uint32_t)addr;
 412              	 .loc 1 361 0
 413 0010 0434     	 adds r4,r4,#4
 414 0012 0251     	 str r2,[r0,r4]
 362:C:/Files/Projects/Git/XMCLib/src\xmc_eth_mac.c **** }
 415              	 .loc 1 362 0
 416 0014 30BC     	 pop {r4,r5}
 417              	.LCFI8:
 418              	 .cfi_restore 5
 419              	 .cfi_restore 4
 420              	 .cfi_def_cfa_offset 0
 421              	.LVL31:
 422 0016 7047     	 bx lr
 423              	 .cfi_endproc
 424              	.LFE239:
 426              	 .section .text.XMC_ETH_MAC_SetAddressPerfectFilterEx,"ax",%progbits
 427              	 .align 2
 428              	 .global XMC_ETH_MAC_SetAddressPerfectFilterEx
 429              	 .thumb
 430              	 .thumb_func
 432              	XMC_ETH_MAC_SetAddressPerfectFilterEx:
 433              	.LFB240:
 363:C:/Files/Projects/Git/XMCLib/src\xmc_eth_mac.c **** 
 364:C:/Files/Projects/Git/XMCLib/src\xmc_eth_mac.c **** void XMC_ETH_MAC_SetAddressPerfectFilterEx(XMC_ETH_MAC_t *const eth_mac,
 365:C:/Files/Projects/Git/XMCLib/src\xmc_eth_mac.c ****                                            uint8_t index,
 366:C:/Files/Projects/Git/XMCLib/src\xmc_eth_mac.c ****                                            uint8_t *const addr,
 367:C:/Files/Projects/Git/XMCLib/src\xmc_eth_mac.c ****                                            uint32_t flags)
 368:C:/Files/Projects/Git/XMCLib/src\xmc_eth_mac.c **** {
 434              	 .loc 1 368 0
 435              	 .cfi_startproc
 436              	 
 437              	 
 438              	 
 439              	.LVL32:
 440 0000 70B4     	 push {r4,r5,r6}
 441              	.LCFI9:
 442              	 .cfi_def_cfa_offset 12
 443              	 .cfi_offset 4,-12
 444              	 .cfi_offset 5,-8
 445              	 .cfi_offset 6,-4
 369:C:/Files/Projects/Git/XMCLib/src\xmc_eth_mac.c ****   __IO uint32_t *reg;
 370:C:/Files/Projects/Git/XMCLib/src\xmc_eth_mac.c **** 
 371:C:/Files/Projects/Git/XMCLib/src\xmc_eth_mac.c ****   XMC_ASSERT("XMC_ETH_MAC_SetAddressPerfectFilter: eth_mac is invalid", XMC_ETH_MAC_IsValidModule(e
 372:C:/Files/Projects/Git/XMCLib/src\xmc_eth_mac.c ****   XMC_ASSERT("XMC_ETH_MAC_SetAddressFilter: index is out of range", ((index > 0) && (index < 4)));
 373:C:/Files/Projects/Git/XMCLib/src\xmc_eth_mac.c **** 
 374:C:/Files/Projects/Git/XMCLib/src\xmc_eth_mac.c ****   reg = &(eth_mac->regs->MAC_ADDRESS0_HIGH);
 446              	 .loc 1 374 0
 447 0002 0468     	 ldr r4,[r0]
 448 0004 4034     	 adds r4,r4,#64
 449              	.LVL33:
 375:C:/Files/Projects/Git/XMCLib/src\xmc_eth_mac.c ****   reg[index] = addr[4] | (addr[5] << 8) | flags; 
 450              	 .loc 1 375 0
 451 0006 8D00     	 lsls r5,r1,#2
 452 0008 5679     	 ldrb r6,[r2,#5]
 453 000a 1079     	 ldrb r0,[r2,#4]
 454              	.LVL34:
 455 000c 40EA0620 	 orr r0,r0,r6,lsl#8
 456 0010 0343     	 orrs r3,r3,r0
 457              	.LVL35:
 458 0012 44F82130 	 str r3,[r4,r1,lsl#2]
 376:C:/Files/Projects/Git/XMCLib/src\xmc_eth_mac.c ****   reg[index + 1U] = addr[0] | (addr[1] << 8) | (addr[2] << 16) | (addr[3] << 24); 
 459              	 .loc 1 376 0
 460 0016 0435     	 adds r5,r5,#4
 461 0018 5178     	 ldrb r1,[r2,#1]
 462              	.LVL36:
 463 001a 9378     	 ldrb r3,[r2,#2]
 464 001c 1B04     	 lsls r3,r3,#16
 465 001e 43EA0123 	 orr r3,r3,r1,lsl#8
 466 0022 1178     	 ldrb r1,[r2]
 467 0024 0B43     	 orrs r3,r3,r1
 468 0026 D278     	 ldrb r2,[r2,#3]
 469              	.LVL37:
 470 0028 43EA0263 	 orr r3,r3,r2,lsl#24
 471 002c 6351     	 str r3,[r4,r5]
 377:C:/Files/Projects/Git/XMCLib/src\xmc_eth_mac.c **** }
 472              	 .loc 1 377 0
 473 002e 70BC     	 pop {r4,r5,r6}
 474              	.LCFI10:
 475              	 .cfi_restore 6
 476              	 .cfi_restore 5
 477              	 .cfi_restore 4
 478              	 .cfi_def_cfa_offset 0
 479              	.LVL38:
 480 0030 7047     	 bx lr
 481              	 .cfi_endproc
 482              	.LFE240:
 484 0032 00BF     	 .section .text.XMC_ETH_MAC_SetAddressHashFilter,"ax",%progbits
 485              	 .align 2
 486              	 .global XMC_ETH_MAC_SetAddressHashFilter
 487              	 .thumb
 488              	 .thumb_func
 490              	XMC_ETH_MAC_SetAddressHashFilter:
 491              	.LFB241:
 378:C:/Files/Projects/Git/XMCLib/src\xmc_eth_mac.c **** 
 379:C:/Files/Projects/Git/XMCLib/src\xmc_eth_mac.c **** /* Set address hash filter */
 380:C:/Files/Projects/Git/XMCLib/src\xmc_eth_mac.c **** void XMC_ETH_MAC_SetAddressHashFilter(XMC_ETH_MAC_t *const eth_mac, const uint64_t hash)
 381:C:/Files/Projects/Git/XMCLib/src\xmc_eth_mac.c **** {
 492              	 .loc 1 381 0
 493              	 .cfi_startproc
 494              	 
 495              	 
 496              	 
 497              	.LVL39:
 382:C:/Files/Projects/Git/XMCLib/src\xmc_eth_mac.c ****   eth_mac->regs->HASH_TABLE_HIGH = (uint32_t)(hash >> 32);
 498              	 .loc 1 382 0
 499 0000 0168     	 ldr r1,[r0]
 500 0002 8B60     	 str r3,[r1,#8]
 383:C:/Files/Projects/Git/XMCLib/src\xmc_eth_mac.c ****   eth_mac->regs->HASH_TABLE_LOW = (uint32_t)hash;
 501              	 .loc 1 383 0
 502 0004 0368     	 ldr r3,[r0]
 503 0006 DA60     	 str r2,[r3,#12]
 504 0008 7047     	 bx lr
 505              	 .cfi_endproc
 506              	.LFE241:
 508 000a 00BF     	 .section .text.XMC_ETH_MAC_SendFrame,"ax",%progbits
 509              	 .align 2
 510              	 .global XMC_ETH_MAC_SendFrame
 511              	 .thumb
 512              	 .thumb_func
 514              	XMC_ETH_MAC_SendFrame:
 515              	.LFB242:
 384:C:/Files/Projects/Git/XMCLib/src\xmc_eth_mac.c **** }
 385:C:/Files/Projects/Git/XMCLib/src\xmc_eth_mac.c **** 
 386:C:/Files/Projects/Git/XMCLib/src\xmc_eth_mac.c **** /* Send frame */
 387:C:/Files/Projects/Git/XMCLib/src\xmc_eth_mac.c **** XMC_ETH_MAC_STATUS_t XMC_ETH_MAC_SendFrame(XMC_ETH_MAC_t *const eth_mac, const uint8_t *frame, uint
 388:C:/Files/Projects/Git/XMCLib/src\xmc_eth_mac.c **** {
 516              	 .loc 1 388 0
 517              	 .cfi_startproc
 518              	 
 519              	 
 520              	.LVL40:
 521 0000 F8B5     	 push {r3,r4,r5,r6,r7,lr}
 522              	.LCFI11:
 523              	 .cfi_def_cfa_offset 24
 524              	 .cfi_offset 3,-24
 525              	 .cfi_offset 4,-20
 526              	 .cfi_offset 5,-16
 527              	 .cfi_offset 6,-12
 528              	 .cfi_offset 7,-8
 529              	 .cfi_offset 14,-4
 389:C:/Files/Projects/Git/XMCLib/src\xmc_eth_mac.c ****   XMC_ETH_MAC_STATUS_t status;
 390:C:/Files/Projects/Git/XMCLib/src\xmc_eth_mac.c ****   uint8_t *dst;
 391:C:/Files/Projects/Git/XMCLib/src\xmc_eth_mac.c ****   uint32_t ctrl;
 392:C:/Files/Projects/Git/XMCLib/src\xmc_eth_mac.c **** 
 393:C:/Files/Projects/Git/XMCLib/src\xmc_eth_mac.c ****   XMC_ASSERT("XMC_ETH_MAC_SendFrame:", eth_mac != NULL);
 394:C:/Files/Projects/Git/XMCLib/src\xmc_eth_mac.c ****   XMC_ASSERT("XMC_ETH_MAC_SendFrame:", eth_mac->regs == ETH0);
 395:C:/Files/Projects/Git/XMCLib/src\xmc_eth_mac.c ****   XMC_ASSERT("XMC_ETH_MAC_SendFrame:", (frame != NULL) && (len > 0));
 396:C:/Files/Projects/Git/XMCLib/src\xmc_eth_mac.c **** 
 397:C:/Files/Projects/Git/XMCLib/src\xmc_eth_mac.c ****   dst = eth_mac->frame_end;
 530              	 .loc 1 397 0
 531 0002 066A     	 ldr r6,[r0,#32]
 532              	.LVL41:
 398:C:/Files/Projects/Git/XMCLib/src\xmc_eth_mac.c **** 
 399:C:/Files/Projects/Git/XMCLib/src\xmc_eth_mac.c ****   if (eth_mac->tx_desc[eth_mac->tx_index].status & ETH_MAC_DMA_TDES0_OWN)
 533              	 .loc 1 399 0
 534 0004 90F82640 	 ldrb r4,[r0,#38]
 535 0008 6401     	 lsls r4,r4,#5
 536 000a 4769     	 ldr r7,[r0,#20]
 537 000c 07EB040E 	 add lr,r7,r4
 538 0010 3C59     	 ldr r4,[r7,r4]
 539 0012 002C     	 cmp r4,#0
 540 0014 11DA     	 bge .L32
 541              	.LVL42:
 400:C:/Files/Projects/Git/XMCLib/src\xmc_eth_mac.c ****   {
 401:C:/Files/Projects/Git/XMCLib/src\xmc_eth_mac.c ****     /* Transmitter is busy, wait */
 402:C:/Files/Projects/Git/XMCLib/src\xmc_eth_mac.c ****     status = XMC_ETH_MAC_STATUS_BUSY;
 403:C:/Files/Projects/Git/XMCLib/src\xmc_eth_mac.c ****     if (eth_mac->regs->STATUS & ETH_STATUS_TU_Msk)
 542              	 .loc 1 403 0
 543 0016 0368     	 ldr r3,[r0]
 544              	.LVL43:
 545 0018 41F21402 	 movw r2,#4116
 546              	.LVL44:
 547 001c 9A58     	 ldr r2,[r3,r2]
 548 001e 12F0040F 	 tst r2,#4
 549 0022 53D0     	 beq .L41
 404:C:/Files/Projects/Git/XMCLib/src\xmc_eth_mac.c ****     {
 405:C:/Files/Projects/Git/XMCLib/src\xmc_eth_mac.c ****       /* Receive buffer unavailable, resume DMA */
 406:C:/Files/Projects/Git/XMCLib/src\xmc_eth_mac.c ****       eth_mac->regs->STATUS = (uint32_t)ETH_STATUS_TU_Msk;
 550              	 .loc 1 406 0
 551 0024 0421     	 movs r1,#4
 552              	.LVL45:
 553 0026 41F21402 	 movw r2,#4116
 554 002a 9950     	 str r1,[r3,r2]
 407:C:/Files/Projects/Git/XMCLib/src\xmc_eth_mac.c ****       eth_mac->regs->TRANSMIT_POLL_DEMAND = 0U;
 555              	 .loc 1 407 0
 556 002c 0268     	 ldr r2,[r0]
 557 002e 0021     	 movs r1,#0
 558 0030 41F20403 	 movw r3,#4100
 559 0034 D150     	 str r1,[r2,r3]
 402:C:/Files/Projects/Git/XMCLib/src\xmc_eth_mac.c ****     if (eth_mac->regs->STATUS & ETH_STATUS_TU_Msk)
 560              	 .loc 1 402 0
 561 0036 0120     	 movs r0,#1
 562              	.LVL46:
 563 0038 F8BD     	 pop {r3,r4,r5,r6,r7,pc}
 564              	.LVL47:
 565              	.L32:
 408:C:/Files/Projects/Git/XMCLib/src\xmc_eth_mac.c ****     }
 409:C:/Files/Projects/Git/XMCLib/src\xmc_eth_mac.c **** 
 410:C:/Files/Projects/Git/XMCLib/src\xmc_eth_mac.c ****   }
 411:C:/Files/Projects/Git/XMCLib/src\xmc_eth_mac.c ****   else
 412:C:/Files/Projects/Git/XMCLib/src\xmc_eth_mac.c ****   {
 413:C:/Files/Projects/Git/XMCLib/src\xmc_eth_mac.c ****     if (dst == NULL)
 566              	 .loc 1 413 0
 567 003a 26B9     	 cbnz r6,.L34
 414:C:/Files/Projects/Git/XMCLib/src\xmc_eth_mac.c ****     {
 415:C:/Files/Projects/Git/XMCLib/src\xmc_eth_mac.c ****       /* Start of a new transmit frame */
 416:C:/Files/Projects/Git/XMCLib/src\xmc_eth_mac.c ****       dst = (uint8_t *)eth_mac->tx_desc[eth_mac->tx_index].buffer1;
 568              	 .loc 1 416 0
 569 003c DEF80860 	 ldr r6,[lr,#8]
 570              	.LVL48:
 417:C:/Files/Projects/Git/XMCLib/src\xmc_eth_mac.c ****       eth_mac->tx_desc[eth_mac->tx_index].length = len;
 571              	 .loc 1 417 0
 572 0040 CEF80420 	 str r2,[lr,#4]
 573 0044 04E0     	 b .L35
 574              	.L34:
 418:C:/Files/Projects/Git/XMCLib/src\xmc_eth_mac.c ****     }
 419:C:/Files/Projects/Git/XMCLib/src\xmc_eth_mac.c ****     else
 420:C:/Files/Projects/Git/XMCLib/src\xmc_eth_mac.c ****     {
 421:C:/Files/Projects/Git/XMCLib/src\xmc_eth_mac.c ****       /* Sending data fragments in progress */
 422:C:/Files/Projects/Git/XMCLib/src\xmc_eth_mac.c ****       eth_mac->tx_desc[eth_mac->tx_index].length += len;
 575              	 .loc 1 422 0
 576 0046 DEF80440 	 ldr r4,[lr,#4]
 577 004a 1444     	 add r4,r4,r2
 578 004c CEF80440 	 str r4,[lr,#4]
 579              	.L35:
 580 0050 1D46     	 mov r5,r3
 581 0052 0446     	 mov r4,r0
 423:C:/Files/Projects/Git/XMCLib/src\xmc_eth_mac.c ****     }
 424:C:/Files/Projects/Git/XMCLib/src\xmc_eth_mac.c **** 
 425:C:/Files/Projects/Git/XMCLib/src\xmc_eth_mac.c ****     memcpy(dst, frame, len);
 582              	 .loc 1 425 0
 583 0054 3046     	 mov r0,r6
 584              	.LVL49:
 585 0056 FFF7FEFF 	 bl memcpy
 586              	.LVL50:
 426:C:/Files/Projects/Git/XMCLib/src\xmc_eth_mac.c **** 
 427:C:/Files/Projects/Git/XMCLib/src\xmc_eth_mac.c ****     if (flags & (uint32_t)XMC_ETH_MAC_TX_FRAME_FRAGMENT)
 587              	 .loc 1 427 0
 588 005a 15F0010F 	 tst r5,#1
 589 005e 02D0     	 beq .L36
 428:C:/Files/Projects/Git/XMCLib/src\xmc_eth_mac.c ****     {
 429:C:/Files/Projects/Git/XMCLib/src\xmc_eth_mac.c ****       /* More data to come, remember current write position */
 430:C:/Files/Projects/Git/XMCLib/src\xmc_eth_mac.c ****       eth_mac->frame_end = dst;
 590              	 .loc 1 430 0
 591 0060 2662     	 str r6,[r4,#32]
 431:C:/Files/Projects/Git/XMCLib/src\xmc_eth_mac.c ****     }
 432:C:/Files/Projects/Git/XMCLib/src\xmc_eth_mac.c ****     else
 433:C:/Files/Projects/Git/XMCLib/src\xmc_eth_mac.c ****     {
 434:C:/Files/Projects/Git/XMCLib/src\xmc_eth_mac.c ****       /* Frame is now ready, send it to DMA */
 435:C:/Files/Projects/Git/XMCLib/src\xmc_eth_mac.c ****       ctrl = eth_mac->tx_desc[eth_mac->tx_index].status | ETH_MAC_DMA_TDES0_CIC;
 436:C:/Files/Projects/Git/XMCLib/src\xmc_eth_mac.c ****       ctrl &= ~(ETH_MAC_DMA_TDES0_IC | ETH_MAC_DMA_TDES0_TTSE);
 437:C:/Files/Projects/Git/XMCLib/src\xmc_eth_mac.c **** 
 438:C:/Files/Projects/Git/XMCLib/src\xmc_eth_mac.c ****       if (flags & (uint32_t)XMC_ETH_MAC_TX_FRAME_EVENT)
 439:C:/Files/Projects/Git/XMCLib/src\xmc_eth_mac.c ****       {
 440:C:/Files/Projects/Git/XMCLib/src\xmc_eth_mac.c ****       ctrl |= ETH_MAC_DMA_TDES0_IC;
 441:C:/Files/Projects/Git/XMCLib/src\xmc_eth_mac.c ****       }
 442:C:/Files/Projects/Git/XMCLib/src\xmc_eth_mac.c **** 
 443:C:/Files/Projects/Git/XMCLib/src\xmc_eth_mac.c ****       if (flags & (uint32_t)XMC_ETH_MAC_TX_FRAME_TIMESTAMP)
 444:C:/Files/Projects/Git/XMCLib/src\xmc_eth_mac.c ****       {
 445:C:/Files/Projects/Git/XMCLib/src\xmc_eth_mac.c ****       ctrl |= ETH_MAC_DMA_TDES0_TTSE;
 446:C:/Files/Projects/Git/XMCLib/src\xmc_eth_mac.c ****       }
 447:C:/Files/Projects/Git/XMCLib/src\xmc_eth_mac.c ****       eth_mac->tx_ts_index = eth_mac->tx_index;
 448:C:/Files/Projects/Git/XMCLib/src\xmc_eth_mac.c **** 
 449:C:/Files/Projects/Git/XMCLib/src\xmc_eth_mac.c ****       eth_mac->tx_desc[eth_mac->tx_index].status = ctrl | ETH_MAC_DMA_TDES0_OWN;
 450:C:/Files/Projects/Git/XMCLib/src\xmc_eth_mac.c **** 
 451:C:/Files/Projects/Git/XMCLib/src\xmc_eth_mac.c ****       eth_mac->tx_index++;
 452:C:/Files/Projects/Git/XMCLib/src\xmc_eth_mac.c ****       if (eth_mac->tx_index == eth_mac->num_tx_buf)
 453:C:/Files/Projects/Git/XMCLib/src\xmc_eth_mac.c ****       {
 454:C:/Files/Projects/Git/XMCLib/src\xmc_eth_mac.c ****       eth_mac->tx_index = 0U;
 455:C:/Files/Projects/Git/XMCLib/src\xmc_eth_mac.c ****       }
 456:C:/Files/Projects/Git/XMCLib/src\xmc_eth_mac.c ****       eth_mac->frame_end = NULL;
 457:C:/Files/Projects/Git/XMCLib/src\xmc_eth_mac.c **** 
 458:C:/Files/Projects/Git/XMCLib/src\xmc_eth_mac.c ****       /* Start frame transmission */
 459:C:/Files/Projects/Git/XMCLib/src\xmc_eth_mac.c ****       eth_mac->regs->STATUS = (uint32_t)ETH_STATUS_TPS_Msk;
 460:C:/Files/Projects/Git/XMCLib/src\xmc_eth_mac.c ****       eth_mac->regs->TRANSMIT_POLL_DEMAND = 0U;
 461:C:/Files/Projects/Git/XMCLib/src\xmc_eth_mac.c ****     }
 462:C:/Files/Projects/Git/XMCLib/src\xmc_eth_mac.c ****     status = XMC_ETH_MAC_STATUS_OK;
 592              	 .loc 1 462 0
 593 0062 0020     	 movs r0,#0
 594 0064 F8BD     	 pop {r3,r4,r5,r6,r7,pc}
 595              	.LVL51:
 596              	.L36:
 435:C:/Files/Projects/Git/XMCLib/src\xmc_eth_mac.c ****       ctrl &= ~(ETH_MAC_DMA_TDES0_IC | ETH_MAC_DMA_TDES0_TTSE);
 597              	 .loc 1 435 0
 598 0066 94F82600 	 ldrb r0,[r4,#38]
 599 006a 4301     	 lsls r3,r0,#5
 600 006c 6169     	 ldr r1,[r4,#20]
 601 006e CA58     	 ldr r2,[r1,r3]
 602              	.LVL52:
 436:C:/Files/Projects/Git/XMCLib/src\xmc_eth_mac.c **** 
 603              	 .loc 1 436 0
 604 0070 22F08442 	 bic r2,r2,#1107296256
 605              	.LVL53:
 438:C:/Files/Projects/Git/XMCLib/src\xmc_eth_mac.c ****       {
 606              	 .loc 1 438 0
 607 0074 15F0020F 	 tst r5,#2
 436:C:/Files/Projects/Git/XMCLib/src\xmc_eth_mac.c **** 
 608              	 .loc 1 436 0
 609 0078 0EBF     	 itee eq
 610 007a 42F44002 	 orreq r2,r2,#12582912
 611              	.LVL54:
 440:C:/Files/Projects/Git/XMCLib/src\xmc_eth_mac.c ****       }
 612              	 .loc 1 440 0
 613 007e 42F08142 	 orrne r2,r2,#1082130432
 614 0082 42F48002 	 orrne r2,r2,#4194304
 615              	.LVL55:
 443:C:/Files/Projects/Git/XMCLib/src\xmc_eth_mac.c ****       {
 616              	 .loc 1 443 0
 617 0086 15F0040F 	 tst r5,#4
 445:C:/Files/Projects/Git/XMCLib/src\xmc_eth_mac.c ****       }
 618              	 .loc 1 445 0
 619 008a 18BF     	 it ne
 620 008c 42F00072 	 orrne r2,r2,#33554432
 621              	.LVL56:
 447:C:/Files/Projects/Git/XMCLib/src\xmc_eth_mac.c **** 
 622              	 .loc 1 447 0
 623 0090 84F82800 	 strb r0,[r4,#40]
 449:C:/Files/Projects/Git/XMCLib/src\xmc_eth_mac.c **** 
 624              	 .loc 1 449 0
 625 0094 42F00042 	 orr r2,r2,#-2147483648
 626              	.LVL57:
 627 0098 CA50     	 str r2,[r1,r3]
 451:C:/Files/Projects/Git/XMCLib/src\xmc_eth_mac.c ****       if (eth_mac->tx_index == eth_mac->num_tx_buf)
 628              	 .loc 1 451 0
 629 009a 94F82630 	 ldrb r3,[r4,#38]
 630 009e 0133     	 adds r3,r3,#1
 631 00a0 DBB2     	 uxtb r3,r3
 632 00a2 84F82630 	 strb r3,[r4,#38]
 452:C:/Files/Projects/Git/XMCLib/src\xmc_eth_mac.c ****       {
 633              	 .loc 1 452 0
 634 00a6 94F82520 	 ldrb r2,[r4,#37]
 635 00aa 9A42     	 cmp r2,r3
 454:C:/Files/Projects/Git/XMCLib/src\xmc_eth_mac.c ****       }
 636              	 .loc 1 454 0
 637 00ac 04BF     	 itt eq
 638 00ae 0023     	 moveq r3,#0
 639 00b0 84F82630 	 strbeq r3,[r4,#38]
 456:C:/Files/Projects/Git/XMCLib/src\xmc_eth_mac.c **** 
 640              	 .loc 1 456 0
 641 00b4 0020     	 movs r0,#0
 642 00b6 2062     	 str r0,[r4,#32]
 459:C:/Files/Projects/Git/XMCLib/src\xmc_eth_mac.c ****       eth_mac->regs->TRANSMIT_POLL_DEMAND = 0U;
 643              	 .loc 1 459 0
 644 00b8 2268     	 ldr r2,[r4]
 645 00ba 0221     	 movs r1,#2
 646 00bc 41F21403 	 movw r3,#4116
 647 00c0 D150     	 str r1,[r2,r3]
 460:C:/Files/Projects/Git/XMCLib/src\xmc_eth_mac.c ****     }
 648              	 .loc 1 460 0
 649 00c2 2268     	 ldr r2,[r4]
 650 00c4 41F20403 	 movw r3,#4100
 651 00c8 D050     	 str r0,[r2,r3]
 652 00ca F8BD     	 pop {r3,r4,r5,r6,r7,pc}
 653              	.LVL58:
 654              	.L41:
 402:C:/Files/Projects/Git/XMCLib/src\xmc_eth_mac.c ****     if (eth_mac->regs->STATUS & ETH_STATUS_TU_Msk)
 655              	 .loc 1 402 0
 656 00cc 0120     	 movs r0,#1
 657              	.LVL59:
 463:C:/Files/Projects/Git/XMCLib/src\xmc_eth_mac.c ****   }
 464:C:/Files/Projects/Git/XMCLib/src\xmc_eth_mac.c **** 
 465:C:/Files/Projects/Git/XMCLib/src\xmc_eth_mac.c ****   return status;
 466:C:/Files/Projects/Git/XMCLib/src\xmc_eth_mac.c **** }
 658              	 .loc 1 466 0
 659 00ce F8BD     	 pop {r3,r4,r5,r6,r7,pc}
 660              	 .cfi_endproc
 661              	.LFE242:
 663              	 .section .text.XMC_ETH_MAC_ReadFrame,"ax",%progbits
 664              	 .align 2
 665              	 .global XMC_ETH_MAC_ReadFrame
 666              	 .thumb
 667              	 .thumb_func
 669              	XMC_ETH_MAC_ReadFrame:
 670              	.LFB243:
 467:C:/Files/Projects/Git/XMCLib/src\xmc_eth_mac.c **** 
 468:C:/Files/Projects/Git/XMCLib/src\xmc_eth_mac.c **** /* Read frame */
 469:C:/Files/Projects/Git/XMCLib/src\xmc_eth_mac.c **** uint32_t XMC_ETH_MAC_ReadFrame(XMC_ETH_MAC_t *const eth_mac, uint8_t *frame, uint32_t len)
 470:C:/Files/Projects/Git/XMCLib/src\xmc_eth_mac.c **** {
 671              	 .loc 1 470 0
 672              	 .cfi_startproc
 673              	 
 674              	 
 675              	.LVL60:
 676 0000 38B5     	 push {r3,r4,r5,lr}
 677              	.LCFI12:
 678              	 .cfi_def_cfa_offset 16
 679              	 .cfi_offset 3,-16
 680              	 .cfi_offset 4,-12
 681              	 .cfi_offset 5,-8
 682              	 .cfi_offset 14,-4
 683 0002 0446     	 mov r4,r0
 684 0004 1546     	 mov r5,r2
 471:C:/Files/Projects/Git/XMCLib/src\xmc_eth_mac.c ****   uint8_t const *src;
 472:C:/Files/Projects/Git/XMCLib/src\xmc_eth_mac.c **** 
 473:C:/Files/Projects/Git/XMCLib/src\xmc_eth_mac.c ****   XMC_ASSERT("XMC_ETH_MAC_ReadFrame:", eth_mac != NULL);
 474:C:/Files/Projects/Git/XMCLib/src\xmc_eth_mac.c ****   XMC_ASSERT("XMC_ETH_MAC_ReadFrame:", eth_mac->regs == ETH0);
 475:C:/Files/Projects/Git/XMCLib/src\xmc_eth_mac.c ****   XMC_ASSERT("XMC_ETH_MAC_ReadFrame:", (frame != NULL) && (len > 0));
 476:C:/Files/Projects/Git/XMCLib/src\xmc_eth_mac.c **** 
 477:C:/Files/Projects/Git/XMCLib/src\xmc_eth_mac.c ****   /* Fast-copy data to packet buffer */
 478:C:/Files/Projects/Git/XMCLib/src\xmc_eth_mac.c ****   src = (uint8_t const *)eth_mac->rx_desc[eth_mac->rx_index].buffer1;
 685              	 .loc 1 478 0
 686 0006 90F82700 	 ldrb r0,[r0,#39]
 687              	.LVL61:
 688 000a 2369     	 ldr r3,[r4,#16]
 689 000c 03EB4013 	 add r3,r3,r0,lsl#5
 690 0010 9B68     	 ldr r3,[r3,#8]
 691              	.LVL62:
 479:C:/Files/Projects/Git/XMCLib/src\xmc_eth_mac.c **** 
 480:C:/Files/Projects/Git/XMCLib/src\xmc_eth_mac.c ****   memcpy(frame, src, len);
 692              	 .loc 1 480 0
 693 0012 0846     	 mov r0,r1
 694 0014 1946     	 mov r1,r3
 695              	.LVL63:
 696 0016 FFF7FEFF 	 bl memcpy
 697              	.LVL64:
 481:C:/Files/Projects/Git/XMCLib/src\xmc_eth_mac.c **** 
 482:C:/Files/Projects/Git/XMCLib/src\xmc_eth_mac.c ****   /* Return this block back to DMA */
 483:C:/Files/Projects/Git/XMCLib/src\xmc_eth_mac.c ****   eth_mac->rx_desc[eth_mac->rx_index].status = ETH_MAC_DMA_RDES0_OWN;
 698              	 .loc 1 483 0
 699 001a 94F82730 	 ldrb r3,[r4,#39]
 700 001e 5B01     	 lsls r3,r3,#5
 701 0020 2269     	 ldr r2,[r4,#16]
 702 0022 4FF00041 	 mov r1,#-2147483648
 703 0026 D150     	 str r1,[r2,r3]
 484:C:/Files/Projects/Git/XMCLib/src\xmc_eth_mac.c **** 
 485:C:/Files/Projects/Git/XMCLib/src\xmc_eth_mac.c ****   eth_mac->rx_index++;
 704              	 .loc 1 485 0
 705 0028 94F82730 	 ldrb r3,[r4,#39]
 706 002c 0133     	 adds r3,r3,#1
 707 002e DBB2     	 uxtb r3,r3
 708 0030 84F82730 	 strb r3,[r4,#39]
 486:C:/Files/Projects/Git/XMCLib/src\xmc_eth_mac.c ****   if (eth_mac->rx_index == eth_mac->num_rx_buf)
 709              	 .loc 1 486 0
 710 0034 94F82420 	 ldrb r2,[r4,#36]
 711 0038 9A42     	 cmp r2,r3
 487:C:/Files/Projects/Git/XMCLib/src\xmc_eth_mac.c ****   {
 488:C:/Files/Projects/Git/XMCLib/src\xmc_eth_mac.c ****     eth_mac->rx_index = 0U;
 712              	 .loc 1 488 0
 713 003a 04BF     	 itt eq
 714 003c 0023     	 moveq r3,#0
 715 003e 84F82730 	 strbeq r3,[r4,#39]
 489:C:/Files/Projects/Git/XMCLib/src\xmc_eth_mac.c ****   }
 490:C:/Files/Projects/Git/XMCLib/src\xmc_eth_mac.c **** 
 491:C:/Files/Projects/Git/XMCLib/src\xmc_eth_mac.c ****   if (eth_mac->regs->STATUS & ETH_STATUS_RU_Msk)
 716              	 .loc 1 491 0
 717 0042 2368     	 ldr r3,[r4]
 718 0044 41F21402 	 movw r2,#4116
 719 0048 9A58     	 ldr r2,[r3,r2]
 720 004a 12F0800F 	 tst r2,#128
 721 004e 08D0     	 beq .L45
 492:C:/Files/Projects/Git/XMCLib/src\xmc_eth_mac.c ****   {
 493:C:/Files/Projects/Git/XMCLib/src\xmc_eth_mac.c ****     /* Receive buffer unavailable, resume DMA */
 494:C:/Files/Projects/Git/XMCLib/src\xmc_eth_mac.c ****   eth_mac->regs->STATUS = (uint32_t)ETH_STATUS_RU_Msk;
 722              	 .loc 1 494 0
 723 0050 8021     	 movs r1,#128
 724 0052 41F21402 	 movw r2,#4116
 725 0056 9950     	 str r1,[r3,r2]
 495:C:/Files/Projects/Git/XMCLib/src\xmc_eth_mac.c ****   eth_mac->regs->RECEIVE_POLL_DEMAND = 0U;
 726              	 .loc 1 495 0
 727 0058 2268     	 ldr r2,[r4]
 728 005a 0021     	 movs r1,#0
 729 005c 41F20803 	 movw r3,#4104
 730 0060 D150     	 str r1,[r2,r3]
 731              	.L45:
 496:C:/Files/Projects/Git/XMCLib/src\xmc_eth_mac.c ****   }
 497:C:/Files/Projects/Git/XMCLib/src\xmc_eth_mac.c **** 
 498:C:/Files/Projects/Git/XMCLib/src\xmc_eth_mac.c ****   return (len);
 499:C:/Files/Projects/Git/XMCLib/src\xmc_eth_mac.c **** }
 732              	 .loc 1 499 0
 733 0062 2846     	 mov r0,r5
 734 0064 38BD     	 pop {r3,r4,r5,pc}
 735              	 .cfi_endproc
 736              	.LFE243:
 738 0066 00BF     	 .section .text.XMC_ETH_MAC_GetRxFrameSize,"ax",%progbits
 739              	 .align 2
 740              	 .global XMC_ETH_MAC_GetRxFrameSize
 741              	 .thumb
 742              	 .thumb_func
 744              	XMC_ETH_MAC_GetRxFrameSize:
 745              	.LFB244:
 500:C:/Files/Projects/Git/XMCLib/src\xmc_eth_mac.c **** 
 501:C:/Files/Projects/Git/XMCLib/src\xmc_eth_mac.c **** /* Get RX frame size */
 502:C:/Files/Projects/Git/XMCLib/src\xmc_eth_mac.c **** uint32_t XMC_ETH_MAC_GetRxFrameSize(XMC_ETH_MAC_t *const eth_mac)
 503:C:/Files/Projects/Git/XMCLib/src\xmc_eth_mac.c **** {
 746              	 .loc 1 503 0
 747              	 .cfi_startproc
 748              	 
 749              	 
 750              	 
 751              	.LVL65:
 504:C:/Files/Projects/Git/XMCLib/src\xmc_eth_mac.c ****   uint32_t status;
 505:C:/Files/Projects/Git/XMCLib/src\xmc_eth_mac.c ****   uint32_t len = 0U;
 506:C:/Files/Projects/Git/XMCLib/src\xmc_eth_mac.c **** 
 507:C:/Files/Projects/Git/XMCLib/src\xmc_eth_mac.c ****   status = eth_mac->rx_desc[eth_mac->rx_index].status;
 752              	 .loc 1 507 0
 753 0000 90F82730 	 ldrb r3,[r0,#39]
 754 0004 5B01     	 lsls r3,r3,#5
 755 0006 0269     	 ldr r2,[r0,#16]
 756 0008 D058     	 ldr r0,[r2,r3]
 757              	.LVL66:
 508:C:/Files/Projects/Git/XMCLib/src\xmc_eth_mac.c **** 
 509:C:/Files/Projects/Git/XMCLib/src\xmc_eth_mac.c ****   if (status & ETH_MAC_DMA_RDES0_OWN)
 758              	 .loc 1 509 0
 759 000a 0028     	 cmp r0,#0
 760 000c 08DB     	 blt .L49
 510:C:/Files/Projects/Git/XMCLib/src\xmc_eth_mac.c ****   {
 511:C:/Files/Projects/Git/XMCLib/src\xmc_eth_mac.c ****     /* Owned by DMA */
 512:C:/Files/Projects/Git/XMCLib/src\xmc_eth_mac.c ****     len = 0U;
 513:C:/Files/Projects/Git/XMCLib/src\xmc_eth_mac.c ****   }
 514:C:/Files/Projects/Git/XMCLib/src\xmc_eth_mac.c ****   else if (((status & ETH_MAC_DMA_RDES0_ES) != 0U) ||
 515:C:/Files/Projects/Git/XMCLib/src\xmc_eth_mac.c ****            ((status & ETH_MAC_DMA_RDES0_FS) == 0U) ||
 761              	 .loc 1 515 0
 762 000e 00F40343 	 and r3,r0,#33536
 514:C:/Files/Projects/Git/XMCLib/src\xmc_eth_mac.c ****            ((status & ETH_MAC_DMA_RDES0_FS) == 0U) ||
 763              	 .loc 1 514 0
 764 0012 B3F5407F 	 cmp r3,#768
 765 0016 05D1     	 bne .L50
 516:C:/Files/Projects/Git/XMCLib/src\xmc_eth_mac.c ****            ((status & ETH_MAC_DMA_RDES0_LS) == 0U)) 
 517:C:/Files/Projects/Git/XMCLib/src\xmc_eth_mac.c ****   {
 518:C:/Files/Projects/Git/XMCLib/src\xmc_eth_mac.c ****     /* Error, this block is invalid */
 519:C:/Files/Projects/Git/XMCLib/src\xmc_eth_mac.c ****     len = 0xFFFFFFFFU;
 520:C:/Files/Projects/Git/XMCLib/src\xmc_eth_mac.c ****   }
 521:C:/Files/Projects/Git/XMCLib/src\xmc_eth_mac.c ****   else 
 522:C:/Files/Projects/Git/XMCLib/src\xmc_eth_mac.c ****   {
 523:C:/Files/Projects/Git/XMCLib/src\xmc_eth_mac.c ****     /* Subtract CRC */
 524:C:/Files/Projects/Git/XMCLib/src\xmc_eth_mac.c ****     len = ((status & ETH_MAC_DMA_RDES0_FL) >> 16U) - 4U;
 766              	 .loc 1 524 0
 767 0018 C0F30D40 	 ubfx r0,r0,#16,#14
 768              	.LVL67:
 769 001c 0438     	 subs r0,r0,#4
 770              	.LVL68:
 771 001e 7047     	 bx lr
 772              	.LVL69:
 773              	.L49:
 512:C:/Files/Projects/Git/XMCLib/src\xmc_eth_mac.c ****   }
 774              	 .loc 1 512 0
 775 0020 0020     	 movs r0,#0
 776              	.LVL70:
 777 0022 7047     	 bx lr
 778              	.LVL71:
 779              	.L50:
 519:C:/Files/Projects/Git/XMCLib/src\xmc_eth_mac.c ****   }
 780              	 .loc 1 519 0
 781 0024 4FF0FF30 	 mov r0,#-1
 782              	.LVL72:
 525:C:/Files/Projects/Git/XMCLib/src\xmc_eth_mac.c ****   }
 526:C:/Files/Projects/Git/XMCLib/src\xmc_eth_mac.c **** 
 527:C:/Files/Projects/Git/XMCLib/src\xmc_eth_mac.c ****   return len;
 528:C:/Files/Projects/Git/XMCLib/src\xmc_eth_mac.c **** }
 783              	 .loc 1 528 0
 784 0028 7047     	 bx lr
 785              	 .cfi_endproc
 786              	.LFE244:
 788 002a 00BF     	 .section .text.XMC_ETH_MAC_SetManagmentClockDivider,"ax",%progbits
 789              	 .align 2
 790              	 .global XMC_ETH_MAC_SetManagmentClockDivider
 791              	 .thumb
 792              	 .thumb_func
 794              	XMC_ETH_MAC_SetManagmentClockDivider:
 795              	.LFB245:
 529:C:/Files/Projects/Git/XMCLib/src\xmc_eth_mac.c **** 
 530:C:/Files/Projects/Git/XMCLib/src\xmc_eth_mac.c **** /* Set management clock divider */
 531:C:/Files/Projects/Git/XMCLib/src\xmc_eth_mac.c **** XMC_ETH_MAC_STATUS_t XMC_ETH_MAC_SetManagmentClockDivider(XMC_ETH_MAC_t *const eth_mac)
 532:C:/Files/Projects/Git/XMCLib/src\xmc_eth_mac.c **** {
 796              	 .loc 1 532 0
 797              	 .cfi_startproc
 798              	 
 799              	 
 800              	 
 801              	.LVL73:
 802              	.LBB23:
 803              	.LBB24:
 804              	.LBB25:
 805              	.LBB26:
 806              	 .file 3 "C:/Files/Projects/Git/XMCLib/inc/xmc4_scu.h"
   1:C:/Files/Projects/Git/XMCLib/inc\xmc4_scu.h **** /**
   2:C:/Files/Projects/Git/XMCLib/inc\xmc4_scu.h ****  * @file xmc4_scu.h
   3:C:/Files/Projects/Git/XMCLib/inc\xmc4_scu.h ****  * @date 2019-02-18
   4:C:/Files/Projects/Git/XMCLib/inc\xmc4_scu.h ****  *
   5:C:/Files/Projects/Git/XMCLib/inc\xmc4_scu.h ****  * @cond
   6:C:/Files/Projects/Git/XMCLib/inc\xmc4_scu.h ****  **************************************************************************************************
   7:C:/Files/Projects/Git/XMCLib/inc\xmc4_scu.h ****  * XMClib v2.1.24 - XMC Peripheral Driver Library 
   8:C:/Files/Projects/Git/XMCLib/inc\xmc4_scu.h ****  *
   9:C:/Files/Projects/Git/XMCLib/inc\xmc4_scu.h ****  * Copyright (c) 2015-2019, Infineon Technologies AG
  10:C:/Files/Projects/Git/XMCLib/inc\xmc4_scu.h ****  * All rights reserved.                        
  11:C:/Files/Projects/Git/XMCLib/inc\xmc4_scu.h ****  *                                             
  12:C:/Files/Projects/Git/XMCLib/inc\xmc4_scu.h ****  * Redistribution and use in source and binary forms, with or without modification,are permitted pr
  13:C:/Files/Projects/Git/XMCLib/inc\xmc4_scu.h ****  * following conditions are met:   
  14:C:/Files/Projects/Git/XMCLib/inc\xmc4_scu.h ****  *                                                                              
  15:C:/Files/Projects/Git/XMCLib/inc\xmc4_scu.h ****  * Redistributions of source code must retain the above copyright notice, this list of conditions a
  16:C:/Files/Projects/Git/XMCLib/inc\xmc4_scu.h ****  * disclaimer.                        
  17:C:/Files/Projects/Git/XMCLib/inc\xmc4_scu.h ****  * 
  18:C:/Files/Projects/Git/XMCLib/inc\xmc4_scu.h ****  * Redistributions in binary form must reproduce the above copyright notice, this list of condition
  19:C:/Files/Projects/Git/XMCLib/inc\xmc4_scu.h ****  * disclaimer in the documentation and/or other materials provided with the distribution.          
  20:C:/Files/Projects/Git/XMCLib/inc\xmc4_scu.h ****  * 
  21:C:/Files/Projects/Git/XMCLib/inc\xmc4_scu.h ****  * Neither the name of the copyright holders nor the names of its contributors may be used to endor
  22:C:/Files/Projects/Git/XMCLib/inc\xmc4_scu.h ****  * products derived from this software without specific prior written permission.                  
  23:C:/Files/Projects/Git/XMCLib/inc\xmc4_scu.h ****  *                                                                              
  24:C:/Files/Projects/Git/XMCLib/inc\xmc4_scu.h ****  * THIS SOFTWARE IS PROVIDED BY THE COPYRIGHT HOLDERS AND CONTRIBUTORS "AS IS" AND ANY EXPRESS OR I
  25:C:/Files/Projects/Git/XMCLib/inc\xmc4_scu.h ****  * INCLUDING, BUT NOT LIMITED TO, THE IMPLIED WARRANTIES OF MERCHANTABILITY AND FITNESS FOR A PARTI
  26:C:/Files/Projects/Git/XMCLib/inc\xmc4_scu.h ****  * DISCLAIMED. IN NO EVENT SHALL THE COPYRIGHT HOLDER OR CONTRIBUTORS BE LIABLE  FOR ANY DIRECT, IN
  27:C:/Files/Projects/Git/XMCLib/inc\xmc4_scu.h ****  * SPECIAL, EXEMPLARY, OR CONSEQUENTIAL DAMAGES (INCLUDING, BUT NOT LIMITED TO, PROCUREMENT OF SUBS
  28:C:/Files/Projects/Git/XMCLib/inc\xmc4_scu.h ****  * SERVICES; LOSS OF USE, DATA, OR PROFITS; OR BUSINESS INTERRUPTION) HOWEVER CAUSED AND ON ANY THE
  29:C:/Files/Projects/Git/XMCLib/inc\xmc4_scu.h ****  * WHETHER IN CONTRACT, STRICT LIABILITY,OR TORT (INCLUDING NEGLIGENCE OR OTHERWISE) ARISING IN ANY
  30:C:/Files/Projects/Git/XMCLib/inc\xmc4_scu.h ****  * OF THIS SOFTWARE, EVEN IF ADVISED OF THE POSSIBILITY OF SUCH DAMAGE.                            
  31:C:/Files/Projects/Git/XMCLib/inc\xmc4_scu.h ****  *                                                                              
  32:C:/Files/Projects/Git/XMCLib/inc\xmc4_scu.h ****  * To improve the quality of the software, users are encouraged to share modifications, enhancement
  33:C:/Files/Projects/Git/XMCLib/inc\xmc4_scu.h ****  * Infineon Technologies AG dave@infineon.com).                                                    
  34:C:/Files/Projects/Git/XMCLib/inc\xmc4_scu.h ****  **************************************************************************************************
  35:C:/Files/Projects/Git/XMCLib/inc\xmc4_scu.h ****  *
  36:C:/Files/Projects/Git/XMCLib/inc\xmc4_scu.h ****  * Change History
  37:C:/Files/Projects/Git/XMCLib/inc\xmc4_scu.h ****  * --------------
  38:C:/Files/Projects/Git/XMCLib/inc\xmc4_scu.h ****  *
  39:C:/Files/Projects/Git/XMCLib/inc\xmc4_scu.h ****  * 2015-06-20:
  40:C:/Files/Projects/Git/XMCLib/inc\xmc4_scu.h ****  *     - Initial version
  41:C:/Files/Projects/Git/XMCLib/inc\xmc4_scu.h ****  *     - Documentation improved
  42:C:/Files/Projects/Git/XMCLib/inc\xmc4_scu.h ****  *
  43:C:/Files/Projects/Git/XMCLib/inc\xmc4_scu.h ****  * 2015-11-30:
  44:C:/Files/Projects/Git/XMCLib/inc\xmc4_scu.h ****  *     - Documentation improved
  45:C:/Files/Projects/Git/XMCLib/inc\xmc4_scu.h ****  *      
  46:C:/Files/Projects/Git/XMCLib/inc\xmc4_scu.h ****  * 2016-03-09:
  47:C:/Files/Projects/Git/XMCLib/inc\xmc4_scu.h ****  *     - Added XMC_SCU_POWER_EnableMonitor/XMC_SCU_POWER_DisableMonitor
  48:C:/Files/Projects/Git/XMCLib/inc\xmc4_scu.h ****  *             XMC_SCU_POWER_GetEVRStatus, XMC_SCU_POWER_GetEVR13Voltage, XMC_SCU_POWER_GetEVR33Vol
  49:C:/Files/Projects/Git/XMCLib/inc\xmc4_scu.h ****  *     - Added XMC_SCU_HIB_GetHibernateControlStatus,
  50:C:/Files/Projects/Git/XMCLib/inc\xmc4_scu.h ****  *             XMC_SCU_HIB_GetEventStatus, XMC_SCU_HIB_ClearEventStatus, XMC_SCU_HIB_TriggerEvent, 
  51:C:/Files/Projects/Git/XMCLib/inc\xmc4_scu.h ****  *             XMC_SCU_HIB_EnableEvent, XMC_SCU_HIB_DisableEvent
  52:C:/Files/Projects/Git/XMCLib/inc\xmc4_scu.h ****  *     - Added XMC_SCU_HIB_SetWakeupTriggerInput, XMC_SCU_HIB_SetPinMode, XMC_SCU_HIB_SetOutputPinL
  53:C:/Files/Projects/Git/XMCLib/inc\xmc4_scu.h ****  *             XMC_SCU_HIB_SetInput0, XMC_SCU_HIB_EnterHibernateState
  54:C:/Files/Projects/Git/XMCLib/inc\xmc4_scu.h ****  *
  55:C:/Files/Projects/Git/XMCLib/inc\xmc4_scu.h ****  * 2016-04-15:
  56:C:/Files/Projects/Git/XMCLib/inc\xmc4_scu.h ****  *     - Fixed naming of XMC_SCU_CLOCK_DEEPSLEEP_MODE_CONFIG peripheral clock.
  57:C:/Files/Projects/Git/XMCLib/inc\xmc4_scu.h ****  *       Added enable and disable for peripheral clocks       
  58:C:/Files/Projects/Git/XMCLib/inc\xmc4_scu.h ****  * 
  59:C:/Files/Projects/Git/XMCLib/inc\xmc4_scu.h ****  * 2016-05-19:
  60:C:/Files/Projects/Git/XMCLib/inc\xmc4_scu.h ****  *     - Added XMC_SCU_CLOCK_IsLowPowerOscillatorStable() and XMC_SCU_CLOCK_IsHighPerformanceOscill
  61:C:/Files/Projects/Git/XMCLib/inc\xmc4_scu.h ****  *     - Added XMC_SCU_POWER_WaitForInterrupt() and XMC_SCU_POWER_WaitForEvent()
  62:C:/Files/Projects/Git/XMCLib/inc\xmc4_scu.h ****  *     - Added XMC_SCU_CLOCK_EnableLowPowerOscillatorGeneralPurposeInput(), 
  63:C:/Files/Projects/Git/XMCLib/inc\xmc4_scu.h ****  *             XMC_SCU_CLOCK_DisableLowPowerOscillatorGeneralPurposeInput(),
  64:C:/Files/Projects/Git/XMCLib/inc\xmc4_scu.h ****  *             XMC_SCU_CLOCK_GetLowPowerOscillatorGeneralPurposeInputStatus()
  65:C:/Files/Projects/Git/XMCLib/inc\xmc4_scu.h ****  *     - Added XMC_SCU_CLOCK_EnableHighPerformanceOscillatorGeneralPurposeInput(), 
  66:C:/Files/Projects/Git/XMCLib/inc\xmc4_scu.h ****  *             XMC_SCU_CLOCK_DisableHighPerformanceOscillatorGeneralPurposeInput(),
  67:C:/Files/Projects/Git/XMCLib/inc\xmc4_scu.h ****  *             XMC_SCU_CLOCK_GetHighPerformanceOscillatorGeneralPurposeInputStatus()
  68:C:/Files/Projects/Git/XMCLib/inc\xmc4_scu.h ****  *     - Removed XMC_SCU_INTERRUPT_EVENT_OSCULSTAT_UPDATED, XMC_SCU_INTERRUPT_EVENT_HDSTAT_UPDATED
  69:C:/Files/Projects/Git/XMCLib/inc\xmc4_scu.h ****  *
  70:C:/Files/Projects/Git/XMCLib/inc\xmc4_scu.h ****  * 2016-06-14:
  71:C:/Files/Projects/Git/XMCLib/inc\xmc4_scu.h ****  *     - Added XMC_SCU_HIB_IsWakeupEventDetected() and XMC_SCU_HIB_ClearWakeupEventDetectionStatus(
  72:C:/Files/Projects/Git/XMCLib/inc\xmc4_scu.h ****  *
  73:C:/Files/Projects/Git/XMCLib/inc\xmc4_scu.h ****  * 2016-06-15:
  74:C:/Files/Projects/Git/XMCLib/inc\xmc4_scu.h ****  *     - Added XMC_SCU_HIB_EnterHibernateStateEx() which allows to select between external or inter
  75:C:/Files/Projects/Git/XMCLib/inc\xmc4_scu.h ****  *     - Extended wakeup hibernate events using LPAC wakeup on events. Only available in XMC44, XMC
  76:C:/Files/Projects/Git/XMCLib/inc\xmc4_scu.h ****  *     - Added LPAC APIs. Only available in XMC44, XMC42 and XMC41 series.
  77:C:/Files/Projects/Git/XMCLib/inc\xmc4_scu.h ****  *
  78:C:/Files/Projects/Git/XMCLib/inc\xmc4_scu.h ****  * 2019-02-18:
  79:C:/Files/Projects/Git/XMCLib/inc\xmc4_scu.h ****  *     - Fix conditional definition of XMC_SCU_PARITY_t elements
  80:C:/Files/Projects/Git/XMCLib/inc\xmc4_scu.h ****  *     - Added XMC_SCU_PARITY_OverrideParityBitLogic(uint32_t memory)
  81:C:/Files/Projects/Git/XMCLib/inc\xmc4_scu.h ****  *             XMC_SCU_PARITY_SelectMemoryTest(const XMC_SCU_PARITY_t memory)
  82:C:/Files/Projects/Git/XMCLib/inc\xmc4_scu.h ****  *             XMC_SCU_PARITY_SetParityWriteValue(uint8_t val)
  83:C:/Files/Projects/Git/XMCLib/inc\xmc4_scu.h ****  *             XMC_SCU_PARITY_GetParityReadValue(void)
  84:C:/Files/Projects/Git/XMCLib/inc\xmc4_scu.h ****  *
  85:C:/Files/Projects/Git/XMCLib/inc\xmc4_scu.h ****  * @endcond 
  86:C:/Files/Projects/Git/XMCLib/inc\xmc4_scu.h ****  *
  87:C:/Files/Projects/Git/XMCLib/inc\xmc4_scu.h ****  */
  88:C:/Files/Projects/Git/XMCLib/inc\xmc4_scu.h **** 
  89:C:/Files/Projects/Git/XMCLib/inc\xmc4_scu.h **** #ifndef XMC4_SCU_H
  90:C:/Files/Projects/Git/XMCLib/inc\xmc4_scu.h **** #define XMC4_SCU_H
  91:C:/Files/Projects/Git/XMCLib/inc\xmc4_scu.h **** 
  92:C:/Files/Projects/Git/XMCLib/inc\xmc4_scu.h **** /**************************************************************************************************
  93:C:/Files/Projects/Git/XMCLib/inc\xmc4_scu.h ****  * HEADER FILES
  94:C:/Files/Projects/Git/XMCLib/inc\xmc4_scu.h ****  **************************************************************************************************
  95:C:/Files/Projects/Git/XMCLib/inc\xmc4_scu.h **** 
  96:C:/Files/Projects/Git/XMCLib/inc\xmc4_scu.h **** #include "xmc_common.h"
  97:C:/Files/Projects/Git/XMCLib/inc\xmc4_scu.h **** 
  98:C:/Files/Projects/Git/XMCLib/inc\xmc4_scu.h **** #if UC_FAMILY == XMC4
  99:C:/Files/Projects/Git/XMCLib/inc\xmc4_scu.h **** 
 100:C:/Files/Projects/Git/XMCLib/inc\xmc4_scu.h **** /**
 101:C:/Files/Projects/Git/XMCLib/inc\xmc4_scu.h ****  * @addtogroup XMClib XMC Peripheral Library
 102:C:/Files/Projects/Git/XMCLib/inc\xmc4_scu.h ****  * @{
 103:C:/Files/Projects/Git/XMCLib/inc\xmc4_scu.h ****  */
 104:C:/Files/Projects/Git/XMCLib/inc\xmc4_scu.h ****  
 105:C:/Files/Projects/Git/XMCLib/inc\xmc4_scu.h **** /**
 106:C:/Files/Projects/Git/XMCLib/inc\xmc4_scu.h ****  * @addtogroup SCU
 107:C:/Files/Projects/Git/XMCLib/inc\xmc4_scu.h ****  * @{
 108:C:/Files/Projects/Git/XMCLib/inc\xmc4_scu.h ****  */
 109:C:/Files/Projects/Git/XMCLib/inc\xmc4_scu.h **** 
 110:C:/Files/Projects/Git/XMCLib/inc\xmc4_scu.h **** /**************************************************************************************************
 111:C:/Files/Projects/Git/XMCLib/inc\xmc4_scu.h ****  * MACROS
 112:C:/Files/Projects/Git/XMCLib/inc\xmc4_scu.h ****  **************************************************************************************************
 113:C:/Files/Projects/Git/XMCLib/inc\xmc4_scu.h **** #define PLL_PDIV_XTAL_8MHZ (1U)  /* PDIV value for main PLL settings, fPLL = 120MHz with fOSC = 8MH
 114:C:/Files/Projects/Git/XMCLib/inc\xmc4_scu.h **** #define PLL_NDIV_XTAL_8MHZ (89U)  /* NDIV value for main PLL settings, fPLL = 120MHz with fOSC = 8M
 115:C:/Files/Projects/Git/XMCLib/inc\xmc4_scu.h **** #define PLL_K2DIV_XTAL_8MHZ (2U)  /* K2DIV value for main PLL settings, fPLL = 120MHz with fOSC = 8
 116:C:/Files/Projects/Git/XMCLib/inc\xmc4_scu.h **** 
 117:C:/Files/Projects/Git/XMCLib/inc\xmc4_scu.h **** #define PLL_PDIV_XTAL_12MHZ (1U)  /* PDIV value for main PLL settings, fPLL = 120MHz with fOSC = 12
 118:C:/Files/Projects/Git/XMCLib/inc\xmc4_scu.h **** #define PLL_NDIV_XTAL_12MHZ (79U)  /* NDIV value for main PLL settings, fPLL = 120MHz with fOSC = 1
 119:C:/Files/Projects/Git/XMCLib/inc\xmc4_scu.h **** #define PLL_K2DIV_XTAL_12MHZ (3U)  /* K2DIV value for main PLL settings, fPLL = 120MHz with fOSC = 
 120:C:/Files/Projects/Git/XMCLib/inc\xmc4_scu.h **** 
 121:C:/Files/Projects/Git/XMCLib/inc\xmc4_scu.h **** #define PLL_PDIV_XTAL_16MHZ (1U)  /* PDIV value for main PLL settings, fPLL = 120MHz with fOSC = 16
 122:C:/Files/Projects/Git/XMCLib/inc\xmc4_scu.h **** #define PLL_NDIV_XTAL_16MHZ (59U)  /* NDIV value for main PLL settings, fPLL = 120MHz with fOSC = 1
 123:C:/Files/Projects/Git/XMCLib/inc\xmc4_scu.h **** #define PLL_K2DIV_XTAL_16MHZ (3U)  /* K2DIV value for main PLL settings, fPLL = 120MHz with fOSC = 
 124:C:/Files/Projects/Git/XMCLib/inc\xmc4_scu.h **** 
 125:C:/Files/Projects/Git/XMCLib/inc\xmc4_scu.h **** #define XMC_SCU_INTERRUPT_EVENT_WDT_WARN           SCU_INTERRUPT_SRSTAT_PRWARN_Msk /**< Watchdog pr
 126:C:/Files/Projects/Git/XMCLib/inc\xmc4_scu.h **** #define XMC_SCU_INTERRUPT_EVENT_RTC_PERIODIC       SCU_INTERRUPT_SRSTAT_PI_Msk     /**< RTC periodi
 127:C:/Files/Projects/Git/XMCLib/inc\xmc4_scu.h **** #define XMC_SCU_INTERRUPT_EVENT_RTC_ALARM          SCU_INTERRUPT_SRSTAT_AI_Msk     /**< RTC alarm e
 128:C:/Files/Projects/Git/XMCLib/inc\xmc4_scu.h **** #define XMC_SCU_INTERRUPT_EVENT_DLR_OVERRUN        SCU_INTERRUPT_SRSTAT_DLROVR_Msk /**< DLR overrun
 129:C:/Files/Projects/Git/XMCLib/inc\xmc4_scu.h **** #if defined(SCU_INTERRUPT_SRSTAT_LPACCR_Msk)
 130:C:/Files/Projects/Git/XMCLib/inc\xmc4_scu.h **** #define XMC_SCU_INTERRUPT_EVENT_LPACCR_UPDATED     SCU_INTERRUPT_SRSTAT_LPACCR_Msk /**< LPAC Contro
 131:C:/Files/Projects/Git/XMCLib/inc\xmc4_scu.h **** #endif
 132:C:/Files/Projects/Git/XMCLib/inc\xmc4_scu.h **** #if defined(SCU_INTERRUPT_SRSTAT_LPACTH0_Msk)
 133:C:/Files/Projects/Git/XMCLib/inc\xmc4_scu.h **** #define XMC_SCU_INTERRUPT_EVENT_LPACTH0_UPDATED    SCU_INTERRUPT_SRSTAT_LPACTH0_Msk /**< LPAC Thres
 134:C:/Files/Projects/Git/XMCLib/inc\xmc4_scu.h **** #endif
 135:C:/Files/Projects/Git/XMCLib/inc\xmc4_scu.h **** #if defined(SCU_INTERRUPT_SRSTAT_LPACTH1_Msk)
 136:C:/Files/Projects/Git/XMCLib/inc\xmc4_scu.h **** #define XMC_SCU_INTERRUPT_EVENT_LPACTH1_UPDATED    SCU_INTERRUPT_SRSTAT_LPACTH1_Msk  /**< LPAC Thre
 137:C:/Files/Projects/Git/XMCLib/inc\xmc4_scu.h **** #endif
 138:C:/Files/Projects/Git/XMCLib/inc\xmc4_scu.h **** #if defined(SCU_INTERRUPT_SRSTAT_LPACST_Msk)
 139:C:/Files/Projects/Git/XMCLib/inc\xmc4_scu.h **** #define XMC_SCU_INTERRUPT_EVENT_LPACST_UPDATED     SCU_INTERRUPT_SRSTAT_LPACST_Msk  /**< LPAC Statu
 140:C:/Files/Projects/Git/XMCLib/inc\xmc4_scu.h **** #endif
 141:C:/Files/Projects/Git/XMCLib/inc\xmc4_scu.h **** #if defined(SCU_INTERRUPT_SRSTAT_LPACCLR_Msk)
 142:C:/Files/Projects/Git/XMCLib/inc\xmc4_scu.h **** #define XMC_SCU_INTERRUPT_EVENT_LPACCLR_UPDATED    SCU_INTERRUPT_SRSTAT_LPACCLR_Msk /**< LPAC event
 143:C:/Files/Projects/Git/XMCLib/inc\xmc4_scu.h **** #endif
 144:C:/Files/Projects/Git/XMCLib/inc\xmc4_scu.h **** #if defined(SCU_INTERRUPT_SRSTAT_LPACSET_Msk)
 145:C:/Files/Projects/Git/XMCLib/inc\xmc4_scu.h **** #define XMC_SCU_INTERRUPT_EVENT_LPACSET_UPDATED    SCU_INTERRUPT_SRSTAT_LPACSET_Msk /**< LPAC event
 146:C:/Files/Projects/Git/XMCLib/inc\xmc4_scu.h **** #endif
 147:C:/Files/Projects/Git/XMCLib/inc\xmc4_scu.h **** #if defined(SCU_INTERRUPT_SRSTAT_HINTST_Msk)
 148:C:/Files/Projects/Git/XMCLib/inc\xmc4_scu.h **** #define XMC_SCU_INTERRUPT_EVENT_HINTST_UPDATED     SCU_INTERRUPT_SRSTAT_HINTST_Msk /**< HIB HINTST 
 149:C:/Files/Projects/Git/XMCLib/inc\xmc4_scu.h **** #endif
 150:C:/Files/Projects/Git/XMCLib/inc\xmc4_scu.h **** #if defined(SCU_INTERRUPT_SRSTAT_HINTCLR_Msk)
 151:C:/Files/Projects/Git/XMCLib/inc\xmc4_scu.h **** #define XMC_SCU_INTERRUPT_EVENT_HINTCLR_UPDATED    SCU_INTERRUPT_SRSTAT_HINTCLR_Msk /**< HIB HINTCL
 152:C:/Files/Projects/Git/XMCLib/inc\xmc4_scu.h **** #endif
 153:C:/Files/Projects/Git/XMCLib/inc\xmc4_scu.h **** #if defined(SCU_INTERRUPT_SRSTAT_HINTSET_Msk)
 154:C:/Files/Projects/Git/XMCLib/inc\xmc4_scu.h **** #define XMC_SCU_INTERRUPT_EVENT_HINTSET_UPDATED    SCU_INTERRUPT_SRSTAT_HINTSET_Msk /**< HIB HINTSE
 155:C:/Files/Projects/Git/XMCLib/inc\xmc4_scu.h **** #endif
 156:C:/Files/Projects/Git/XMCLib/inc\xmc4_scu.h **** #define XMC_SCU_INTERRUPT_EVENT_HDCLR_UPDATED      SCU_INTERRUPT_SRSTAT_HDCLR_Msk /**< HIB HDCLR re
 157:C:/Files/Projects/Git/XMCLib/inc\xmc4_scu.h **** #define XMC_SCU_INTERRUPT_EVENT_HDSET_UPDATED      SCU_INTERRUPT_SRSTAT_HDSET_Msk /**< HIB HDSET re
 158:C:/Files/Projects/Git/XMCLib/inc\xmc4_scu.h **** #define XMC_SCU_INTERRUPT_EVENT_HDCR_UPDATED       SCU_INTERRUPT_SRSTAT_HDCR_Msk /**< HIB HDCR regi
 159:C:/Files/Projects/Git/XMCLib/inc\xmc4_scu.h **** #define XMC_SCU_INTERRUPT_EVENT_OSCSICTRL_UPDATED  SCU_INTERRUPT_SRSTAT_OSCSICTRL_Msk /**< HIB OSCS
 160:C:/Files/Projects/Git/XMCLib/inc\xmc4_scu.h **** #define XMC_SCU_INTERRUPT_EVENT_OSCULCTRL_UPDATED  SCU_INTERRUPT_SRSTAT_OSCULCTRL_Msk /**< HIB OSCU
 161:C:/Files/Projects/Git/XMCLib/inc\xmc4_scu.h **** #define XMC_SCU_INTERRUPT_EVENT_RTCCTR_UPDATED     SCU_INTERRUPT_SRSTAT_RTC_CTR_Msk /**< HIB RTCCTR
 162:C:/Files/Projects/Git/XMCLib/inc\xmc4_scu.h **** #define XMC_SCU_INTERRUPT_EVENT_RTCATIM0_UPDATED   SCU_INTERRUPT_SRSTAT_RTC_ATIM0_Msk /**< HIB RTCA
 163:C:/Files/Projects/Git/XMCLib/inc\xmc4_scu.h **** #define XMC_SCU_INTERRUPT_EVENT_RTCATIM1_UPDATED   SCU_INTERRUPT_SRSTAT_RTC_ATIM1_Msk /**< HIB RTCA
 164:C:/Files/Projects/Git/XMCLib/inc\xmc4_scu.h **** #define XMC_SCU_INTERRUPT_EVENT_RTCTIM0_UPDATED    SCU_INTERRUPT_SRSTAT_RTC_TIM0_Msk /**< HIB TIM0 
 165:C:/Files/Projects/Git/XMCLib/inc\xmc4_scu.h **** #define XMC_SCU_INTERRUPT_EVENT_RTCTIM1_UPDATED    SCU_INTERRUPT_SRSTAT_RTC_TIM1_Msk /**< HIB TIM1 
 166:C:/Files/Projects/Git/XMCLib/inc\xmc4_scu.h **** #define XMC_SCU_INTERRUPT_EVENT_RMX_UPDATED        SCU_INTERRUPT_SRSTAT_RMX_Msk /**< HIB RMX regist
 167:C:/Files/Projects/Git/XMCLib/inc\xmc4_scu.h **** 
 168:C:/Files/Projects/Git/XMCLib/inc\xmc4_scu.h **** /**************************************************************************************************
 169:C:/Files/Projects/Git/XMCLib/inc\xmc4_scu.h ****  * ENUMS
 170:C:/Files/Projects/Git/XMCLib/inc\xmc4_scu.h ****  **************************************************************************************************
 171:C:/Files/Projects/Git/XMCLib/inc\xmc4_scu.h **** /**
 172:C:/Files/Projects/Git/XMCLib/inc\xmc4_scu.h ****  *  Defines Capture/Compare unit timer slice trigger, that enables synchronous start function avail
 173:C:/Files/Projects/Git/XMCLib/inc\xmc4_scu.h ****  *  CCUCON register. Use type \a XMC_SCU_CCU_TRIGGER_t for accessing these enum parameters.
 174:C:/Files/Projects/Git/XMCLib/inc\xmc4_scu.h ****  */
 175:C:/Files/Projects/Git/XMCLib/inc\xmc4_scu.h **** typedef enum XMC_SCU_CCU_TRIGGER
 176:C:/Files/Projects/Git/XMCLib/inc\xmc4_scu.h **** {
 177:C:/Files/Projects/Git/XMCLib/inc\xmc4_scu.h **** #if defined(CCU40)
 178:C:/Files/Projects/Git/XMCLib/inc\xmc4_scu.h ****   XMC_SCU_CCU_TRIGGER_CCU40 = SCU_GENERAL_CCUCON_GSC40_Msk, /**< Trigger mask used for Global Start
 179:C:/Files/Projects/Git/XMCLib/inc\xmc4_scu.h ****                                                                  CCU40 peripheral. */
 180:C:/Files/Projects/Git/XMCLib/inc\xmc4_scu.h **** #endif
 181:C:/Files/Projects/Git/XMCLib/inc\xmc4_scu.h **** #if defined(CCU41)
 182:C:/Files/Projects/Git/XMCLib/inc\xmc4_scu.h ****   XMC_SCU_CCU_TRIGGER_CCU41 = SCU_GENERAL_CCUCON_GSC41_Msk, /**< Trigger mask used for Global Start
 183:C:/Files/Projects/Git/XMCLib/inc\xmc4_scu.h ****                                                                  CCU41 peripheral. */
 184:C:/Files/Projects/Git/XMCLib/inc\xmc4_scu.h **** #endif
 185:C:/Files/Projects/Git/XMCLib/inc\xmc4_scu.h **** #if defined(CCU42)
 186:C:/Files/Projects/Git/XMCLib/inc\xmc4_scu.h ****   XMC_SCU_CCU_TRIGGER_CCU42 = SCU_GENERAL_CCUCON_GSC42_Msk, /**< Trigger mask used for Global Start
 187:C:/Files/Projects/Git/XMCLib/inc\xmc4_scu.h ****                                                                  CCU42 peripheral. */
 188:C:/Files/Projects/Git/XMCLib/inc\xmc4_scu.h **** #endif
 189:C:/Files/Projects/Git/XMCLib/inc\xmc4_scu.h **** #if defined(CCU43)
 190:C:/Files/Projects/Git/XMCLib/inc\xmc4_scu.h ****   XMC_SCU_CCU_TRIGGER_CCU43 = SCU_GENERAL_CCUCON_GSC43_Msk, /**< Trigger mask used for Global Start
 191:C:/Files/Projects/Git/XMCLib/inc\xmc4_scu.h ****                                                                  CCU43 peripheral. */
 192:C:/Files/Projects/Git/XMCLib/inc\xmc4_scu.h **** #endif
 193:C:/Files/Projects/Git/XMCLib/inc\xmc4_scu.h **** #if defined(CCU80)
 194:C:/Files/Projects/Git/XMCLib/inc\xmc4_scu.h ****   XMC_SCU_CCU_TRIGGER_CCU80 = SCU_GENERAL_CCUCON_GSC80_Msk, /**< Trigger mask used for Global Start
 195:C:/Files/Projects/Git/XMCLib/inc\xmc4_scu.h ****                                                                  CCU80 peripheral. */
 196:C:/Files/Projects/Git/XMCLib/inc\xmc4_scu.h **** #endif
 197:C:/Files/Projects/Git/XMCLib/inc\xmc4_scu.h **** #if defined(CCU81)
 198:C:/Files/Projects/Git/XMCLib/inc\xmc4_scu.h ****   XMC_SCU_CCU_TRIGGER_CCU81 = SCU_GENERAL_CCUCON_GSC81_Msk /**< Trigger mask used for Global Start 
 199:C:/Files/Projects/Git/XMCLib/inc\xmc4_scu.h ****                                                                  CCU81 peripheral. */
 200:C:/Files/Projects/Git/XMCLib/inc\xmc4_scu.h **** #endif
 201:C:/Files/Projects/Git/XMCLib/inc\xmc4_scu.h **** } XMC_SCU_CCU_TRIGGER_t;
 202:C:/Files/Projects/Git/XMCLib/inc\xmc4_scu.h **** 
 203:C:/Files/Projects/Git/XMCLib/inc\xmc4_scu.h **** /**
 204:C:/Files/Projects/Git/XMCLib/inc\xmc4_scu.h ****  *  Defines enumerations representing the status of trap cause. The cause of the trap gets automati
 205:C:/Files/Projects/Git/XMCLib/inc\xmc4_scu.h ****  *  the \a TRAPSTAT register and can be checked by user software to determine the state of the syst
 206:C:/Files/Projects/Git/XMCLib/inc\xmc4_scu.h ****  *  purpose. 
 207:C:/Files/Projects/Git/XMCLib/inc\xmc4_scu.h ****  *  Use type \a XMC_SCU_TRAP_t for accessing these enum parameters.
 208:C:/Files/Projects/Git/XMCLib/inc\xmc4_scu.h ****  */
 209:C:/Files/Projects/Git/XMCLib/inc\xmc4_scu.h **** typedef enum XMC_SCU_TRAP 
 210:C:/Files/Projects/Git/XMCLib/inc\xmc4_scu.h **** {
 211:C:/Files/Projects/Git/XMCLib/inc\xmc4_scu.h ****   XMC_SCU_TRAP_OSC_WDG      = SCU_TRAP_TRAPSTAT_SOSCWDGT_Msk, /**< OSC_HP Oscillator Watchdog trap.
 212:C:/Files/Projects/Git/XMCLib/inc\xmc4_scu.h ****   XMC_SCU_TRAP_VCO_LOCK     = SCU_TRAP_TRAPSTAT_SVCOLCKT_Msk, /**< PLL loss of lock trap. */
 213:C:/Files/Projects/Git/XMCLib/inc\xmc4_scu.h ****   XMC_SCU_TRAP_USB_VCO_LOCK = SCU_TRAP_TRAPSTAT_UVCOLCKT_Msk, /**< USB PLL loss of lock trap. */ 
 214:C:/Files/Projects/Git/XMCLib/inc\xmc4_scu.h ****   XMC_SCU_TRAP_PARITY_ERROR = SCU_TRAP_TRAPSTAT_PET_Msk,      /**< Memory Parity error trap. */  
 215:C:/Files/Projects/Git/XMCLib/inc\xmc4_scu.h ****   XMC_SCU_TRAP_BROWNOUT     = SCU_TRAP_TRAPSTAT_BRWNT_Msk,    /**< Brownout trap. */ 
 216:C:/Files/Projects/Git/XMCLib/inc\xmc4_scu.h ****   XMC_SCU_TRAP_ULP_WDG      = SCU_TRAP_TRAPSTAT_ULPWDGT_Msk,  /**< Unstable 32KHz clock trap. */ 
 217:C:/Files/Projects/Git/XMCLib/inc\xmc4_scu.h ****   XMC_SCU_TRAP_PER_BRIDGE0  = SCU_TRAP_TRAPSTAT_BWERR0T_Msk,  /**< Bad memory access of peripherals
 218:C:/Files/Projects/Git/XMCLib/inc\xmc4_scu.h ****   XMC_SCU_TRAP_PER_BRIDGE1  = SCU_TRAP_TRAPSTAT_BWERR1T_Msk,  /**< Bad memory access of peripherals
 219:C:/Files/Projects/Git/XMCLib/inc\xmc4_scu.h **** #if defined(SCU_TRAP_TRAPSTAT_TEMPHIT_Msk)
 220:C:/Files/Projects/Git/XMCLib/inc\xmc4_scu.h ****   XMC_SCU_TRAP_DIETEMP_HIGH = SCU_TRAP_TRAPSTAT_TEMPHIT_Msk,  /**< Die temperature higher than expe
 221:C:/Files/Projects/Git/XMCLib/inc\xmc4_scu.h **** #endif
 222:C:/Files/Projects/Git/XMCLib/inc\xmc4_scu.h **** #if defined(SCU_TRAP_TRAPSTAT_TEMPLOT_Msk)
 223:C:/Files/Projects/Git/XMCLib/inc\xmc4_scu.h ****   XMC_SCU_TRAP_DIETEMP_LOW  = SCU_TRAP_TRAPSTAT_TEMPLOT_Msk,  /**< Die temperature lower than expec
 224:C:/Files/Projects/Git/XMCLib/inc\xmc4_scu.h **** #endif
 225:C:/Files/Projects/Git/XMCLib/inc\xmc4_scu.h **** #if defined(ECAT0)
 226:C:/Files/Projects/Git/XMCLib/inc\xmc4_scu.h ****   XMC_SCU_TRAP_ECAT_RESET = SCU_TRAP_TRAPSTAT_ECAT0RST_Msk, /**< EtherCat Reset */ 
 227:C:/Files/Projects/Git/XMCLib/inc\xmc4_scu.h **** #endif
 228:C:/Files/Projects/Git/XMCLib/inc\xmc4_scu.h **** } XMC_SCU_TRAP_t;
 229:C:/Files/Projects/Git/XMCLib/inc\xmc4_scu.h **** 
 230:C:/Files/Projects/Git/XMCLib/inc\xmc4_scu.h **** /**
 231:C:/Files/Projects/Git/XMCLib/inc\xmc4_scu.h ****  *  Defines enumerations for different parity event generating modules that in turn generate a trap
 232:C:/Files/Projects/Git/XMCLib/inc\xmc4_scu.h ****  *  Parity can be enabled with \a PETE register in order to get the trap flag reflected in \a TRAPR
 233:C:/Files/Projects/Git/XMCLib/inc\xmc4_scu.h ****  *  configure parity error trap generation mechanism bits of \a PETE register.
 234:C:/Files/Projects/Git/XMCLib/inc\xmc4_scu.h ****  *  All the enum items are tabulated as per bits present in \a PETE register.
 235:C:/Files/Projects/Git/XMCLib/inc\xmc4_scu.h ****  *  Use type \a XMC_SCU_PARITY_t for accessing these enum parameters.
 236:C:/Files/Projects/Git/XMCLib/inc\xmc4_scu.h ****  */
 237:C:/Files/Projects/Git/XMCLib/inc\xmc4_scu.h **** typedef enum XMC_SCU_PARITY
 238:C:/Files/Projects/Git/XMCLib/inc\xmc4_scu.h **** {
 239:C:/Files/Projects/Git/XMCLib/inc\xmc4_scu.h ****   XMC_SCU_PARITY_PSRAM_MEM  = SCU_PARITY_PEEN_PEENPS_Msk,   /**< Program SRAM parity error trap. */
 240:C:/Files/Projects/Git/XMCLib/inc\xmc4_scu.h ****   XMC_SCU_PARITY_DSRAM1_MEM = SCU_PARITY_PEEN_PEENDS1_Msk,  /**< Data SRAM-1 parity error trap. */ 
 241:C:/Files/Projects/Git/XMCLib/inc\xmc4_scu.h **** #if defined(SCU_PARITY_PEEN_PEENDS2_Msk)
 242:C:/Files/Projects/Git/XMCLib/inc\xmc4_scu.h ****   XMC_SCU_PARITY_DSRAM2_MEM = SCU_PARITY_PEEN_PEENDS2_Msk,  /**< Data SRAM-2 parity error trap. */ 
 243:C:/Files/Projects/Git/XMCLib/inc\xmc4_scu.h **** #endif
 244:C:/Files/Projects/Git/XMCLib/inc\xmc4_scu.h ****   XMC_SCU_PARITY_USIC0_MEM  = SCU_PARITY_PEEN_PEENU0_Msk,   /**< USIC0 memory parity error trap. */
 245:C:/Files/Projects/Git/XMCLib/inc\xmc4_scu.h **** #if defined(SCU_PARITY_PEEN_PEENU1_Msk)
 246:C:/Files/Projects/Git/XMCLib/inc\xmc4_scu.h ****   XMC_SCU_PARITY_USIC1_MEM  = SCU_PARITY_PEEN_PEENU1_Msk,   /**< USIC1 memory parity error trap. */
 247:C:/Files/Projects/Git/XMCLib/inc\xmc4_scu.h **** #endif
 248:C:/Files/Projects/Git/XMCLib/inc\xmc4_scu.h **** #if defined(SCU_PARITY_PEEN_PEENU2_Msk)
 249:C:/Files/Projects/Git/XMCLib/inc\xmc4_scu.h ****   XMC_SCU_PARITY_USIC2_MEM  = SCU_PARITY_PEEN_PEENU2_Msk,   /**< USIC2 memory parity error trap. */
 250:C:/Files/Projects/Git/XMCLib/inc\xmc4_scu.h **** #endif
 251:C:/Files/Projects/Git/XMCLib/inc\xmc4_scu.h ****   XMC_SCU_PARITY_MCAN_MEM   = SCU_PARITY_PEEN_PEENMC_Msk,   /**< CAN memory parity error trap. */
 252:C:/Files/Projects/Git/XMCLib/inc\xmc4_scu.h ****   XMC_SCU_PARITY_PMU_MEM    = SCU_PARITY_PEEN_PEENPPRF_Msk, /**< PMU Prefetch memory parity error t
 253:C:/Files/Projects/Git/XMCLib/inc\xmc4_scu.h ****   XMC_SCU_PARITY_USB_MEM    = SCU_PARITY_PEEN_PEENUSB_Msk,  /**< USB memory parity error trap. */ 
 254:C:/Files/Projects/Git/XMCLib/inc\xmc4_scu.h **** #if defined(SCU_PARITY_PEEN_PEENETH0TX_Msk)
 255:C:/Files/Projects/Git/XMCLib/inc\xmc4_scu.h ****   XMC_SCU_PARITY_ETH_TXMEM  = SCU_PARITY_PEEN_PEENETH0TX_Msk, /**< Ethernet transmit memory parity 
 256:C:/Files/Projects/Git/XMCLib/inc\xmc4_scu.h **** #endif
 257:C:/Files/Projects/Git/XMCLib/inc\xmc4_scu.h **** #if defined(SCU_PARITY_PEEN_PEENETH0RX_Msk)
 258:C:/Files/Projects/Git/XMCLib/inc\xmc4_scu.h ****   XMC_SCU_PARITY_ETH_RXMEM  = SCU_PARITY_PEEN_PEENETH0RX_Msk, /**< Ethernet receive memory parity e
 259:C:/Files/Projects/Git/XMCLib/inc\xmc4_scu.h **** #endif
 260:C:/Files/Projects/Git/XMCLib/inc\xmc4_scu.h **** #if defined(SCU_PARITY_PEEN_PEENSD0_Msk)
 261:C:/Files/Projects/Git/XMCLib/inc\xmc4_scu.h ****   XMC_SCU_PARITY_SDMMC_MEM0 = SCU_PARITY_PEEN_PEENSD0_Msk, /**< SDMMC Memory-0 parity error trap. *
 262:C:/Files/Projects/Git/XMCLib/inc\xmc4_scu.h **** #endif
 263:C:/Files/Projects/Git/XMCLib/inc\xmc4_scu.h **** #if defined(SCU_PARITY_PEEN_PEENSD1_Msk)
 264:C:/Files/Projects/Git/XMCLib/inc\xmc4_scu.h ****   XMC_SCU_PARITY_SDMMC_MEM1 = SCU_PARITY_PEEN_PEENSD1_Msk, /**< SDMMC Memory-1 parity error trap. *
 265:C:/Files/Projects/Git/XMCLib/inc\xmc4_scu.h **** #endif
 266:C:/Files/Projects/Git/XMCLib/inc\xmc4_scu.h **** #if defined(SCU_PARITY_PEEN_PEENECAT0_Msk)
 267:C:/Files/Projects/Git/XMCLib/inc\xmc4_scu.h ****   XMC_SCU_PARITY_ECAT_MEM = SCU_PARITY_PEEN_PEENECAT0_Msk, /**< ECAT0 SRAM parity error trap. */ 
 268:C:/Files/Projects/Git/XMCLib/inc\xmc4_scu.h **** #endif
 269:C:/Files/Projects/Git/XMCLib/inc\xmc4_scu.h **** } XMC_SCU_PARITY_t;
 270:C:/Files/Projects/Git/XMCLib/inc\xmc4_scu.h **** 
 271:C:/Files/Projects/Git/XMCLib/inc\xmc4_scu.h **** /**
 272:C:/Files/Projects/Git/XMCLib/inc\xmc4_scu.h ****  *  Defines the different causes for last reset. The cause of the last reset gets automatically sto
 273:C:/Files/Projects/Git/XMCLib/inc\xmc4_scu.h ****  *  the \a SCU_RSTSTAT register and can be checked by user software to determine the state of the s
 274:C:/Files/Projects/Git/XMCLib/inc\xmc4_scu.h ****  *  purpose. All the enum items are tabulated as per bits present in \a SCU_RSTSTAT register.
 275:C:/Files/Projects/Git/XMCLib/inc\xmc4_scu.h ****  *  Use type \a XMC_SCU_RESET_REASON_t for accessing these enum parameters.
 276:C:/Files/Projects/Git/XMCLib/inc\xmc4_scu.h ****  */
 277:C:/Files/Projects/Git/XMCLib/inc\xmc4_scu.h **** typedef enum XMC_SCU_RESET_REASON
 278:C:/Files/Projects/Git/XMCLib/inc\xmc4_scu.h **** {
 279:C:/Files/Projects/Git/XMCLib/inc\xmc4_scu.h ****   XMC_SCU_RESET_REASON_PORST        = (1UL << SCU_RESET_RSTSTAT_RSTSTAT_Pos), /**< Reset due to Pow
 280:C:/Files/Projects/Git/XMCLib/inc\xmc4_scu.h ****   XMC_SCU_RESET_REASON_SWD          = (2UL << SCU_RESET_RSTSTAT_RSTSTAT_Pos), /**< Reset due to Sup
 281:C:/Files/Projects/Git/XMCLib/inc\xmc4_scu.h ****   XMC_SCU_RESET_REASON_PV           = (4UL << SCU_RESET_RSTSTAT_RSTSTAT_Pos), /**< Reset due to Pow
 282:C:/Files/Projects/Git/XMCLib/inc\xmc4_scu.h ****   XMC_SCU_RESET_REASON_SW           = (8UL << SCU_RESET_RSTSTAT_RSTSTAT_Pos), /**< Reset due to Sof
 283:C:/Files/Projects/Git/XMCLib/inc\xmc4_scu.h ****   XMC_SCU_RESET_REASON_LOCKUP       = (16UL << SCU_RESET_RSTSTAT_RSTSTAT_Pos), /**< Reset due to re
 284:C:/Files/Projects/Git/XMCLib/inc\xmc4_scu.h ****   XMC_SCU_RESET_REASON_WATCHDOG     = (32UL << SCU_RESET_RSTSTAT_RSTSTAT_Pos), /**< Reset due to Wa
 285:C:/Files/Projects/Git/XMCLib/inc\xmc4_scu.h ****   XMC_SCU_RESET_REASON_PARITY_ERROR = (128UL << SCU_RESET_RSTSTAT_RSTSTAT_Pos), /**< Reset due to r
 286:C:/Files/Projects/Git/XMCLib/inc\xmc4_scu.h **** } XMC_SCU_RESET_REASON_t;
 287:C:/Files/Projects/Git/XMCLib/inc\xmc4_scu.h **** 
 288:C:/Files/Projects/Git/XMCLib/inc\xmc4_scu.h **** /**
 289:C:/Files/Projects/Git/XMCLib/inc\xmc4_scu.h ****  *  Defines enumerations for events which can lead to interrupt. These enumeration values represent
 290:C:/Files/Projects/Git/XMCLib/inc\xmc4_scu.h ****  * status of one of the bits in \a SRSTAT register. 
 291:C:/Files/Projects/Git/XMCLib/inc\xmc4_scu.h ****  *  Use type \a XMC_SCU_INTERRUPT_EVENT_t for accessing these enum parameters.
 292:C:/Files/Projects/Git/XMCLib/inc\xmc4_scu.h ****  */
 293:C:/Files/Projects/Git/XMCLib/inc\xmc4_scu.h **** typedef uint32_t XMC_SCU_INTERRUPT_EVENT_t;
 294:C:/Files/Projects/Git/XMCLib/inc\xmc4_scu.h **** 
 295:C:/Files/Projects/Git/XMCLib/inc\xmc4_scu.h ****  
 296:C:/Files/Projects/Git/XMCLib/inc\xmc4_scu.h **** /**
 297:C:/Files/Projects/Git/XMCLib/inc\xmc4_scu.h ****  *  Defines enumeration for the events that can generate non maskable interrupt(NMI).
 298:C:/Files/Projects/Git/XMCLib/inc\xmc4_scu.h ****  *  The NMI generation can be enabled with \a NMIREQEN register. The event will be reflected in \a 
 299:C:/Files/Projects/Git/XMCLib/inc\xmc4_scu.h ****  *  mirrored in the TRAPSTAT register. These enums can be used to configure NMI request generation 
 300:C:/Files/Projects/Git/XMCLib/inc\xmc4_scu.h ****  *  NMIREQEN register.  Once configured, these events can generate non maskable interrupt.
 301:C:/Files/Projects/Git/XMCLib/inc\xmc4_scu.h ****  *  All the enum items are tabulated as per bits present in \a NMIREQEN register.
 302:C:/Files/Projects/Git/XMCLib/inc\xmc4_scu.h ****  *  Use type \a XMC_SCU_NMIREQ_t for accessing these enum parameters.
 303:C:/Files/Projects/Git/XMCLib/inc\xmc4_scu.h ****  */
 304:C:/Files/Projects/Git/XMCLib/inc\xmc4_scu.h **** typedef enum XMC_SCU_NMIREQ
 305:C:/Files/Projects/Git/XMCLib/inc\xmc4_scu.h **** {
 306:C:/Files/Projects/Git/XMCLib/inc\xmc4_scu.h ****   XMC_SCU_NMIREQ_WDT_WARN = SCU_INTERRUPT_NMIREQEN_PRWARN_Msk, /**< Watchdog timer Pre-Warning even
 307:C:/Files/Projects/Git/XMCLib/inc\xmc4_scu.h ****   XMC_SCU_NMIREQ_RTC_PI   = SCU_INTERRUPT_NMIREQEN_PI_Msk,     /**< RTC Periodic event */ 
 308:C:/Files/Projects/Git/XMCLib/inc\xmc4_scu.h ****   XMC_SCU_NMIREQ_RTC_AI   = SCU_INTERRUPT_NMIREQEN_AI_Msk,     /**< RTC Alarm event */ 
 309:C:/Files/Projects/Git/XMCLib/inc\xmc4_scu.h ****   XMC_SCU_NMIREQ_ERU0_0   = SCU_INTERRUPT_NMIREQEN_ERU00_Msk,  /**< Channel 0 event of ERU0 */  
 310:C:/Files/Projects/Git/XMCLib/inc\xmc4_scu.h ****   XMC_SCU_NMIREQ_ERU0_1   = SCU_INTERRUPT_NMIREQEN_ERU01_Msk,  /**< Channel 1 event of ERU0 */ 
 311:C:/Files/Projects/Git/XMCLib/inc\xmc4_scu.h ****   XMC_SCU_NMIREQ_ERU0_2   = SCU_INTERRUPT_NMIREQEN_ERU02_Msk,  /**< Channel 2 event of ERU0 */ 
 312:C:/Files/Projects/Git/XMCLib/inc\xmc4_scu.h ****   XMC_SCU_NMIREQ_ERU0_3   = SCU_INTERRUPT_NMIREQEN_ERU03_Msk   /**< Channel 3 event of ERU0 */ 
 313:C:/Files/Projects/Git/XMCLib/inc\xmc4_scu.h **** } XMC_SCU_NMIREQ_t;
 314:C:/Files/Projects/Git/XMCLib/inc\xmc4_scu.h ****   
 315:C:/Files/Projects/Git/XMCLib/inc\xmc4_scu.h **** 
 316:C:/Files/Projects/Git/XMCLib/inc\xmc4_scu.h **** /**
 317:C:/Files/Projects/Git/XMCLib/inc\xmc4_scu.h ****  *  Defines enumeration representing different peripheral reset bits in the \a PRSTAT registers.
 318:C:/Files/Projects/Git/XMCLib/inc\xmc4_scu.h ****  *  All the enum items are tabulated as per bits present in \a PRSTAT0,  \a PRSTAT1,  \a PRSTAT2,
 319:C:/Files/Projects/Git/XMCLib/inc\xmc4_scu.h ****  *  \a PRSTAT3 registers. Use type \a XMC_SCU_PERIPHERAL_RESET_t for accessing these enum parameter
 320:C:/Files/Projects/Git/XMCLib/inc\xmc4_scu.h ****  *  Note: Release of reset should be prevented when the peripheral clock is gated in cases where ke
 321:C:/Files/Projects/Git/XMCLib/inc\xmc4_scu.h ****  *  clock and bus interface clocks are shared, in order to avoid system hang-up.
 322:C:/Files/Projects/Git/XMCLib/inc\xmc4_scu.h ****  */
 323:C:/Files/Projects/Git/XMCLib/inc\xmc4_scu.h **** typedef enum XMC_SCU_PERIPHERAL_RESET
 324:C:/Files/Projects/Git/XMCLib/inc\xmc4_scu.h **** {
 325:C:/Files/Projects/Git/XMCLib/inc\xmc4_scu.h ****   XMC_SCU_PERIPHERAL_RESET_VADC   = SCU_RESET_PRSTAT0_VADCRS_Msk,   /**< VADC reset. */ 
 326:C:/Files/Projects/Git/XMCLib/inc\xmc4_scu.h **** #if defined(DSD)
 327:C:/Files/Projects/Git/XMCLib/inc\xmc4_scu.h ****   XMC_SCU_PERIPHERAL_RESET_DSD    = SCU_RESET_PRSTAT0_DSDRS_Msk,    /**< DSD reset. */
 328:C:/Files/Projects/Git/XMCLib/inc\xmc4_scu.h **** #endif
 329:C:/Files/Projects/Git/XMCLib/inc\xmc4_scu.h ****   XMC_SCU_PERIPHERAL_RESET_CCU40  = SCU_RESET_PRSTAT0_CCU40RS_Msk,  /**< CCU40 reset. */
 330:C:/Files/Projects/Git/XMCLib/inc\xmc4_scu.h **** #if defined(CCU41)
 331:C:/Files/Projects/Git/XMCLib/inc\xmc4_scu.h ****   XMC_SCU_PERIPHERAL_RESET_CCU41  = SCU_RESET_PRSTAT0_CCU41RS_Msk,  /**< CCU41 reset. */
 332:C:/Files/Projects/Git/XMCLib/inc\xmc4_scu.h **** #endif  
 333:C:/Files/Projects/Git/XMCLib/inc\xmc4_scu.h **** #if defined(CCU42)
 334:C:/Files/Projects/Git/XMCLib/inc\xmc4_scu.h ****   XMC_SCU_PERIPHERAL_RESET_CCU42  = SCU_RESET_PRSTAT0_CCU42RS_Msk,  /**< CCU42 reset. */
 335:C:/Files/Projects/Git/XMCLib/inc\xmc4_scu.h **** #endif
 336:C:/Files/Projects/Git/XMCLib/inc\xmc4_scu.h **** #if defined(CCU80)
 337:C:/Files/Projects/Git/XMCLib/inc\xmc4_scu.h ****   XMC_SCU_PERIPHERAL_RESET_CCU80  = SCU_RESET_PRSTAT0_CCU80RS_Msk,  /**< CCU80 reset. */
 338:C:/Files/Projects/Git/XMCLib/inc\xmc4_scu.h **** #endif  
 339:C:/Files/Projects/Git/XMCLib/inc\xmc4_scu.h **** #if defined(CCU81)
 340:C:/Files/Projects/Git/XMCLib/inc\xmc4_scu.h ****   XMC_SCU_PERIPHERAL_RESET_CCU81  = SCU_RESET_PRSTAT0_CCU81RS_Msk,  /**< CCU81 reset. */
 341:C:/Files/Projects/Git/XMCLib/inc\xmc4_scu.h **** #endif
 342:C:/Files/Projects/Git/XMCLib/inc\xmc4_scu.h **** #if defined(POSIF0)
 343:C:/Files/Projects/Git/XMCLib/inc\xmc4_scu.h ****   XMC_SCU_PERIPHERAL_RESET_POSIF0 = SCU_RESET_PRSTAT0_POSIF0RS_Msk, /**< POSIF0 reset. */
 344:C:/Files/Projects/Git/XMCLib/inc\xmc4_scu.h **** #endif  
 345:C:/Files/Projects/Git/XMCLib/inc\xmc4_scu.h **** #if defined(POSIF1)
 346:C:/Files/Projects/Git/XMCLib/inc\xmc4_scu.h ****   XMC_SCU_PERIPHERAL_RESET_POSIF1 = SCU_RESET_PRSTAT0_POSIF1RS_Msk, /**< POSIF1 reset.*/
 347:C:/Files/Projects/Git/XMCLib/inc\xmc4_scu.h **** #endif
 348:C:/Files/Projects/Git/XMCLib/inc\xmc4_scu.h ****   XMC_SCU_PERIPHERAL_RESET_USIC0  = SCU_RESET_PRSTAT0_USIC0RS_Msk,  /**< USIC0 reset. */
 349:C:/Files/Projects/Git/XMCLib/inc\xmc4_scu.h ****   XMC_SCU_PERIPHERAL_RESET_ERU1   = SCU_RESET_PRSTAT0_ERU1RS_Msk,   /**< ERU1 reset. */
 350:C:/Files/Projects/Git/XMCLib/inc\xmc4_scu.h **** #if defined(HRPWM0)
 351:C:/Files/Projects/Git/XMCLib/inc\xmc4_scu.h ****   XMC_SCU_PERIPHERAL_RESET_HRPWM0 = SCU_RESET_PRSTAT0_HRPWM0RS_Msk,  /**< HRPWM0 reset. */
 352:C:/Files/Projects/Git/XMCLib/inc\xmc4_scu.h **** #endif
 353:C:/Files/Projects/Git/XMCLib/inc\xmc4_scu.h **** #if defined(CCU43)
 354:C:/Files/Projects/Git/XMCLib/inc\xmc4_scu.h ****   XMC_SCU_PERIPHERAL_RESET_CCU43  = (SCU_RESET_PRSTAT1_CCU43RS_Msk | 0x10000000UL),   /**< CCU43 re
 355:C:/Files/Projects/Git/XMCLib/inc\xmc4_scu.h **** #endif
 356:C:/Files/Projects/Git/XMCLib/inc\xmc4_scu.h **** #if defined(LEDTS0)
 357:C:/Files/Projects/Git/XMCLib/inc\xmc4_scu.h ****   XMC_SCU_PERIPHERAL_RESET_LEDTS0 = (SCU_RESET_PRSTAT1_LEDTSCU0RS_Msk | 0x10000000UL), /**< LEDTS0 
 358:C:/Files/Projects/Git/XMCLib/inc\xmc4_scu.h **** #endif  
 359:C:/Files/Projects/Git/XMCLib/inc\xmc4_scu.h **** #if defined(CAN)
 360:C:/Files/Projects/Git/XMCLib/inc\xmc4_scu.h ****   XMC_SCU_PERIPHERAL_RESET_MCAN   = (SCU_RESET_PRSTAT1_MCAN0RS_Msk | 0x10000000UL), /**< MCAN reset
 361:C:/Files/Projects/Git/XMCLib/inc\xmc4_scu.h **** #endif  
 362:C:/Files/Projects/Git/XMCLib/inc\xmc4_scu.h **** #if defined(DAC)  
 363:C:/Files/Projects/Git/XMCLib/inc\xmc4_scu.h ****   XMC_SCU_PERIPHERAL_RESET_DAC    = (SCU_RESET_PRSTAT1_DACRS_Msk | 0x10000000UL),    /**< DAC reset
 364:C:/Files/Projects/Git/XMCLib/inc\xmc4_scu.h **** #endif  
 365:C:/Files/Projects/Git/XMCLib/inc\xmc4_scu.h **** #if defined(SDMMC)
 366:C:/Files/Projects/Git/XMCLib/inc\xmc4_scu.h ****   XMC_SCU_PERIPHERAL_RESET_SDMMC  = (SCU_RESET_PRSTAT1_MMCIRS_Msk | 0x10000000UL),     /**< SDMMC r
 367:C:/Files/Projects/Git/XMCLib/inc\xmc4_scu.h **** #endif
 368:C:/Files/Projects/Git/XMCLib/inc\xmc4_scu.h **** #if defined(USIC1)
 369:C:/Files/Projects/Git/XMCLib/inc\xmc4_scu.h ****   XMC_SCU_PERIPHERAL_RESET_USIC1  = (SCU_RESET_PRSTAT1_USIC1RS_Msk | 0x10000000UL),    /**< USIC1 r
 370:C:/Files/Projects/Git/XMCLib/inc\xmc4_scu.h **** #endif  
 371:C:/Files/Projects/Git/XMCLib/inc\xmc4_scu.h **** #if defined(USIC2)
 372:C:/Files/Projects/Git/XMCLib/inc\xmc4_scu.h ****   XMC_SCU_PERIPHERAL_RESET_USIC2  = (SCU_RESET_PRSTAT1_USIC2RS_Msk | 0x10000000UL),    /**< USIC2 r
 373:C:/Files/Projects/Git/XMCLib/inc\xmc4_scu.h **** #endif
 374:C:/Files/Projects/Git/XMCLib/inc\xmc4_scu.h ****   XMC_SCU_PERIPHERAL_RESET_PORTS  = (SCU_RESET_PRSTAT1_PPORTSRS_Msk | 0x10000000UL),   /**< PORTS r
 375:C:/Files/Projects/Git/XMCLib/inc\xmc4_scu.h ****   XMC_SCU_PERIPHERAL_RESET_WDT    = (SCU_RESET_PRSTAT2_WDTRS_Msk | 0x20000000UL),      /**< WDT res
 376:C:/Files/Projects/Git/XMCLib/inc\xmc4_scu.h **** #if defined(ETH0)
 377:C:/Files/Projects/Git/XMCLib/inc\xmc4_scu.h ****   XMC_SCU_PERIPHERAL_RESET_ETH0   = (SCU_RESET_PRSTAT2_ETH0RS_Msk | 0x20000000UL),     /**< ETH0 re
 378:C:/Files/Projects/Git/XMCLib/inc\xmc4_scu.h **** #endif
 379:C:/Files/Projects/Git/XMCLib/inc\xmc4_scu.h ****   XMC_SCU_PERIPHERAL_RESET_GPDMA0 = (SCU_RESET_PRSTAT2_DMA0RS_Msk | 0x20000000UL),     /**< DMA0 re
 380:C:/Files/Projects/Git/XMCLib/inc\xmc4_scu.h **** #if defined(GPDMA1)
 381:C:/Files/Projects/Git/XMCLib/inc\xmc4_scu.h ****   XMC_SCU_PERIPHERAL_RESET_GPDMA1 = (SCU_RESET_PRSTAT2_DMA1RS_Msk | 0x20000000UL),     /**< DMA1 re
 382:C:/Files/Projects/Git/XMCLib/inc\xmc4_scu.h **** #endif
 383:C:/Files/Projects/Git/XMCLib/inc\xmc4_scu.h **** #if defined(FCE)
 384:C:/Files/Projects/Git/XMCLib/inc\xmc4_scu.h ****   XMC_SCU_PERIPHERAL_RESET_FCE    = (SCU_RESET_PRSTAT2_FCERS_Msk | 0x20000000UL),      /**< FCE res
 385:C:/Files/Projects/Git/XMCLib/inc\xmc4_scu.h **** #endif
 386:C:/Files/Projects/Git/XMCLib/inc\xmc4_scu.h **** #if defined(USB0)  
 387:C:/Files/Projects/Git/XMCLib/inc\xmc4_scu.h ****   XMC_SCU_PERIPHERAL_RESET_USB0   = (SCU_RESET_PRSTAT2_USBRS_Msk | 0x20000000UL),      /**< USB0 re
 388:C:/Files/Projects/Git/XMCLib/inc\xmc4_scu.h **** #endif  
 389:C:/Files/Projects/Git/XMCLib/inc\xmc4_scu.h **** #if defined(ECAT0)  
 390:C:/Files/Projects/Git/XMCLib/inc\xmc4_scu.h ****   XMC_SCU_PERIPHERAL_RESET_ECAT0  = (SCU_RESET_PRSTAT2_ECAT0RS_Msk | 0x20000000UL),      /**< ECAT0
 391:C:/Files/Projects/Git/XMCLib/inc\xmc4_scu.h **** #endif  
 392:C:/Files/Projects/Git/XMCLib/inc\xmc4_scu.h **** #if defined(EBU)
 393:C:/Files/Projects/Git/XMCLib/inc\xmc4_scu.h ****   XMC_SCU_PERIPHERAL_RESET_EBU    = (SCU_RESET_PRSTAT3_EBURS_Msk | 0x30000000UL)       /**< EBU res
 394:C:/Files/Projects/Git/XMCLib/inc\xmc4_scu.h **** #endif
 395:C:/Files/Projects/Git/XMCLib/inc\xmc4_scu.h **** } XMC_SCU_PERIPHERAL_RESET_t;
 396:C:/Files/Projects/Git/XMCLib/inc\xmc4_scu.h **** 
 397:C:/Files/Projects/Git/XMCLib/inc\xmc4_scu.h **** /**
 398:C:/Files/Projects/Git/XMCLib/inc\xmc4_scu.h ****  *  Defines enumerations for disabling the clocks sources of peripherals. Disabling of the peripher
 399:C:/Files/Projects/Git/XMCLib/inc\xmc4_scu.h ****  *  clock is configured via the \a CLKCLR registers.
 400:C:/Files/Projects/Git/XMCLib/inc\xmc4_scu.h ****  *  Use type \a XMC_SCU_PERIPHERAL_CLOCK_t for accessing these enum parameters.
 401:C:/Files/Projects/Git/XMCLib/inc\xmc4_scu.h ****  */
 402:C:/Files/Projects/Git/XMCLib/inc\xmc4_scu.h **** typedef enum XMC_SCU_CLOCK
 403:C:/Files/Projects/Git/XMCLib/inc\xmc4_scu.h **** {
 404:C:/Files/Projects/Git/XMCLib/inc\xmc4_scu.h ****   XMC_SCU_CLOCK_USB = SCU_CLK_CLKCLR_USBCDI_Msk, /**< USB module clock. */
 405:C:/Files/Projects/Git/XMCLib/inc\xmc4_scu.h **** #if defined(SDMMC)
 406:C:/Files/Projects/Git/XMCLib/inc\xmc4_scu.h ****   XMC_SCU_CLOCK_MMC = SCU_CLK_CLKCLR_MMCCDI_Msk, /**< MMC module clock. */
 407:C:/Files/Projects/Git/XMCLib/inc\xmc4_scu.h **** #endif
 408:C:/Files/Projects/Git/XMCLib/inc\xmc4_scu.h **** #if defined(ETH0)
 409:C:/Files/Projects/Git/XMCLib/inc\xmc4_scu.h ****   XMC_SCU_CLOCK_ETH = SCU_CLK_CLKCLR_ETH0CDI_Msk, /**< Ethernet module clock. */
 410:C:/Files/Projects/Git/XMCLib/inc\xmc4_scu.h **** #endif
 411:C:/Files/Projects/Git/XMCLib/inc\xmc4_scu.h **** #if defined(EBU)
 412:C:/Files/Projects/Git/XMCLib/inc\xmc4_scu.h ****   XMC_SCU_CLOCK_EBU = SCU_CLK_CLKCLR_EBUCDI_Msk, /**< EBU module clock. */
 413:C:/Files/Projects/Git/XMCLib/inc\xmc4_scu.h **** #endif
 414:C:/Files/Projects/Git/XMCLib/inc\xmc4_scu.h ****   XMC_SCU_CLOCK_CCU = SCU_CLK_CLKCLR_CCUCDI_Msk, /**< CCU module clock. */
 415:C:/Files/Projects/Git/XMCLib/inc\xmc4_scu.h ****   XMC_SCU_CLOCK_WDT = SCU_CLK_CLKCLR_WDTCDI_Msk  /**< WDT module clock. */
 416:C:/Files/Projects/Git/XMCLib/inc\xmc4_scu.h **** } XMC_SCU_CLOCK_t;
 417:C:/Files/Projects/Git/XMCLib/inc\xmc4_scu.h **** 
 418:C:/Files/Projects/Git/XMCLib/inc\xmc4_scu.h **** #if(UC_SERIES != XMC45)
 419:C:/Files/Projects/Git/XMCLib/inc\xmc4_scu.h **** /**
 420:C:/Files/Projects/Git/XMCLib/inc\xmc4_scu.h ****  * Defines enumeration for peripherals that support clock gating. 
 421:C:/Files/Projects/Git/XMCLib/inc\xmc4_scu.h ****  * The enumerations can be used for gating or ungating the peripheral clocks.
 422:C:/Files/Projects/Git/XMCLib/inc\xmc4_scu.h ****  * All the enum items are tabulated as per bits present in \a CGATSTAT0 register.
 423:C:/Files/Projects/Git/XMCLib/inc\xmc4_scu.h ****  * Use type \a XMC_SCU_PERIPHERAL_CLOCK_t for accessing these enum parameters.
 424:C:/Files/Projects/Git/XMCLib/inc\xmc4_scu.h ****  */
 425:C:/Files/Projects/Git/XMCLib/inc\xmc4_scu.h **** typedef enum XMC_SCU_PERIPHERAL_CLOCK
 426:C:/Files/Projects/Git/XMCLib/inc\xmc4_scu.h **** {
 427:C:/Files/Projects/Git/XMCLib/inc\xmc4_scu.h ****   XMC_SCU_PERIPHERAL_CLOCK_VADC   = SCU_CLK_CGATSTAT0_VADC_Msk,  /**< VADC peripheral gating. */
 428:C:/Files/Projects/Git/XMCLib/inc\xmc4_scu.h **** #if defined(DSD)
 429:C:/Files/Projects/Git/XMCLib/inc\xmc4_scu.h ****   XMC_SCU_PERIPHERAL_CLOCK_DSD    = SCU_CLK_CGATSTAT0_DSD_Msk,   /**< DSD peripheral gating. */
 430:C:/Files/Projects/Git/XMCLib/inc\xmc4_scu.h **** #endif
 431:C:/Files/Projects/Git/XMCLib/inc\xmc4_scu.h ****   XMC_SCU_PERIPHERAL_CLOCK_CCU40  = SCU_CLK_CGATSTAT0_CCU40_Msk,  /**< CCU40 peripheral gating. */
 432:C:/Files/Projects/Git/XMCLib/inc\xmc4_scu.h **** #if defined(CCU41)
 433:C:/Files/Projects/Git/XMCLib/inc\xmc4_scu.h ****   XMC_SCU_PERIPHERAL_CLOCK_CCU41  = SCU_CLK_CGATSTAT0_CCU41_Msk,  /**< CCU41 peripheral gating. */
 434:C:/Files/Projects/Git/XMCLib/inc\xmc4_scu.h **** #endif  
 435:C:/Files/Projects/Git/XMCLib/inc\xmc4_scu.h **** #if defined(CCU42)
 436:C:/Files/Projects/Git/XMCLib/inc\xmc4_scu.h ****   XMC_SCU_PERIPHERAL_CLOCK_CCU42  = SCU_CLK_CGATSTAT0_CCU42_Msk,  /**< CCU42 peripheral gating. */
 437:C:/Files/Projects/Git/XMCLib/inc\xmc4_scu.h **** #endif
 438:C:/Files/Projects/Git/XMCLib/inc\xmc4_scu.h **** #if defined(CCU80)
 439:C:/Files/Projects/Git/XMCLib/inc\xmc4_scu.h ****   XMC_SCU_PERIPHERAL_CLOCK_CCU80  = SCU_CLK_CGATSTAT0_CCU80_Msk,  /**< CCU80 peripheral gating. */
 440:C:/Files/Projects/Git/XMCLib/inc\xmc4_scu.h **** #endif  
 441:C:/Files/Projects/Git/XMCLib/inc\xmc4_scu.h **** #if defined(CCU81)
 442:C:/Files/Projects/Git/XMCLib/inc\xmc4_scu.h ****   XMC_SCU_PERIPHERAL_CLOCK_CCU81  = SCU_CLK_CGATSTAT0_CCU81_Msk,  /**< CCU81 peripheral gating. */
 443:C:/Files/Projects/Git/XMCLib/inc\xmc4_scu.h **** #endif
 444:C:/Files/Projects/Git/XMCLib/inc\xmc4_scu.h **** #if defined(POSIF0)
 445:C:/Files/Projects/Git/XMCLib/inc\xmc4_scu.h ****   XMC_SCU_PERIPHERAL_CLOCK_POSIF0 = SCU_CLK_CGATSTAT0_POSIF0_Msk,  /**< POSIF0 peripheral gating. *
 446:C:/Files/Projects/Git/XMCLib/inc\xmc4_scu.h **** #endif  
 447:C:/Files/Projects/Git/XMCLib/inc\xmc4_scu.h **** #if defined(POSIF1)
 448:C:/Files/Projects/Git/XMCLib/inc\xmc4_scu.h ****   XMC_SCU_PERIPHERAL_CLOCK_POSIF1 = SCU_CLK_CGATSTAT0_POSIF1_Msk,   /**< POSIF1 peripheral gating. 
 449:C:/Files/Projects/Git/XMCLib/inc\xmc4_scu.h **** #endif
 450:C:/Files/Projects/Git/XMCLib/inc\xmc4_scu.h ****   XMC_SCU_PERIPHERAL_CLOCK_USIC0  = SCU_CLK_CGATSTAT0_USIC0_Msk,   /**< USIC0 peripheral gating. */
 451:C:/Files/Projects/Git/XMCLib/inc\xmc4_scu.h ****   XMC_SCU_PERIPHERAL_CLOCK_ERU1   = SCU_CLK_CGATSTAT0_ERU1_Msk,    /**< ERU1 peripheral gating. */
 452:C:/Files/Projects/Git/XMCLib/inc\xmc4_scu.h **** #if defined(HRPWM0)
 453:C:/Files/Projects/Git/XMCLib/inc\xmc4_scu.h ****   XMC_SCU_PERIPHERAL_CLOCK_HRPWM0 = SCU_CLK_CGATSTAT0_HRPWM0_Msk,  /**< HRPWM0 peripheral gating. *
 454:C:/Files/Projects/Git/XMCLib/inc\xmc4_scu.h **** #endif
 455:C:/Files/Projects/Git/XMCLib/inc\xmc4_scu.h **** #if defined(CCU43)
 456:C:/Files/Projects/Git/XMCLib/inc\xmc4_scu.h ****   XMC_SCU_PERIPHERAL_CLOCK_CCU43  = (SCU_CLK_CGATSTAT1_CCU43_Msk | 0x10000000UL),   /**< CCU43 peri
 457:C:/Files/Projects/Git/XMCLib/inc\xmc4_scu.h **** #endif
 458:C:/Files/Projects/Git/XMCLib/inc\xmc4_scu.h **** #if defined(LEDTS0)
 459:C:/Files/Projects/Git/XMCLib/inc\xmc4_scu.h ****   XMC_SCU_PERIPHERAL_CLOCK_LEDTS0 = (SCU_CLK_CGATSTAT1_LEDTSCU0_Msk | 0x10000000UL), /**< LEDTS0 pe
 460:C:/Files/Projects/Git/XMCLib/inc\xmc4_scu.h **** #endif  
 461:C:/Files/Projects/Git/XMCLib/inc\xmc4_scu.h **** #if defined(CAN)
 462:C:/Files/Projects/Git/XMCLib/inc\xmc4_scu.h ****   XMC_SCU_PERIPHERAL_CLOCK_MCAN   = (SCU_CLK_CGATSTAT1_MCAN0_Msk | 0x10000000UL),   /**< MCAN perip
 463:C:/Files/Projects/Git/XMCLib/inc\xmc4_scu.h **** #endif
 464:C:/Files/Projects/Git/XMCLib/inc\xmc4_scu.h **** #if defined(DAC)  
 465:C:/Files/Projects/Git/XMCLib/inc\xmc4_scu.h ****   XMC_SCU_PERIPHERAL_CLOCK_DAC    = (SCU_CLK_CGATSTAT1_DAC_Msk | 0x10000000UL),     /**< DAC periph
 466:C:/Files/Projects/Git/XMCLib/inc\xmc4_scu.h **** #endif  
 467:C:/Files/Projects/Git/XMCLib/inc\xmc4_scu.h **** #if defined(SDMMC)
 468:C:/Files/Projects/Git/XMCLib/inc\xmc4_scu.h ****   XMC_SCU_PERIPHERAL_CLOCK_SDMMC  = (SCU_CLK_CGATSTAT1_MMCI_Msk | 0x10000000UL),    /**< SDMMC peri
 469:C:/Files/Projects/Git/XMCLib/inc\xmc4_scu.h **** #endif
 470:C:/Files/Projects/Git/XMCLib/inc\xmc4_scu.h **** #if defined(USIC1)
 471:C:/Files/Projects/Git/XMCLib/inc\xmc4_scu.h ****   XMC_SCU_PERIPHERAL_CLOCK_USIC1  = (SCU_CLK_CGATSTAT1_USIC1_Msk | 0x10000000UL),   /**< USIC1 peri
 472:C:/Files/Projects/Git/XMCLib/inc\xmc4_scu.h **** #endif  
 473:C:/Files/Projects/Git/XMCLib/inc\xmc4_scu.h **** #if defined(USIC2)
 474:C:/Files/Projects/Git/XMCLib/inc\xmc4_scu.h ****   XMC_SCU_PERIPHERAL_CLOCK_USIC2  = (SCU_CLK_CGATSTAT1_USIC2_Msk | 0x10000000UL),    /**< USIC2 per
 475:C:/Files/Projects/Git/XMCLib/inc\xmc4_scu.h **** #endif
 476:C:/Files/Projects/Git/XMCLib/inc\xmc4_scu.h ****   XMC_SCU_PERIPHERAL_CLOCK_PORTS  = (SCU_CLK_CGATSTAT1_PPORTS_Msk | 0x10000000UL),   /**< PORTS per
 477:C:/Files/Projects/Git/XMCLib/inc\xmc4_scu.h ****   XMC_SCU_PERIPHERAL_CLOCK_WDT    = (SCU_CLK_CGATSTAT2_WDT_Msk | 0x20000000UL),      /**< WDT perip
 478:C:/Files/Projects/Git/XMCLib/inc\xmc4_scu.h **** #if defined(ETH0)
 479:C:/Files/Projects/Git/XMCLib/inc\xmc4_scu.h ****   XMC_SCU_PERIPHERAL_CLOCK_ETH0   = (SCU_CLK_CGATSTAT2_ETH0_Msk | 0x20000000UL),     /**< ETH0 peri
 480:C:/Files/Projects/Git/XMCLib/inc\xmc4_scu.h **** #endif
 481:C:/Files/Projects/Git/XMCLib/inc\xmc4_scu.h ****   XMC_SCU_PERIPHERAL_CLOCK_GPDMA0 = (SCU_CLK_CGATSTAT2_DMA0_Msk | 0x20000000UL),     /**< DMA0 peri
 482:C:/Files/Projects/Git/XMCLib/inc\xmc4_scu.h **** #if defined(GPDMA1)
 483:C:/Files/Projects/Git/XMCLib/inc\xmc4_scu.h ****   XMC_SCU_PERIPHERAL_CLOCK_GPDMA1 = (SCU_CLK_CGATSTAT2_DMA1_Msk | 0x20000000UL),     /**< DMA1 peri
 484:C:/Files/Projects/Git/XMCLib/inc\xmc4_scu.h **** #endif
 485:C:/Files/Projects/Git/XMCLib/inc\xmc4_scu.h **** #if defined(FCE)
 486:C:/Files/Projects/Git/XMCLib/inc\xmc4_scu.h ****   XMC_SCU_PERIPHERAL_CLOCK_FCE    = (SCU_CLK_CGATSTAT2_FCE_Msk | 0x20000000UL),      /**< FCE perip
 487:C:/Files/Projects/Git/XMCLib/inc\xmc4_scu.h **** #endif  
 488:C:/Files/Projects/Git/XMCLib/inc\xmc4_scu.h **** #if defined(USB0)
 489:C:/Files/Projects/Git/XMCLib/inc\xmc4_scu.h ****   XMC_SCU_PERIPHERAL_CLOCK_USB0   = (SCU_CLK_CGATSTAT2_USB_Msk | 0x20000000UL),      /**< USB0 peri
 490:C:/Files/Projects/Git/XMCLib/inc\xmc4_scu.h **** #endif  
 491:C:/Files/Projects/Git/XMCLib/inc\xmc4_scu.h **** #if defined(ECAT0)
 492:C:/Files/Projects/Git/XMCLib/inc\xmc4_scu.h ****   XMC_SCU_PERIPHERAL_CLOCK_ECAT0   = (SCU_CLK_CGATSTAT2_ECAT0_Msk | 0x20000000UL),      /**< ECAT0 
 493:C:/Files/Projects/Git/XMCLib/inc\xmc4_scu.h **** #endif  
 494:C:/Files/Projects/Git/XMCLib/inc\xmc4_scu.h **** #if defined(EBU)
 495:C:/Files/Projects/Git/XMCLib/inc\xmc4_scu.h ****   XMC_SCU_PERIPHERAL_CLOCK_EBU    = (SCU_CLK_CGATSTAT3_EBU_Msk | 0x30000000UL)       /**< EBU perip
 496:C:/Files/Projects/Git/XMCLib/inc\xmc4_scu.h **** #endif
 497:C:/Files/Projects/Git/XMCLib/inc\xmc4_scu.h **** } XMC_SCU_PERIPHERAL_CLOCK_t;
 498:C:/Files/Projects/Git/XMCLib/inc\xmc4_scu.h **** #endif
 499:C:/Files/Projects/Git/XMCLib/inc\xmc4_scu.h **** 
 500:C:/Files/Projects/Git/XMCLib/inc\xmc4_scu.h **** /**
 501:C:/Files/Projects/Git/XMCLib/inc\xmc4_scu.h ****  *  Defines options for system clock (fSYS) source. These enums are used to configure \a SYSSEL bit
 502:C:/Files/Projects/Git/XMCLib/inc\xmc4_scu.h ****  *  Clock Control Register. 
 503:C:/Files/Projects/Git/XMCLib/inc\xmc4_scu.h ****  *  Use type \a XMC_SCU_CLOCK_SYSCLKSRC_t for accessing these enum parameters.
 504:C:/Files/Projects/Git/XMCLib/inc\xmc4_scu.h ****  */ 
 505:C:/Files/Projects/Git/XMCLib/inc\xmc4_scu.h **** typedef enum XMC_SCU_CLOCK_SYSCLKSRC
 506:C:/Files/Projects/Git/XMCLib/inc\xmc4_scu.h **** {
 507:C:/Files/Projects/Git/XMCLib/inc\xmc4_scu.h ****   XMC_SCU_CLOCK_SYSCLKSRC_OFI = (0UL << SCU_CLK_SYSCLKCR_SYSSEL_Pos), /**< Internal Fast Clock (fOF
 508:C:/Files/Projects/Git/XMCLib/inc\xmc4_scu.h ****                                                                            source for system clock 
 509:C:/Files/Projects/Git/XMCLib/inc\xmc4_scu.h ****   XMC_SCU_CLOCK_SYSCLKSRC_PLL = (1UL << SCU_CLK_SYSCLKCR_SYSSEL_Pos)  /**< PLL output (fPLL) as a
 510:C:/Files/Projects/Git/XMCLib/inc\xmc4_scu.h ****                                                                            source for system clock 
 511:C:/Files/Projects/Git/XMCLib/inc\xmc4_scu.h **** } XMC_SCU_CLOCK_SYSCLKSRC_t;
 512:C:/Files/Projects/Git/XMCLib/inc\xmc4_scu.h **** 
 513:C:/Files/Projects/Git/XMCLib/inc\xmc4_scu.h **** /**
 514:C:/Files/Projects/Git/XMCLib/inc\xmc4_scu.h ****  *  Defines options for selecting the P-Divider input frequency. These enums are used to configure 
 515:C:/Files/Projects/Git/XMCLib/inc\xmc4_scu.h ****  *  register. 
 516:C:/Files/Projects/Git/XMCLib/inc\xmc4_scu.h ****  *  Use type \a XMC_SCU_CLOCK_OSCCLKSRC_t for accessing these enum parameters.
 517:C:/Files/Projects/Git/XMCLib/inc\xmc4_scu.h ****  */ 
 518:C:/Files/Projects/Git/XMCLib/inc\xmc4_scu.h **** typedef enum XMC_SCU_CLOCK_SYSPLLCLKSRC
 519:C:/Files/Projects/Git/XMCLib/inc\xmc4_scu.h **** {
 520:C:/Files/Projects/Git/XMCLib/inc\xmc4_scu.h ****   XMC_SCU_CLOCK_SYSPLLCLKSRC_OSCHP = 0UL,  /**< External crystal oscillator
 521:C:/Files/Projects/Git/XMCLib/inc\xmc4_scu.h ****                                                 (fOHP) as the source for P-Divider. */
 522:C:/Files/Projects/Git/XMCLib/inc\xmc4_scu.h ****   XMC_SCU_CLOCK_SYSPLLCLKSRC_OFI = SCU_PLL_PLLCON2_PINSEL_Msk | SCU_PLL_PLLCON2_K1INSEL_Msk /**< Ba
 523:C:/Files/Projects/Git/XMCLib/inc\xmc4_scu.h ****                                                                              as the source for P-Di
 524:C:/Files/Projects/Git/XMCLib/inc\xmc4_scu.h **** } XMC_SCU_CLOCK_SYSPLLCLKSRC_t;
 525:C:/Files/Projects/Git/XMCLib/inc\xmc4_scu.h **** 
 526:C:/Files/Projects/Git/XMCLib/inc\xmc4_scu.h **** /**
 527:C:/Files/Projects/Git/XMCLib/inc\xmc4_scu.h ****  * Defines options for selecting the USB clock source(fUSB/fSDMMC).
 528:C:/Files/Projects/Git/XMCLib/inc\xmc4_scu.h ****  * These enums are used to configure \a USBSEL bits of \a USBCLKCR
 529:C:/Files/Projects/Git/XMCLib/inc\xmc4_scu.h ****  * register. User can choose either fPLL or fUSBPLL clock as a source for USB clock. 
 530:C:/Files/Projects/Git/XMCLib/inc\xmc4_scu.h ****  * Use type \a XMC_SCU_CLOCK_USBCLKSRC_t for accessing these enum parameters.
 531:C:/Files/Projects/Git/XMCLib/inc\xmc4_scu.h ****  */ 
 532:C:/Files/Projects/Git/XMCLib/inc\xmc4_scu.h **** typedef enum XMC_SCU_CLOCK_USBCLKSRC
 533:C:/Files/Projects/Git/XMCLib/inc\xmc4_scu.h **** {
 534:C:/Files/Projects/Git/XMCLib/inc\xmc4_scu.h ****   XMC_SCU_CLOCK_USBCLKSRC_USBPLL = (0UL << SCU_CLK_USBCLKCR_USBSEL_Pos), /**< USB PLL(fUSB PLL) as 
 535:C:/Files/Projects/Git/XMCLib/inc\xmc4_scu.h ****                                                                            source for USB clock (fU
 536:C:/Files/Projects/Git/XMCLib/inc\xmc4_scu.h ****   XMC_SCU_CLOCK_USBCLKSRC_SYSPLL = (1UL << SCU_CLK_USBCLKCR_USBSEL_Pos)  /**< Main PLL output (fPLL
 537:C:/Files/Projects/Git/XMCLib/inc\xmc4_scu.h ****                                                                            source for USB clock (fU
 538:C:/Files/Projects/Git/XMCLib/inc\xmc4_scu.h **** } XMC_SCU_CLOCK_USBCLKSRC_t;
 539:C:/Files/Projects/Git/XMCLib/inc\xmc4_scu.h **** 
 540:C:/Files/Projects/Git/XMCLib/inc\xmc4_scu.h **** #if defined(ECAT0) 
 541:C:/Files/Projects/Git/XMCLib/inc\xmc4_scu.h **** /**
 542:C:/Files/Projects/Git/XMCLib/inc\xmc4_scu.h ****  * Defines options for selecting the ECAT clock source.
 543:C:/Files/Projects/Git/XMCLib/inc\xmc4_scu.h ****  */ 
 544:C:/Files/Projects/Git/XMCLib/inc\xmc4_scu.h **** typedef enum XMC_SCU_CLOCK_ECATCLKSRC
 545:C:/Files/Projects/Git/XMCLib/inc\xmc4_scu.h **** {
 546:C:/Files/Projects/Git/XMCLib/inc\xmc4_scu.h ****   XMC_SCU_CLOCK_ECATCLKSRC_USBPLL = (0UL << SCU_CLK_ECATCLKCR_ECATSEL_Pos), /**< USB PLL (fUSBPLL) 
 547:C:/Files/Projects/Git/XMCLib/inc\xmc4_scu.h ****   XMC_SCU_CLOCK_ECATCLKSRC_SYSPLL = (1UL << SCU_CLK_ECATCLKCR_ECATSEL_Pos)  /**< Main PLL output (f
 548:C:/Files/Projects/Git/XMCLib/inc\xmc4_scu.h **** } XMC_SCU_CLOCK_ECATCLKSRC_t;
 549:C:/Files/Projects/Git/XMCLib/inc\xmc4_scu.h **** #endif
 550:C:/Files/Projects/Git/XMCLib/inc\xmc4_scu.h **** 
 551:C:/Files/Projects/Git/XMCLib/inc\xmc4_scu.h **** /**
 552:C:/Files/Projects/Git/XMCLib/inc\xmc4_scu.h ****  *  Defines options for selecting the source of WDT clock(fWDT). These enums are used to configure 
 553:C:/Files/Projects/Git/XMCLib/inc\xmc4_scu.h ****  *  register. User can choose either fOFI or fPLL or fSTDBY clock as a source for WDT clock. 
 554:C:/Files/Projects/Git/XMCLib/inc\xmc4_scu.h ****  *  Use type \a XMC_SCU_CLOCK_USBCLKSRC_t for accessing these enum parameters.
 555:C:/Files/Projects/Git/XMCLib/inc\xmc4_scu.h ****  */ 
 556:C:/Files/Projects/Git/XMCLib/inc\xmc4_scu.h **** typedef enum XMC_SCU_CLOCK_WDTCLKSRC
 557:C:/Files/Projects/Git/XMCLib/inc\xmc4_scu.h **** {
 558:C:/Files/Projects/Git/XMCLib/inc\xmc4_scu.h ****   XMC_SCU_CLOCK_WDTCLKSRC_OFI = (0UL << SCU_CLK_WDTCLKCR_WDTSEL_Pos),  /**< Internal Fast Clock 
 559:C:/Files/Projects/Git/XMCLib/inc\xmc4_scu.h ****                                                                            (fOFI) as the source for
 560:C:/Files/Projects/Git/XMCLib/inc\xmc4_scu.h ****   XMC_SCU_CLOCK_WDTCLKSRC_STDBY = (1UL << SCU_CLK_WDTCLKCR_WDTSEL_Pos), /**< Standby clock 
 561:C:/Files/Projects/Git/XMCLib/inc\xmc4_scu.h ****                                                                            (fSTDBY) as the source f
 562:C:/Files/Projects/Git/XMCLib/inc\xmc4_scu.h ****   XMC_SCU_CLOCK_WDTCLKSRC_PLL = (2UL << SCU_CLK_WDTCLKCR_WDTSEL_Pos)   /**< PLL output (fPLL) as th
 563:C:/Files/Projects/Git/XMCLib/inc\xmc4_scu.h ****                                                                            source for WDT clock (fW
 564:C:/Files/Projects/Git/XMCLib/inc\xmc4_scu.h **** } XMC_SCU_CLOCK_WDTCLKSRC_t;
 565:C:/Files/Projects/Git/XMCLib/inc\xmc4_scu.h **** 
 566:C:/Files/Projects/Git/XMCLib/inc\xmc4_scu.h **** /**
 567:C:/Files/Projects/Git/XMCLib/inc\xmc4_scu.h ****  *  Defines options for selecting the source of external clock out (fEXT). These enums are used to 
 568:C:/Files/Projects/Git/XMCLib/inc\xmc4_scu.h ****  *  register. User can choose either fSYS or fPLL or fUSBPLL clock as a source for external clock o
 569:C:/Files/Projects/Git/XMCLib/inc\xmc4_scu.h ****  *  Use type \a XMC_SCU_CLOCK_EXTOUTCLKSRC_t for accessing these enum parameters.
 570:C:/Files/Projects/Git/XMCLib/inc\xmc4_scu.h ****  */ 
 571:C:/Files/Projects/Git/XMCLib/inc\xmc4_scu.h **** typedef enum XMC_SCU_CLOCK_EXTOUTCLKSRC
 572:C:/Files/Projects/Git/XMCLib/inc\xmc4_scu.h **** {
 573:C:/Files/Projects/Git/XMCLib/inc\xmc4_scu.h ****   XMC_SCU_CLOCK_EXTOUTCLKSRC_SYS = (0UL << SCU_CLK_EXTCLKCR_ECKSEL_Pos),  /**< System clock (fSYS) 
 574:C:/Files/Projects/Git/XMCLib/inc\xmc4_scu.h ****                                                                             the source for external
 575:C:/Files/Projects/Git/XMCLib/inc\xmc4_scu.h ****   XMC_SCU_CLOCK_EXTOUTCLKSRC_USB = (2UL << SCU_CLK_EXTCLKCR_ECKSEL_Pos), /**< USB PLL output(fUSB P
 576:C:/Files/Projects/Git/XMCLib/inc\xmc4_scu.h ****                                                                            source for external cloc
 577:C:/Files/Projects/Git/XMCLib/inc\xmc4_scu.h ****   XMC_SCU_CLOCK_EXTOUTCLKSRC_PLL = (3UL << SCU_CLK_EXTCLKCR_ECKSEL_Pos), /**< Main PLL output(fPLL)
 578:C:/Files/Projects/Git/XMCLib/inc\xmc4_scu.h ****                                                                            source for external cloc
 579:C:/Files/Projects/Git/XMCLib/inc\xmc4_scu.h **** #if ((UC_SERIES == XMC42) || (UC_SERIES == XMC41))
 580:C:/Files/Projects/Git/XMCLib/inc\xmc4_scu.h ****   XMC_SCU_CLOCK_EXTOUTCLKSRC_STDBY = (4UL << SCU_CLK_EXTCLKCR_ECKSEL_Pos), /**< Standby clock(fSTDB
 581:C:/Files/Projects/Git/XMCLib/inc\xmc4_scu.h ****                                                                            source for external cloc
 582:C:/Files/Projects/Git/XMCLib/inc\xmc4_scu.h **** #endif
 583:C:/Files/Projects/Git/XMCLib/inc\xmc4_scu.h **** } XMC_SCU_CLOCK_EXTOUTCLKSRC_t;
 584:C:/Files/Projects/Git/XMCLib/inc\xmc4_scu.h **** 
 585:C:/Files/Projects/Git/XMCLib/inc\xmc4_scu.h **** /**
 586:C:/Files/Projects/Git/XMCLib/inc\xmc4_scu.h ****  *  Defines options for selecting the source of RTC Clock (fRTC). These enums are used to configure
 587:C:/Files/Projects/Git/XMCLib/inc\xmc4_scu.h ****  *  User can choose either fOSI or fULP clock as a source for RTC Clock (fRTC).
 588:C:/Files/Projects/Git/XMCLib/inc\xmc4_scu.h ****  *  Use type \a XMC_SCU_HIB_RTCCLKSRC_t for accessing these enum parameters.
 589:C:/Files/Projects/Git/XMCLib/inc\xmc4_scu.h ****  */
 590:C:/Files/Projects/Git/XMCLib/inc\xmc4_scu.h **** typedef enum XMC_SCU_HIB_RTCCLKSRC
 591:C:/Files/Projects/Git/XMCLib/inc\xmc4_scu.h **** {
 592:C:/Files/Projects/Git/XMCLib/inc\xmc4_scu.h ****   XMC_SCU_HIB_RTCCLKSRC_OSI = (0UL << SCU_HIBERNATE_HDCR_RCS_Pos), /**< Internal Slow Clock
 593:C:/Files/Projects/Git/XMCLib/inc\xmc4_scu.h ****                                                                          (fOSI) as the source for R
 594:C:/Files/Projects/Git/XMCLib/inc\xmc4_scu.h ****   XMC_SCU_HIB_RTCCLKSRC_ULP = (1UL << SCU_HIBERNATE_HDCR_RCS_Pos) /**< Ultra Low Power Clock (fULP)
 595:C:/Files/Projects/Git/XMCLib/inc\xmc4_scu.h ****                                                                         as the source for RTC Clock
 596:C:/Files/Projects/Git/XMCLib/inc\xmc4_scu.h **** } XMC_SCU_HIB_RTCCLKSRC_t;
 597:C:/Files/Projects/Git/XMCLib/inc\xmc4_scu.h **** 
 598:C:/Files/Projects/Git/XMCLib/inc\xmc4_scu.h **** /**
 599:C:/Files/Projects/Git/XMCLib/inc\xmc4_scu.h ****  *  Defines options for selecting the source of Standby Clock (fSTDBY). These enums are used to con
 600:C:/Files/Projects/Git/XMCLib/inc\xmc4_scu.h ****  *  register. User can choose either fOSI or fULP clock as a source for Standby Clock (fSTDBY).
 601:C:/Files/Projects/Git/XMCLib/inc\xmc4_scu.h ****  *  Use type \a XMC_SCU_HIB_STDBYCLKSRC_t for accessing these enum parameters.
 602:C:/Files/Projects/Git/XMCLib/inc\xmc4_scu.h ****  */
 603:C:/Files/Projects/Git/XMCLib/inc\xmc4_scu.h **** typedef enum XMC_SCU_HIB_STDBYCLKSRC
 604:C:/Files/Projects/Git/XMCLib/inc\xmc4_scu.h **** {
 605:C:/Files/Projects/Git/XMCLib/inc\xmc4_scu.h ****   XMC_SCU_HIB_STDBYCLKSRC_OSI = (0UL << SCU_HIBERNATE_HDCR_STDBYSEL_Pos), /**< Internal Slow Clock 
 606:C:/Files/Projects/Git/XMCLib/inc\xmc4_scu.h ****                                                                           (fOSI) as the source for 
 607:C:/Files/Projects/Git/XMCLib/inc\xmc4_scu.h ****                                                                           (fSTDBY). */
 608:C:/Files/Projects/Git/XMCLib/inc\xmc4_scu.h ****   XMC_SCU_HIB_STDBYCLKSRC_OSCULP = (1UL << SCU_HIBERNATE_HDCR_STDBYSEL_Pos) /**< Ultra Low Power Cl
 609:C:/Files/Projects/Git/XMCLib/inc\xmc4_scu.h ****                                                                           (fULP) as the source for 
 610:C:/Files/Projects/Git/XMCLib/inc\xmc4_scu.h ****                                                                           (fSTDBY). */
 611:C:/Files/Projects/Git/XMCLib/inc\xmc4_scu.h **** } XMC_SCU_HIB_STDBYCLKSRC_t;
 612:C:/Files/Projects/Git/XMCLib/inc\xmc4_scu.h **** 
 613:C:/Files/Projects/Git/XMCLib/inc\xmc4_scu.h **** /**
 614:C:/Files/Projects/Git/XMCLib/inc\xmc4_scu.h ****  *  Defines options for backup clock trimming. These enums are used to configure \a AOTREN  \a FOTR
 615:C:/Files/Projects/Git/XMCLib/inc\xmc4_scu.h ****  *  PLLCON0 register. Use type \a XMC_SCU_CLOCK_BACKUP_TRIM_t for accessing these enum parameters.
 616:C:/Files/Projects/Git/XMCLib/inc\xmc4_scu.h ****  */
 617:C:/Files/Projects/Git/XMCLib/inc\xmc4_scu.h **** typedef enum XMC_SCU_CLOCK_FOFI_CALIBRATION_MODE
 618:C:/Files/Projects/Git/XMCLib/inc\xmc4_scu.h **** {
 619:C:/Files/Projects/Git/XMCLib/inc\xmc4_scu.h ****   XMC_SCU_CLOCK_FOFI_CALIBRATION_MODE_FACTORY   = 0UL,  /**< Factory Oscillator Calibration: 
 620:C:/Files/Projects/Git/XMCLib/inc\xmc4_scu.h ****                                                         Force adjustment of the internal oscillator
 621:C:/Files/Projects/Git/XMCLib/inc\xmc4_scu.h ****   XMC_SCU_CLOCK_FOFI_CALIBRATION_MODE_AUTOMATIC = 1UL   /**<  Automatic Oscillator Calibration adju
 622:C:/Files/Projects/Git/XMCLib/inc\xmc4_scu.h **** } XMC_SCU_CLOCK_FOFI_CALIBRATION_MODE_t;
 623:C:/Files/Projects/Git/XMCLib/inc\xmc4_scu.h **** 
 624:C:/Files/Projects/Git/XMCLib/inc\xmc4_scu.h **** 
 625:C:/Files/Projects/Git/XMCLib/inc\xmc4_scu.h **** /**
 626:C:/Files/Projects/Git/XMCLib/inc\xmc4_scu.h ****  *  Defines options for selecting device boot mode. These enums are used to configure \a SWCON bits
 627:C:/Files/Projects/Git/XMCLib/inc\xmc4_scu.h ****  *  User can choose among various boot modes by configuring SWCON bits.
 628:C:/Files/Projects/Git/XMCLib/inc\xmc4_scu.h ****  *  Use type \a XMC_SCU_BOOTMODE_t for accessing these enum parameters.
 629:C:/Files/Projects/Git/XMCLib/inc\xmc4_scu.h ****  */
 630:C:/Files/Projects/Git/XMCLib/inc\xmc4_scu.h **** typedef enum XMC_SCU_BOOTMODE 
 631:C:/Files/Projects/Git/XMCLib/inc\xmc4_scu.h **** {
 632:C:/Files/Projects/Git/XMCLib/inc\xmc4_scu.h ****   XMC_SCU_BOOTMODE_NORMAL     = (0UL << SCU_GENERAL_STCON_SWCON_Pos), /**< Boot from start of flash
 633:C:/Files/Projects/Git/XMCLib/inc\xmc4_scu.h ****   XMC_SCU_BOOTMODE_ASC_BSL    = (1UL << SCU_GENERAL_STCON_SWCON_Pos), /**< UART bootstrap. */
 634:C:/Files/Projects/Git/XMCLib/inc\xmc4_scu.h ****   XMC_SCU_BOOTMODE_BMI        = (2UL << SCU_GENERAL_STCON_SWCON_Pos), /**< Boot Mode Index - Custom
 635:C:/Files/Projects/Git/XMCLib/inc\xmc4_scu.h ****                                                                            sequence. */
 636:C:/Files/Projects/Git/XMCLib/inc\xmc4_scu.h ****   XMC_SCU_BOOTMODE_CAN_BSL    = (3UL << SCU_GENERAL_STCON_SWCON_Pos), /**< CAN bootstrap. */
 637:C:/Files/Projects/Git/XMCLib/inc\xmc4_scu.h ****   XMC_SCU_BOOTMODE_PSRAM_BOOT = (4UL << SCU_GENERAL_STCON_SWCON_Pos), /**< Boot from PSRAM. */
 638:C:/Files/Projects/Git/XMCLib/inc\xmc4_scu.h ****   XMC_SCU_BOOTMODE_ABM0       = (8UL << SCU_GENERAL_STCON_SWCON_Pos), /**< Boot from flash - fixed 
 639:C:/Files/Projects/Git/XMCLib/inc\xmc4_scu.h ****                                                                            address 0. */
 640:C:/Files/Projects/Git/XMCLib/inc\xmc4_scu.h ****   XMC_SCU_BOOTMODE_ABM1       = (12UL << SCU_GENERAL_STCON_SWCON_Pos), /**< Boot from flash - fixed
 641:C:/Files/Projects/Git/XMCLib/inc\xmc4_scu.h ****                                                                             address 1. */
 642:C:/Files/Projects/Git/XMCLib/inc\xmc4_scu.h ****   XMC_SCU_BOOTMODE_FABM       = (14UL << SCU_GENERAL_STCON_SWCON_Pos), /**< fallback Alternate Boot
 643:C:/Files/Projects/Git/XMCLib/inc\xmc4_scu.h ****                                                                             Try ABM-0 then try ABM-
 644:C:/Files/Projects/Git/XMCLib/inc\xmc4_scu.h **** } XMC_SCU_BOOTMODE_t;
 645:C:/Files/Projects/Git/XMCLib/inc\xmc4_scu.h **** 
 646:C:/Files/Projects/Git/XMCLib/inc\xmc4_scu.h **** 
 647:C:/Files/Projects/Git/XMCLib/inc\xmc4_scu.h **** /**
 648:C:/Files/Projects/Git/XMCLib/inc\xmc4_scu.h ****  *  Defines various PLL modes of operation. These enums are used to configure \a VCOBYP bit of \a P
 649:C:/Files/Projects/Git/XMCLib/inc\xmc4_scu.h ****  *  User can choose either normal or prescalar mode by configuring VCOBYP bit.
 650:C:/Files/Projects/Git/XMCLib/inc\xmc4_scu.h ****  *  Use type \a XMC_SCU_PLL_MODE_t for accessing these enum parameters.
 651:C:/Files/Projects/Git/XMCLib/inc\xmc4_scu.h ****  */
 652:C:/Files/Projects/Git/XMCLib/inc\xmc4_scu.h **** typedef enum XMC_SCU_CLOCK_SYSPLL_MODE
 653:C:/Files/Projects/Git/XMCLib/inc\xmc4_scu.h **** {
 654:C:/Files/Projects/Git/XMCLib/inc\xmc4_scu.h ****   XMC_SCU_CLOCK_SYSPLL_MODE_DISABLED, /**< fPLL derived from fOSC and PLL operating in prescalar mo
 655:C:/Files/Projects/Git/XMCLib/inc\xmc4_scu.h ****   XMC_SCU_CLOCK_SYSPLL_MODE_NORMAL,  /**< fPLL derived from fVCO and PLL operating in normal mode. 
 656:C:/Files/Projects/Git/XMCLib/inc\xmc4_scu.h ****   XMC_SCU_CLOCK_SYSPLL_MODE_PRESCALAR /**< fPLL derived from fOSC and PLL operating in prescalar mo
 657:C:/Files/Projects/Git/XMCLib/inc\xmc4_scu.h **** } XMC_SCU_CLOCK_SYSPLL_MODE_t;
 658:C:/Files/Projects/Git/XMCLib/inc\xmc4_scu.h **** 
 659:C:/Files/Projects/Git/XMCLib/inc\xmc4_scu.h **** /** 
 660:C:/Files/Projects/Git/XMCLib/inc\xmc4_scu.h ****  *  Defines the source of the system clock and peripherals clock gating in SLEEP state.
 661:C:/Files/Projects/Git/XMCLib/inc\xmc4_scu.h ****  *  Use this enum as parameter of XMC_SCU_CLOCK_SetSleepConfig before going to SLEEP state.
 662:C:/Files/Projects/Git/XMCLib/inc\xmc4_scu.h ****  *
 663:C:/Files/Projects/Git/XMCLib/inc\xmc4_scu.h ****  *  The SLEEP state of the system corresponds to the SLEEP state of the CPU. The state is
 664:C:/Files/Projects/Git/XMCLib/inc\xmc4_scu.h ****  *  entered via WFI or WFE instruction of the CPU. In this state the clock to the CPU is
 665:C:/Files/Projects/Git/XMCLib/inc\xmc4_scu.h ****  *  stopped. Peripherals are only clocked when configured to stay enabled. 
 666:C:/Files/Projects/Git/XMCLib/inc\xmc4_scu.h ****  *
 667:C:/Files/Projects/Git/XMCLib/inc\xmc4_scu.h ****  *  Peripherals can continue to operate unaffected and eventually generate an event to
 668:C:/Files/Projects/Git/XMCLib/inc\xmc4_scu.h ****  *  wake-up the CPU. Any interrupt to the NVIC will bring the CPU back to operation. The
 669:C:/Files/Projects/Git/XMCLib/inc\xmc4_scu.h ****  *  clock tree upon exit from SLEEP state is restored to what it was before entry into SLEEP
 670:C:/Files/Projects/Git/XMCLib/inc\xmc4_scu.h ****  *  state.
 671:C:/Files/Projects/Git/XMCLib/inc\xmc4_scu.h ****  *  
 672:C:/Files/Projects/Git/XMCLib/inc\xmc4_scu.h ****  */
 673:C:/Files/Projects/Git/XMCLib/inc\xmc4_scu.h **** typedef enum XMC_SCU_CLOCK_SLEEP_MODE_CONFIG
 674:C:/Files/Projects/Git/XMCLib/inc\xmc4_scu.h **** {
 675:C:/Files/Projects/Git/XMCLib/inc\xmc4_scu.h ****   XMC_SCU_CLOCK_SLEEP_MODE_CONFIG_SYSCLK_FOFI = 0,  /**< fOFI used as system clock source in SLEEP 
 676:C:/Files/Projects/Git/XMCLib/inc\xmc4_scu.h ****   XMC_SCU_CLOCK_SLEEP_MODE_CONFIG_SYSCLK_FPLL = SCU_CLK_SLEEPCR_SYSSEL_Msk,  /**< fPLL used as syst
 677:C:/Files/Projects/Git/XMCLib/inc\xmc4_scu.h **** #if defined(USB0)
 678:C:/Files/Projects/Git/XMCLib/inc\xmc4_scu.h ****   XMC_SCU_CLOCK_SLEEP_MODE_CONFIG_DISABLE_USB = 0,  /**< USB clock disabled in SLEEP state */
 679:C:/Files/Projects/Git/XMCLib/inc\xmc4_scu.h ****   XMC_SCU_CLOCK_SLEEP_MODE_CONFIG_ENABLE_USB = SCU_CLK_SLEEPCR_USBCR_Msk,  /**< USB clock enabled i
 680:C:/Files/Projects/Git/XMCLib/inc\xmc4_scu.h **** #endif  
 681:C:/Files/Projects/Git/XMCLib/inc\xmc4_scu.h **** #if defined(SDMMC)
 682:C:/Files/Projects/Git/XMCLib/inc\xmc4_scu.h ****   XMC_SCU_CLOCK_SLEEP_MODE_CONFIG_DISABLE_SDMMC = 0,/**< SDMMC clock disabled in SLEEP state */
 683:C:/Files/Projects/Git/XMCLib/inc\xmc4_scu.h ****   XMC_SCU_CLOCK_SLEEP_MODE_CONFIG_ENABLE_SDMMC = SCU_CLK_SLEEPCR_MMCCR_Msk,/**< SDMMC clock enabled
 684:C:/Files/Projects/Git/XMCLib/inc\xmc4_scu.h **** #endif  
 685:C:/Files/Projects/Git/XMCLib/inc\xmc4_scu.h **** #if defined(ETH0)
 686:C:/Files/Projects/Git/XMCLib/inc\xmc4_scu.h ****   XMC_SCU_CLOCK_SLEEP_MODE_CONFIG_DISABLE_ETH = 0,  /**< ETH clock disabled in SLEEP state */
 687:C:/Files/Projects/Git/XMCLib/inc\xmc4_scu.h ****   XMC_SCU_CLOCK_SLEEP_MODE_CONFIG_ENABLE_ETH = SCU_CLK_SLEEPCR_ETH0CR_Msk,  /**< ETH clock enabled 
 688:C:/Files/Projects/Git/XMCLib/inc\xmc4_scu.h **** #endif  
 689:C:/Files/Projects/Git/XMCLib/inc\xmc4_scu.h **** #if defined(EBU)
 690:C:/Files/Projects/Git/XMCLib/inc\xmc4_scu.h ****   XMC_SCU_CLOCK_SLEEP_MODE_CONFIG_DISABLE_EBU = 0,  /**< EBU clock disabled in SLEEP state */
 691:C:/Files/Projects/Git/XMCLib/inc\xmc4_scu.h ****   XMC_SCU_CLOCK_SLEEP_MODE_CONFIG_ENABLE_EBU = SCU_CLK_SLEEPCR_EBUCR_Msk,  /**< EBU clock enabled i
 692:C:/Files/Projects/Git/XMCLib/inc\xmc4_scu.h **** #endif  
 693:C:/Files/Projects/Git/XMCLib/inc\xmc4_scu.h ****   XMC_SCU_CLOCK_SLEEP_MODE_CONFIG_DISABLED_CCU = 0,  /**< CCU clock disabled in SLEEP state */
 694:C:/Files/Projects/Git/XMCLib/inc\xmc4_scu.h ****   XMC_SCU_CLOCK_SLEEP_MODE_CONFIG_ENABLE_CCU = SCU_CLK_SLEEPCR_CCUCR_Msk,  /**< CCU clock enabled i
 695:C:/Files/Projects/Git/XMCLib/inc\xmc4_scu.h ****   XMC_SCU_CLOCK_SLEEP_MODE_CONFIG_DISABLED_WDT = 0,  /**< WDT clock disabled in SLEEP state */
 696:C:/Files/Projects/Git/XMCLib/inc\xmc4_scu.h ****   XMC_SCU_CLOCK_SLEEP_MODE_CONFIG_ENABLE_WDT = SCU_CLK_SLEEPCR_WDTCR_Msk,  /**< WDT clock enabled i
 697:C:/Files/Projects/Git/XMCLib/inc\xmc4_scu.h **** } XMC_SCU_CLOCK_SLEEP_MODE_CONFIG_t;
 698:C:/Files/Projects/Git/XMCLib/inc\xmc4_scu.h **** 
 699:C:/Files/Projects/Git/XMCLib/inc\xmc4_scu.h **** /** 
 700:C:/Files/Projects/Git/XMCLib/inc\xmc4_scu.h ****  *  Defines the source of the system clock and peripherals clock gating in DEEPSLEEP state.
 701:C:/Files/Projects/Git/XMCLib/inc\xmc4_scu.h ****  *  In addition the state of FLASH, PLL and PLLVCO during DEEPSLEEP state.
 702:C:/Files/Projects/Git/XMCLib/inc\xmc4_scu.h ****  *  Use this enum as parameter of XMC_SCU_CLOCK_SetDeepSleepConfig before going to DEEPSLEEP state.
 703:C:/Files/Projects/Git/XMCLib/inc\xmc4_scu.h ****  *
 704:C:/Files/Projects/Git/XMCLib/inc\xmc4_scu.h ****  *  The DEEPSLEEP state of the system corresponds to the DEEPSLEEP state of the CPU. The state is
 705:C:/Files/Projects/Git/XMCLib/inc\xmc4_scu.h ****  *  entered via WFI or WFE instruction of the CPU. In this state the clock to the CPU is
 706:C:/Files/Projects/Git/XMCLib/inc\xmc4_scu.h ****  *  stopped. 
 707:C:/Files/Projects/Git/XMCLib/inc\xmc4_scu.h ****  *
 708:C:/Files/Projects/Git/XMCLib/inc\xmc4_scu.h ****  *  In Deep Sleep state the OSC_HP and the PLL may be switched off. The wake-up logic in the NVIC i
 709:C:/Files/Projects/Git/XMCLib/inc\xmc4_scu.h ****  *  by a free-running clock. Peripherals are only clocked when configured to stay enabled. 
 710:C:/Files/Projects/Git/XMCLib/inc\xmc4_scu.h ****  *  Configuration of peripherals and any SRAM content is preserved.
 711:C:/Files/Projects/Git/XMCLib/inc\xmc4_scu.h ****  *  The Flash module can be put into low-power mode to achieve a further power reduction.
 712:C:/Files/Projects/Git/XMCLib/inc\xmc4_scu.h ****  *  On wake-up Flash module will be restarted again before instructions or data access is possible.
 713:C:/Files/Projects/Git/XMCLib/inc\xmc4_scu.h ****  *  Any interrupt will bring the system back to operation via the NVIC.The clock setup before
 714:C:/Files/Projects/Git/XMCLib/inc\xmc4_scu.h ****  *  entering Deep Sleep state is restored upon wake-up.
 715:C:/Files/Projects/Git/XMCLib/inc\xmc4_scu.h ****  */
 716:C:/Files/Projects/Git/XMCLib/inc\xmc4_scu.h **** typedef enum XMC_SCU_CLOCK_DEEPSLEEP_MODE_CONFIG
 717:C:/Files/Projects/Git/XMCLib/inc\xmc4_scu.h **** {
 718:C:/Files/Projects/Git/XMCLib/inc\xmc4_scu.h ****   XMC_SCU_CLOCK_DEEPSLEEP_MODE_CONFIG_SYSCLK_FOFI = 0,  /**< fOFI used as system clock source in DE
 719:C:/Files/Projects/Git/XMCLib/inc\xmc4_scu.h ****   XMC_SCU_CLOCK_DEEPSLEEP_MODE_CONFIG_SYSCLK_FPLL = SCU_CLK_DSLEEPCR_SYSSEL_Msk,  /**< fPLL used as
 720:C:/Files/Projects/Git/XMCLib/inc\xmc4_scu.h ****   XMC_SCU_CLOCK_DEEPSLEEP_MODE_CONFIG_FLASH_POWERDOWN = SCU_CLK_DSLEEPCR_FPDN_Msk,/**< Flash power 
 721:C:/Files/Projects/Git/XMCLib/inc\xmc4_scu.h ****   XMC_SCU_CLOCK_DEEPSLEEP_MODE_CONFIG_PLL_POWERDOWN = SCU_CLK_DSLEEPCR_PLLPDN_Msk,  /**<  Switch of
 722:C:/Files/Projects/Git/XMCLib/inc\xmc4_scu.h ****   XMC_SCU_CLOCK_DEEPSLEEP_MODE_CONFIG_VCO_POWERDOWN = SCU_CLK_DSLEEPCR_VCOPDN_Msk,  /**<  Switch of
 723:C:/Files/Projects/Git/XMCLib/inc\xmc4_scu.h **** #if defined(USB0)
 724:C:/Files/Projects/Git/XMCLib/inc\xmc4_scu.h ****   XMC_SCU_CLOCK_DEEPSLEEP_MODE_CONFIG_DISABLE_USB = 0,  /**< USB clock disabled in DEEPSLEEP state 
 725:C:/Files/Projects/Git/XMCLib/inc\xmc4_scu.h ****   XMC_SCU_CLOCK_DEEPSLEEP_MODE_CONFIG_ENABLE_USB = SCU_CLK_DSLEEPCR_USBCR_Msk,  /**< USB clock enab
 726:C:/Files/Projects/Git/XMCLib/inc\xmc4_scu.h **** #endif  
 727:C:/Files/Projects/Git/XMCLib/inc\xmc4_scu.h **** #if defined(SDMMC)
 728:C:/Files/Projects/Git/XMCLib/inc\xmc4_scu.h ****   XMC_SCU_CLOCK_DEEPSLEEP_MODE_CONFIG_DISABLE_SDMMC = 0,/**< SDMMC clock disabled in DEEPSLEEP stat
 729:C:/Files/Projects/Git/XMCLib/inc\xmc4_scu.h ****   XMC_SCU_CLOCK_DEEPSLEEP_MODE_CONFIG_ENABLE_SDMMC = SCU_CLK_DSLEEPCR_MMCCR_Msk,/**< SDMMC clock en
 730:C:/Files/Projects/Git/XMCLib/inc\xmc4_scu.h **** #endif  
 731:C:/Files/Projects/Git/XMCLib/inc\xmc4_scu.h **** #if defined(ETH0)
 732:C:/Files/Projects/Git/XMCLib/inc\xmc4_scu.h ****   XMC_SCU_CLOCK_DEEPSLEEP_MODE_CONFIG_DISABLE_ETH = 0,  /**< ETH clock disabled in DEEPSLEEP state 
 733:C:/Files/Projects/Git/XMCLib/inc\xmc4_scu.h ****   XMC_SCU_CLOCK_DEEPSLEEP_MODE_CONFIG_ENABLE_ETH = SCU_CLK_DSLEEPCR_ETH0CR_Msk,  /**< ETH clock ena
 734:C:/Files/Projects/Git/XMCLib/inc\xmc4_scu.h **** #endif  
 735:C:/Files/Projects/Git/XMCLib/inc\xmc4_scu.h **** #if defined(EBU)
 736:C:/Files/Projects/Git/XMCLib/inc\xmc4_scu.h ****   XMC_SCU_CLOCK_DEEPSLEEP_MODE_CONFIG_DISABLE_EBU = 0,  /**< EBU clock disabled in DEEPSLEEP state 
 737:C:/Files/Projects/Git/XMCLib/inc\xmc4_scu.h ****   XMC_SCU_CLOCK_DEEPSLEEP_MODE_CONFIG_ENABLE_EBU = SCU_CLK_DSLEEPCR_EBUCR_Msk,  /**< EBU clock enab
 738:C:/Files/Projects/Git/XMCLib/inc\xmc4_scu.h **** #endif  
 739:C:/Files/Projects/Git/XMCLib/inc\xmc4_scu.h ****   XMC_SCU_CLOCK_DEEPSLEEP_MODE_CONFIG_DISABLE_CCU = 0,  /**< CCU clock disabled in DEEPSLEEP state 
 740:C:/Files/Projects/Git/XMCLib/inc\xmc4_scu.h ****   XMC_SCU_CLOCK_DEEPSLEEP_MODE_CONFIG_ENABLE_CCU = SCU_CLK_DSLEEPCR_CCUCR_Msk,  /**< CCU clock enab
 741:C:/Files/Projects/Git/XMCLib/inc\xmc4_scu.h ****   XMC_SCU_CLOCK_DEEPSLEEP_MODE_CONFIG_DISABLE_WDT = 0,  /**< WDT clock disabled in DEEPSLEEP state 
 742:C:/Files/Projects/Git/XMCLib/inc\xmc4_scu.h ****   XMC_SCU_CLOCK_DEEPSLEEP_MODE_CONFIG_ENABLE_WDT = SCU_CLK_DSLEEPCR_WDTCR_Msk,  /**< WDT clock enab
 743:C:/Files/Projects/Git/XMCLib/inc\xmc4_scu.h **** } XMC_SCU_CLOCK_DEEPSLEEP_MODE_CONFIG_t;
 744:C:/Files/Projects/Git/XMCLib/inc\xmc4_scu.h **** 
 745:C:/Files/Projects/Git/XMCLib/inc\xmc4_scu.h **** /** 
 746:C:/Files/Projects/Git/XMCLib/inc\xmc4_scu.h ****  * Defines status of EVR13 regulator
 747:C:/Files/Projects/Git/XMCLib/inc\xmc4_scu.h ****  */
 748:C:/Files/Projects/Git/XMCLib/inc\xmc4_scu.h **** typedef enum XMC_SCU_POWER_EVR_STATUS
 749:C:/Files/Projects/Git/XMCLib/inc\xmc4_scu.h **** {
 750:C:/Files/Projects/Git/XMCLib/inc\xmc4_scu.h ****   XMC_SCU_POWER_EVR_STATUS_OK = 0, /**< EVR13 regulator No overvoltage condition */
 751:C:/Files/Projects/Git/XMCLib/inc\xmc4_scu.h ****   XMC_SCU_POWER_EVR_STATUS_EVR13_OVERVOLTAGE = SCU_POWER_EVRSTAT_OV13_Msk /**< EVR13 regulator is i
 752:C:/Files/Projects/Git/XMCLib/inc\xmc4_scu.h **** } XMC_SCU_POWER_EVR_STATUS_t;
 753:C:/Files/Projects/Git/XMCLib/inc\xmc4_scu.h **** 
 754:C:/Files/Projects/Git/XMCLib/inc\xmc4_scu.h **** /**
 755:C:/Files/Projects/Git/XMCLib/inc\xmc4_scu.h ****  * Define status of external hibernate control  
 756:C:/Files/Projects/Git/XMCLib/inc\xmc4_scu.h ****  */
 757:C:/Files/Projects/Git/XMCLib/inc\xmc4_scu.h **** typedef enum XMC_SCU_HIB_CTRL_STATUS
 758:C:/Files/Projects/Git/XMCLib/inc\xmc4_scu.h **** {
 759:C:/Files/Projects/Git/XMCLib/inc\xmc4_scu.h ****   XMC_SCU_HIB_CTRL_STATUS_NO_ACTIVE = 0, /**< Hibernate not driven active to pads */
 760:C:/Files/Projects/Git/XMCLib/inc\xmc4_scu.h ****   XMC_SCU_HIB_CTRL_STATUS_ACTIVE = SCU_HIBERNATE_HDSTAT_HIBNOUT_Msk, /**< Hibernate driven active t
 761:C:/Files/Projects/Git/XMCLib/inc\xmc4_scu.h **** } XMC_SCU_HIB_CTRL_STATUS_t;
 762:C:/Files/Projects/Git/XMCLib/inc\xmc4_scu.h **** 
 763:C:/Files/Projects/Git/XMCLib/inc\xmc4_scu.h **** /** 
 764:C:/Files/Projects/Git/XMCLib/inc\xmc4_scu.h ****  *  Hibernate domain event status
 765:C:/Files/Projects/Git/XMCLib/inc\xmc4_scu.h ****  */
 766:C:/Files/Projects/Git/XMCLib/inc\xmc4_scu.h **** typedef enum XMC_SCU_HIB_EVENT
 767:C:/Files/Projects/Git/XMCLib/inc\xmc4_scu.h **** {
 768:C:/Files/Projects/Git/XMCLib/inc\xmc4_scu.h ****   XMC_SCU_HIB_EVENT_WAKEUP_ON_POS_EDGE = SCU_HIBERNATE_HDCR_WKPEP_Msk, /**< Wake-up on positive edg
 769:C:/Files/Projects/Git/XMCLib/inc\xmc4_scu.h ****   XMC_SCU_HIB_EVENT_WAKEUP_ON_NEG_EDGE = SCU_HIBERNATE_HDCR_WKPEN_Msk, /**< Wake-up on negative edg
 770:C:/Files/Projects/Git/XMCLib/inc\xmc4_scu.h ****   XMC_SCU_HIB_EVENT_WAKEUP_ON_RTC = SCU_HIBERNATE_HDCR_RTCE_Msk, /**< Wake-up on RTC event */
 771:C:/Files/Projects/Git/XMCLib/inc\xmc4_scu.h ****   XMC_SCU_HIB_EVENT_ULPWDG = SCU_HIBERNATE_HDCR_ULPWDGEN_Msk, /**< ULP watchdog alarm status */
 772:C:/Files/Projects/Git/XMCLib/inc\xmc4_scu.h **** #if (defined(DOXYGEN) || (UC_SERIES == XMC44) || (UC_SERIES == XMC42) || (UC_SERIES == XMC41))
 773:C:/Files/Projects/Git/XMCLib/inc\xmc4_scu.h ****   XMC_SCU_HIB_EVENT_LPAC_VBAT_POSEDGE = SCU_HIBERNATE_HDSTAT_VBATPEV_Msk, /**< Wake-up on LPAC posi
 774:C:/Files/Projects/Git/XMCLib/inc\xmc4_scu.h ****   XMC_SCU_HIB_EVENT_LPAC_VBAT_NEGEDGE = SCU_HIBERNATE_HDSTAT_VBATNEV_Msk, /**< Wake-up on LPAC nega
 775:C:/Files/Projects/Git/XMCLib/inc\xmc4_scu.h ****   XMC_SCU_HIB_EVENT_LPAC_HIB_IO_0_POSEDGE = SCU_HIBERNATE_HDSTAT_AHIBIO0PEV_Msk, /**< Wake-up on LP
 776:C:/Files/Projects/Git/XMCLib/inc\xmc4_scu.h ****   XMC_SCU_HIB_EVENT_LPAC_HIB_IO_0_NEGEDGE = SCU_HIBERNATE_HDSTAT_AHIBIO0NEV_Msk, /**< Wake-up on LP
 777:C:/Files/Projects/Git/XMCLib/inc\xmc4_scu.h **** #if (defined(DOXYGEN) || ((UC_SERIES == XMC44) && (UC_PACKAGE == LQFP100)))
 778:C:/Files/Projects/Git/XMCLib/inc\xmc4_scu.h ****   XMC_SCU_HIB_EVENT_LPAC_HIB_IO_1_POSEDGE = SCU_HIBERNATE_HDSTAT_AHIBIO1PEV_Msk, /**< Wake-up on LP
 779:C:/Files/Projects/Git/XMCLib/inc\xmc4_scu.h ****   XMC_SCU_HIB_EVENT_LPAC_HIB_IO_1_NEGEDGE = SCU_HIBERNATE_HDSTAT_AHIBIO1NEV_Msk, /**< Wake-up on LP
 780:C:/Files/Projects/Git/XMCLib/inc\xmc4_scu.h **** #endif
 781:C:/Files/Projects/Git/XMCLib/inc\xmc4_scu.h **** #endif  
 782:C:/Files/Projects/Git/XMCLib/inc\xmc4_scu.h **** } XMC_SCU_HIB_EVENT_t;
 783:C:/Files/Projects/Git/XMCLib/inc\xmc4_scu.h **** 
 784:C:/Files/Projects/Git/XMCLib/inc\xmc4_scu.h **** /** 
 785:C:/Files/Projects/Git/XMCLib/inc\xmc4_scu.h ****   * Hibernate domain dedicated pins
 786:C:/Files/Projects/Git/XMCLib/inc\xmc4_scu.h ****   */
 787:C:/Files/Projects/Git/XMCLib/inc\xmc4_scu.h **** typedef enum XMC_SCU_HIB_IO
 788:C:/Files/Projects/Git/XMCLib/inc\xmc4_scu.h **** {
 789:C:/Files/Projects/Git/XMCLib/inc\xmc4_scu.h ****   XMC_SCU_HIB_IO_0 = 0, /**< HIB_IO_0 pin. 
 790:C:/Files/Projects/Git/XMCLib/inc\xmc4_scu.h ****                              At the first power-up and with every reset of the hibernate domain thi
 791:C:/Files/Projects/Git/XMCLib/inc\xmc4_scu.h **** #if (defined(DOXYGEN) || (UC_PACKAGE == BGA196) || (UC_PACKAGE == BGA144) || (UC_PACKAGE == LQFP144
 792:C:/Files/Projects/Git/XMCLib/inc\xmc4_scu.h ****   XMC_SCU_HIB_IO_1 = 1 /**< HIB_IO_1 pin. 
 793:C:/Files/Projects/Git/XMCLib/inc\xmc4_scu.h ****                             At the first power-up and with every reset of the hibernate domain this
 794:C:/Files/Projects/Git/XMCLib/inc\xmc4_scu.h ****                             @note : Only available in certain packages*/
 795:C:/Files/Projects/Git/XMCLib/inc\xmc4_scu.h **** #endif  
 796:C:/Files/Projects/Git/XMCLib/inc\xmc4_scu.h **** } XMC_SCU_HIB_IO_t;
 797:C:/Files/Projects/Git/XMCLib/inc\xmc4_scu.h **** 
 798:C:/Files/Projects/Git/XMCLib/inc\xmc4_scu.h **** /**
 799:C:/Files/Projects/Git/XMCLib/inc\xmc4_scu.h ****  * HIB_IOx pin I/O control
 800:C:/Files/Projects/Git/XMCLib/inc\xmc4_scu.h ****  */
 801:C:/Files/Projects/Git/XMCLib/inc\xmc4_scu.h **** typedef enum XMC_SCU_HIB_PIN_MODE
 802:C:/Files/Projects/Git/XMCLib/inc\xmc4_scu.h **** {
 803:C:/Files/Projects/Git/XMCLib/inc\xmc4_scu.h ****   XMC_SCU_HIB_PIN_MODE_INPUT_PULL_NONE = 0 << SCU_HIBERNATE_HDCR_HIBIO0SEL_Pos, /**< Direct input, 
 804:C:/Files/Projects/Git/XMCLib/inc\xmc4_scu.h ****   XMC_SCU_HIB_PIN_MODE_INPUT_PULL_DOWN = 1 << SCU_HIBERNATE_HDCR_HIBIO0SEL_Pos, /**< Direct input, 
 805:C:/Files/Projects/Git/XMCLib/inc\xmc4_scu.h ****   XMC_SCU_HIB_PIN_MODE_INPUT_PULL_UP = 2 << SCU_HIBERNATE_HDCR_HIBIO0SEL_Pos, /**< Direct input, in
 806:C:/Files/Projects/Git/XMCLib/inc\xmc4_scu.h ****   XMC_SCU_HIB_PIN_MODE_OUTPUT_PUSH_PULL_HIBCTRL = 8 << SCU_HIBERNATE_HDCR_HIBIO0SEL_Pos, /**< Push-
 807:C:/Files/Projects/Git/XMCLib/inc\xmc4_scu.h ****   XMC_SCU_HIB_PIN_MODE_OUTPUT_PUSH_PULL_WDTSRV = 9 << SCU_HIBERNATE_HDCR_HIBIO0SEL_Pos, /**< Push-p
 808:C:/Files/Projects/Git/XMCLib/inc\xmc4_scu.h ****   XMC_SCU_HIB_PIN_MODE_OUTPUT_PUSH_PULL_GPIO = 10 << SCU_HIBERNATE_HDCR_HIBIO0SEL_Pos, /**< Push-pu
 809:C:/Files/Projects/Git/XMCLib/inc\xmc4_scu.h ****   XMC_SCU_HIB_PIN_MODE_OUTPUT_OPEN_DRAIN_HIBCTRL = 12 << SCU_HIBERNATE_HDCR_HIBIO0SEL_Pos, /**< Ope
 810:C:/Files/Projects/Git/XMCLib/inc\xmc4_scu.h ****   XMC_SCU_HIB_PIN_MODE_OUTPUT_OPEN_DRAIN_WDTSRV = 13 << SCU_HIBERNATE_HDCR_HIBIO0SEL_Pos, /**< Open
 811:C:/Files/Projects/Git/XMCLib/inc\xmc4_scu.h ****   XMC_SCU_HIB_PIN_MODE_OUTPUT_OPEN_DRAIN_GPIO = 14 << SCU_HIBERNATE_HDCR_HIBIO0SEL_Pos, /**< Open d
 812:C:/Files/Projects/Git/XMCLib/inc\xmc4_scu.h **** } XMC_SCU_HIB_PIN_MODE_t;
 813:C:/Files/Projects/Git/XMCLib/inc\xmc4_scu.h **** 
 814:C:/Files/Projects/Git/XMCLib/inc\xmc4_scu.h **** /**
 815:C:/Files/Projects/Git/XMCLib/inc\xmc4_scu.h ****  * Selects the output polarity of the HIB_IOx
 816:C:/Files/Projects/Git/XMCLib/inc\xmc4_scu.h ****  */
 817:C:/Files/Projects/Git/XMCLib/inc\xmc4_scu.h **** typedef enum XMC_SCU_HIB_IO_OUTPUT_LEVEL
 818:C:/Files/Projects/Git/XMCLib/inc\xmc4_scu.h **** {
 819:C:/Files/Projects/Git/XMCLib/inc\xmc4_scu.h ****   XMC_SCU_HIB_IO_OUTPUT_LEVEL_LOW = 0 << SCU_HIBERNATE_HDCR_HIBIO0POL_Pos, /**< Direct value */
 820:C:/Files/Projects/Git/XMCLib/inc\xmc4_scu.h ****   XMC_SCU_HIB_IO_OUTPUT_LEVEL_HIGH = 1 << SCU_HIBERNATE_HDCR_HIBIO0POL_Pos /**< Inverted value */
 821:C:/Files/Projects/Git/XMCLib/inc\xmc4_scu.h **** } XMC_SCU_HIB_IO_OUTPUT_LEVEL_t;
 822:C:/Files/Projects/Git/XMCLib/inc\xmc4_scu.h **** 
 823:C:/Files/Projects/Git/XMCLib/inc\xmc4_scu.h **** /**
 824:C:/Files/Projects/Git/XMCLib/inc\xmc4_scu.h ****  * Selects hibernate mode
 825:C:/Files/Projects/Git/XMCLib/inc\xmc4_scu.h ****  */
 826:C:/Files/Projects/Git/XMCLib/inc\xmc4_scu.h **** typedef enum XMC_SCU_HIB_HIBERNATE_MODE
 827:C:/Files/Projects/Git/XMCLib/inc\xmc4_scu.h **** {
 828:C:/Files/Projects/Git/XMCLib/inc\xmc4_scu.h ****   XMC_SCU_HIB_HIBERNATE_MODE_EXTERNAL = 0, /**< Request external hibernate mode */
 829:C:/Files/Projects/Git/XMCLib/inc\xmc4_scu.h **** #if (defined(DOXYGEN) || (UC_SERIES == XMC44) || (UC_SERIES == XMC42) || (UC_SERIES == XMC41))
 830:C:/Files/Projects/Git/XMCLib/inc\xmc4_scu.h ****   XMC_SCU_HIB_HIBERNATE_MODE_INTERNAL = 1, /**< Request internal hibernate mode. @note Only availab
 831:C:/Files/Projects/Git/XMCLib/inc\xmc4_scu.h **** #endif
 832:C:/Files/Projects/Git/XMCLib/inc\xmc4_scu.h **** } XMC_SCU_HIB_HIBERNATE_MODE_t;
 833:C:/Files/Projects/Git/XMCLib/inc\xmc4_scu.h **** 
 834:C:/Files/Projects/Git/XMCLib/inc\xmc4_scu.h **** /**
 835:C:/Files/Projects/Git/XMCLib/inc\xmc4_scu.h ****  * Selects input signal HIB_SR0 of ERU0
 836:C:/Files/Projects/Git/XMCLib/inc\xmc4_scu.h ****  */
 837:C:/Files/Projects/Git/XMCLib/inc\xmc4_scu.h **** typedef enum XMC_SCU_HIB_SR0_INPUT
 838:C:/Files/Projects/Git/XMCLib/inc\xmc4_scu.h **** {
 839:C:/Files/Projects/Git/XMCLib/inc\xmc4_scu.h ****   XMC_SCU_HIB_SR0_INPUT_HIB_IO_0 = SCU_HIBERNATE_HDCR_GPI0SEL_Msk, /**< Set HIB_SR0 to HIB_IO_0 dig
 840:C:/Files/Projects/Git/XMCLib/inc\xmc4_scu.h **** #if (defined(DOXYGEN) || (UC_PACKAGE == BGA196) || (UC_PACKAGE == BGA144) || (UC_PACKAGE == LQFP144
 841:C:/Files/Projects/Git/XMCLib/inc\xmc4_scu.h ****   XMC_SCU_HIB_SR0_INPUT_HIB_IO_1 = 0, /**< Set HIB_SR0 to HIB_IO_1 digital input. @note Only availa
 842:C:/Files/Projects/Git/XMCLib/inc\xmc4_scu.h **** #endif  
 843:C:/Files/Projects/Git/XMCLib/inc\xmc4_scu.h **** #if (defined(DOXYGEN) || (UC_SERIES == XMC44) || (UC_SERIES == XMC42) || (UC_SERIES == XMC41))
 844:C:/Files/Projects/Git/XMCLib/inc\xmc4_scu.h ****   XMC_SCU_HIB_SR0_INPUT_ACMP0 = SCU_HIBERNATE_HDCR_ADIG0SEL_Msk,  /**< Set HIB_SR0 to LPAC CMP0. @n
 845:C:/Files/Projects/Git/XMCLib/inc\xmc4_scu.h **** #endif
 846:C:/Files/Projects/Git/XMCLib/inc\xmc4_scu.h **** } XMC_SCU_HIB_SR0_INPUT_t;
 847:C:/Files/Projects/Git/XMCLib/inc\xmc4_scu.h **** 
 848:C:/Files/Projects/Git/XMCLib/inc\xmc4_scu.h **** #if (defined(DOXYGEN) || (UC_SERIES == XMC44) || (UC_SERIES == XMC42) || (UC_SERIES == XMC41))
 849:C:/Files/Projects/Git/XMCLib/inc\xmc4_scu.h **** 
 850:C:/Files/Projects/Git/XMCLib/inc\xmc4_scu.h **** #if ((UC_SERIES == XMC44) && (UC_PACKAGE == LQFP100))
 851:C:/Files/Projects/Git/XMCLib/inc\xmc4_scu.h **** /**
 852:C:/Files/Projects/Git/XMCLib/inc\xmc4_scu.h ****  * Selects input signal HIB_SR1 of ERU0. @note Only available in XMC44 in certain packages.
 853:C:/Files/Projects/Git/XMCLib/inc\xmc4_scu.h ****  */
 854:C:/Files/Projects/Git/XMCLib/inc\xmc4_scu.h **** typedef enum XMC_SCU_HIB_SR1_INPUT
 855:C:/Files/Projects/Git/XMCLib/inc\xmc4_scu.h **** {
 856:C:/Files/Projects/Git/XMCLib/inc\xmc4_scu.h ****   XMC_SCU_HIB_SR1_INPUT_HIB_IO_0 = SCU_HIBERNATE_HDCR_GPI1SEL_Msk, /**< Set HIB_SR1 to HIB_IO_0 dig
 857:C:/Files/Projects/Git/XMCLib/inc\xmc4_scu.h ****   XMC_SCU_HIB_SR1_INPUT_HIB_IO_1 = 0, /**< Set HIB_SR1 to HIB_IO_1 digital input.  */
 858:C:/Files/Projects/Git/XMCLib/inc\xmc4_scu.h ****   XMC_SCU_HIB_SR1_INPUT_ACMP1 = SCU_HIBERNATE_HDCR_ADIG1SEL_Msk,  /**< Set HIB_SR0 to LPAC CMP1. */
 859:C:/Files/Projects/Git/XMCLib/inc\xmc4_scu.h ****   XMC_SCU_HIB_SR1_INPUT_XTAL_GPI = SCU_HIBERNATE_HDCR_XTALGPI1SEL_Msk,  /**< Set HIB_SR0 to RTC_XTA
 860:C:/Files/Projects/Git/XMCLib/inc\xmc4_scu.h **** } XMC_SCU_HIB_SR1_INPUT_t;
 861:C:/Files/Projects/Git/XMCLib/inc\xmc4_scu.h **** #endif
 862:C:/Files/Projects/Git/XMCLib/inc\xmc4_scu.h **** 
 863:C:/Files/Projects/Git/XMCLib/inc\xmc4_scu.h **** /**
 864:C:/Files/Projects/Git/XMCLib/inc\xmc4_scu.h ****  * HIB LPAC input selection
 865:C:/Files/Projects/Git/XMCLib/inc\xmc4_scu.h ****  */
 866:C:/Files/Projects/Git/XMCLib/inc\xmc4_scu.h **** typedef enum XMC_SCU_HIB_LPAC_INPUT
 867:C:/Files/Projects/Git/XMCLib/inc\xmc4_scu.h **** {
 868:C:/Files/Projects/Git/XMCLib/inc\xmc4_scu.h ****   XMC_SCU_HIB_LPAC_INPUT_DISABLED = 0 << SCU_HIBERNATE_LPACCONF_CMPEN_Pos, /**< Comparator permanen
 869:C:/Files/Projects/Git/XMCLib/inc\xmc4_scu.h ****   XMC_SCU_HIB_LPAC_INPUT_VBAT = 0x1 << SCU_HIBERNATE_LPACCONF_CMPEN_Pos, /**< Comparator activated 
 870:C:/Files/Projects/Git/XMCLib/inc\xmc4_scu.h ****   XMC_SCU_HIB_LPAC_INPUT_HIB_IO_0 = 0x2 << SCU_HIBERNATE_LPACCONF_CMPEN_Pos, /**< Comparator activa
 871:C:/Files/Projects/Git/XMCLib/inc\xmc4_scu.h **** #if (defined(DOXYGEN) || ((UC_SERIES == XMC44) && (UC_PACKAGE == LQFP100)))      
 872:C:/Files/Projects/Git/XMCLib/inc\xmc4_scu.h ****   XMC_SCU_HIB_LPAC_INPUT_HIB_IO_1 = 0x4 << SCU_HIBERNATE_LPACCONF_CMPEN_Pos, /**< Comparator activa
 873:C:/Files/Projects/Git/XMCLib/inc\xmc4_scu.h **** #endif  
 874:C:/Files/Projects/Git/XMCLib/inc\xmc4_scu.h **** } XMC_SCU_HIB_LPAC_INPUT_t;
 875:C:/Files/Projects/Git/XMCLib/inc\xmc4_scu.h **** 
 876:C:/Files/Projects/Git/XMCLib/inc\xmc4_scu.h **** /**
 877:C:/Files/Projects/Git/XMCLib/inc\xmc4_scu.h ****  * HIB LPAC start trigger selection for selected inputs
 878:C:/Files/Projects/Git/XMCLib/inc\xmc4_scu.h ****  */
 879:C:/Files/Projects/Git/XMCLib/inc\xmc4_scu.h **** typedef enum XMC_SCU_HIB_LPAC_TRIGGER
 880:C:/Files/Projects/Git/XMCLib/inc\xmc4_scu.h **** {
 881:C:/Files/Projects/Git/XMCLib/inc\xmc4_scu.h ****   XMC_SCU_HIB_LPAC_TRIGGER_SUBSECOND_INTERVAL_COUNTER = 0 << SCU_HIBERNATE_LPACCONF_TRIGSEL_Pos, /*
 882:C:/Files/Projects/Git/XMCLib/inc\xmc4_scu.h ****   XMC_SCU_HIB_LPAC_TRIGGER_RTC_ALARM_EVENT = 0x1 << SCU_HIBERNATE_LPACCONF_TRIGSEL_Pos, /**< RTC al
 883:C:/Files/Projects/Git/XMCLib/inc\xmc4_scu.h ****   XMC_SCU_HIB_LPAC_TRIGGER_RTC_PERIODIC_EVENT = 0x2 << SCU_HIBERNATE_LPACCONF_TRIGSEL_Pos, /**< RTC
 884:C:/Files/Projects/Git/XMCLib/inc\xmc4_scu.h ****   XMC_SCU_HIB_LPAC_TRIGGER_ON_WAKEUP_POSITIVE_EDGE_EVENT = 0x3 << SCU_HIBERNATE_LPACCONF_TRIGSEL_Po
 885:C:/Files/Projects/Git/XMCLib/inc\xmc4_scu.h ****   XMC_SCU_HIB_LPAC_TRIGGER_ON_WAKEUP_NEGATIVE_EDGE_EVENT = 0x5 << SCU_HIBERNATE_LPACCONF_TRIGSEL_Po
 886:C:/Files/Projects/Git/XMCLib/inc\xmc4_scu.h ****   XMC_SCU_HIB_LPAC_TRIGGER_CONTINOUS = 0x6 << SCU_HIBERNATE_LPACCONF_TRIGSEL_Pos, /**< Continuous m
 887:C:/Files/Projects/Git/XMCLib/inc\xmc4_scu.h ****   XMC_SCU_HIB_LPAC_TRIGGER_SINGLE_SHOT = 0x7 << SCU_HIBERNATE_LPACCONF_TRIGSEL_Pos, /**< Single sho
 888:C:/Files/Projects/Git/XMCLib/inc\xmc4_scu.h **** } XMC_SCU_HIB_LPAC_TRIGGER_t;
 889:C:/Files/Projects/Git/XMCLib/inc\xmc4_scu.h **** 
 890:C:/Files/Projects/Git/XMCLib/inc\xmc4_scu.h **** /**
 891:C:/Files/Projects/Git/XMCLib/inc\xmc4_scu.h ****  * HIB LPAC status
 892:C:/Files/Projects/Git/XMCLib/inc\xmc4_scu.h ****  */
 893:C:/Files/Projects/Git/XMCLib/inc\xmc4_scu.h **** typedef enum XMC_SCU_HIB_LPAC_STATUS
 894:C:/Files/Projects/Git/XMCLib/inc\xmc4_scu.h **** {
 895:C:/Files/Projects/Git/XMCLib/inc\xmc4_scu.h ****   XMC_SCU_HIB_LPAC_STATUS_VBAT_COMPARE_DONE = SCU_HIBERNATE_LPACST_VBATSCMP_Msk, /**< VBAT compare 
 896:C:/Files/Projects/Git/XMCLib/inc\xmc4_scu.h ****   XMC_SCU_HIB_LPAC_STATUS_HIB_IO_0_COMPARE_DONE = SCU_HIBERNATE_LPACST_AHIBIO0SCMP_Msk, /**< HBI_IO
 897:C:/Files/Projects/Git/XMCLib/inc\xmc4_scu.h **** #if (defined(DOXYGEN) || ((UC_SERIES == XMC44) && (UC_PACKAGE == LQFP100)))        
 898:C:/Files/Projects/Git/XMCLib/inc\xmc4_scu.h ****   XMC_SCU_HIB_LPAC_STATUS_HIB_IO_1_COMPARE_DONE = SCU_HIBERNATE_LPACST_AHIBIO1SCMP_Msk, /**< HBI_IO
 899:C:/Files/Projects/Git/XMCLib/inc\xmc4_scu.h **** #endif  
 900:C:/Files/Projects/Git/XMCLib/inc\xmc4_scu.h ****   XMC_SCU_HIB_LPAC_STATUS_VBAT_ABOVE_THRESHOLD = SCU_HIBERNATE_LPACST_VBATVAL_Msk, /**< VBAT compar
 901:C:/Files/Projects/Git/XMCLib/inc\xmc4_scu.h ****   XMC_SCU_HIB_LPAC_STATUS_HIB_IO_0_ABOVE_THRESHOLD = SCU_HIBERNATE_LPACST_AHIBIO0VAL_Msk, /**< HBI_
 902:C:/Files/Projects/Git/XMCLib/inc\xmc4_scu.h **** #if (defined(DOXYGEN) || ((UC_SERIES == XMC44) && (UC_PACKAGE == LQFP100)))        
 903:C:/Files/Projects/Git/XMCLib/inc\xmc4_scu.h ****   XMC_SCU_HIB_LPAC_STATUS_HIB_IO_1_ABOVE_THRESHOLD = SCU_HIBERNATE_LPACST_AHIBIO1VAL_Msk, /**< HBI_
 904:C:/Files/Projects/Git/XMCLib/inc\xmc4_scu.h **** #endif  
 905:C:/Files/Projects/Git/XMCLib/inc\xmc4_scu.h **** } XMC_SCU_HIB_LPAC_STATUS_t;
 906:C:/Files/Projects/Git/XMCLib/inc\xmc4_scu.h **** 
 907:C:/Files/Projects/Git/XMCLib/inc\xmc4_scu.h **** #endif /* (defined(DOXYGEN) || (UC_SERIES == XMC44) || (UC_SERIES == XMC42) || (UC_SERIES == XMC41)
 908:C:/Files/Projects/Git/XMCLib/inc\xmc4_scu.h **** 
 909:C:/Files/Projects/Git/XMCLib/inc\xmc4_scu.h **** /**************************************************************************************************
 910:C:/Files/Projects/Git/XMCLib/inc\xmc4_scu.h ****  * DATA STRUCTURES
 911:C:/Files/Projects/Git/XMCLib/inc\xmc4_scu.h ****  **************************************************************************************************
 912:C:/Files/Projects/Git/XMCLib/inc\xmc4_scu.h **** 
 913:C:/Files/Projects/Git/XMCLib/inc\xmc4_scu.h **** /**
 914:C:/Files/Projects/Git/XMCLib/inc\xmc4_scu.h ****  *  Defines a data structure for initializing the PLL functional block.
 915:C:/Files/Projects/Git/XMCLib/inc\xmc4_scu.h ****  *  Structure holds divider values for N-DIV, P-DIV, K1-DIV, K2-DIV in order to generate desired 
 916:C:/Files/Projects/Git/XMCLib/inc\xmc4_scu.h ****  *  frequency using VCO. It holds the PLL mode of operation either normal or prescaler (VCO bypasse
 917:C:/Files/Projects/Git/XMCLib/inc\xmc4_scu.h ****  *  Use type \a XMC_SCU_CLOCK_PLL_CONFIG_t for accessing these structure parameters.
 918:C:/Files/Projects/Git/XMCLib/inc\xmc4_scu.h ****  */
 919:C:/Files/Projects/Git/XMCLib/inc\xmc4_scu.h **** typedef struct XMC_SCU_CLOCK_SYSPLL_CONFIG
 920:C:/Files/Projects/Git/XMCLib/inc\xmc4_scu.h **** {
 921:C:/Files/Projects/Git/XMCLib/inc\xmc4_scu.h ****   uint8_t n_div;                       /**<  PLL N-Divider value. */
 922:C:/Files/Projects/Git/XMCLib/inc\xmc4_scu.h ****   uint8_t p_div;                       /**<  PLL P-Divider value. */
 923:C:/Files/Projects/Git/XMCLib/inc\xmc4_scu.h ****   uint8_t k_div;                       /**<  K1-Divider(Prescalar mode) or K2-Divider (Normal mode)
 924:C:/Files/Projects/Git/XMCLib/inc\xmc4_scu.h ****   XMC_SCU_CLOCK_SYSPLL_MODE_t mode;    /**<  PLL mode of operation. */
 925:C:/Files/Projects/Git/XMCLib/inc\xmc4_scu.h ****   XMC_SCU_CLOCK_SYSPLLCLKSRC_t clksrc; /**<  PLL divider input frequency. */
 926:C:/Files/Projects/Git/XMCLib/inc\xmc4_scu.h **** } XMC_SCU_CLOCK_SYSPLL_CONFIG_t;
 927:C:/Files/Projects/Git/XMCLib/inc\xmc4_scu.h **** 
 928:C:/Files/Projects/Git/XMCLib/inc\xmc4_scu.h **** /**
 929:C:/Files/Projects/Git/XMCLib/inc\xmc4_scu.h ****  *  Defines a data structure used for initializing the clock functional block.
 930:C:/Files/Projects/Git/XMCLib/inc\xmc4_scu.h ****  *  Clock functional block configures clock source needed for various peripheral and its divider va
 931:C:/Files/Projects/Git/XMCLib/inc\xmc4_scu.h ****  *  Use type \a XMC_SCU_CLOCK_CONFIG_t for accessing these structure parameters.
 932:C:/Files/Projects/Git/XMCLib/inc\xmc4_scu.h ****  */
 933:C:/Files/Projects/Git/XMCLib/inc\xmc4_scu.h **** typedef struct XMC_SCU_CLOCK_CONFIG
 934:C:/Files/Projects/Git/XMCLib/inc\xmc4_scu.h **** {
 935:C:/Files/Projects/Git/XMCLib/inc\xmc4_scu.h ****   XMC_SCU_CLOCK_SYSPLL_CONFIG_t         syspll_config;      /**< PLL configuration */
 936:C:/Files/Projects/Git/XMCLib/inc\xmc4_scu.h ****   bool                                  enable_oschp;       /**< Enable external high precision osc
 937:C:/Files/Projects/Git/XMCLib/inc\xmc4_scu.h ****                                                                  Should be enabled when fOHP has to
 938:C:/Files/Projects/Git/XMCLib/inc\xmc4_scu.h ****   bool                                  enable_osculp;      /**< Enable external ultra low power os
 939:C:/Files/Projects/Git/XMCLib/inc\xmc4_scu.h ****                                                                  Should be enabled when fULP has to
 940:C:/Files/Projects/Git/XMCLib/inc\xmc4_scu.h ****   XMC_SCU_CLOCK_FOFI_CALIBRATION_MODE_t calibration_mode;   /**< Backup clock trimming mode. */
 941:C:/Files/Projects/Git/XMCLib/inc\xmc4_scu.h ****   XMC_SCU_HIB_STDBYCLKSRC_t             fstdby_clksrc;      /**< Standby clock source. */
 942:C:/Files/Projects/Git/XMCLib/inc\xmc4_scu.h ****   XMC_SCU_CLOCK_SYSCLKSRC_t             fsys_clksrc;        /**< Choice of system clock. */
 943:C:/Files/Projects/Git/XMCLib/inc\xmc4_scu.h ****   uint8_t                               fsys_clkdiv;        /**< Ratio of fPLL to fSYS. */
 944:C:/Files/Projects/Git/XMCLib/inc\xmc4_scu.h ****   uint8_t                               fcpu_clkdiv;        /**< Ratio of fSys to fCPU. */
 945:C:/Files/Projects/Git/XMCLib/inc\xmc4_scu.h ****   uint8_t                               fccu_clkdiv;        /**< Ratio of fSys to fCCU. */
 946:C:/Files/Projects/Git/XMCLib/inc\xmc4_scu.h ****   uint8_t                               fperipheral_clkdiv; /**< Ratio of fSYS to fPERI. */
 947:C:/Files/Projects/Git/XMCLib/inc\xmc4_scu.h **** } const XMC_SCU_CLOCK_CONFIG_t;
 948:C:/Files/Projects/Git/XMCLib/inc\xmc4_scu.h **** 
 949:C:/Files/Projects/Git/XMCLib/inc\xmc4_scu.h **** /**
 950:C:/Files/Projects/Git/XMCLib/inc\xmc4_scu.h ****  * Low power modes
 951:C:/Files/Projects/Git/XMCLib/inc\xmc4_scu.h ****  */
 952:C:/Files/Projects/Git/XMCLib/inc\xmc4_scu.h **** typedef enum XMC_SCU_POWER_MODE_t
 953:C:/Files/Projects/Git/XMCLib/inc\xmc4_scu.h **** {
 954:C:/Files/Projects/Git/XMCLib/inc\xmc4_scu.h ****   XMC_SCU_POWER_MODE_SLEEP = 0, /**< sleep mode stops the processor clock */
 955:C:/Files/Projects/Git/XMCLib/inc\xmc4_scu.h ****   XMC_SCU_POWER_MODE_DEEPSLEEP = SCB_SCR_SLEEPDEEP_Msk /**< deep sleep mode stops the system clock 
 956:C:/Files/Projects/Git/XMCLib/inc\xmc4_scu.h **** } XMC_SCU_POWER_MODE_t;
 957:C:/Files/Projects/Git/XMCLib/inc\xmc4_scu.h **** 
 958:C:/Files/Projects/Git/XMCLib/inc\xmc4_scu.h **** /**************************************************************************************************
 959:C:/Files/Projects/Git/XMCLib/inc\xmc4_scu.h ****  * API PROTOTYPES
 960:C:/Files/Projects/Git/XMCLib/inc\xmc4_scu.h ****  **************************************************************************************************
 961:C:/Files/Projects/Git/XMCLib/inc\xmc4_scu.h **** 
 962:C:/Files/Projects/Git/XMCLib/inc\xmc4_scu.h **** #ifdef __cplusplus
 963:C:/Files/Projects/Git/XMCLib/inc\xmc4_scu.h **** extern "C" {
 964:C:/Files/Projects/Git/XMCLib/inc\xmc4_scu.h **** #endif
 965:C:/Files/Projects/Git/XMCLib/inc\xmc4_scu.h **** 
 966:C:/Files/Projects/Git/XMCLib/inc\xmc4_scu.h **** /**
 967:C:/Files/Projects/Git/XMCLib/inc\xmc4_scu.h ****  * 
 968:C:/Files/Projects/Git/XMCLib/inc\xmc4_scu.h ****  * @param group   ADC Group to which the channel being monitored belongs to.\n
 969:C:/Files/Projects/Git/XMCLib/inc\xmc4_scu.h ****  *                 \b Range: 0 or 1.
 970:C:/Files/Projects/Git/XMCLib/inc\xmc4_scu.h ****  * @param channel  The channel whose voltage range has to be monitored.\n
 971:C:/Files/Projects/Git/XMCLib/inc\xmc4_scu.h ****  *                 \b Range: 6 or 7. Value identifies the channel in the selected ADC group.
 972:C:/Files/Projects/Git/XMCLib/inc\xmc4_scu.h ****  *
 973:C:/Files/Projects/Git/XMCLib/inc\xmc4_scu.h ****  * @return None
 974:C:/Files/Projects/Git/XMCLib/inc\xmc4_scu.h ****  *
 975:C:/Files/Projects/Git/XMCLib/inc\xmc4_scu.h ****  * \par<b>Description</b><br>
 976:C:/Files/Projects/Git/XMCLib/inc\xmc4_scu.h ****  * Enables out of range comparator for the selected ADC group and channel. \n\n
 977:C:/Files/Projects/Git/XMCLib/inc\xmc4_scu.h ****  * The ADC channel input is compared by Out of Range Comparator (ORC) for overvoltage monitoring
 978:C:/Files/Projects/Git/XMCLib/inc\xmc4_scu.h ****  * or for detection of out of range analog inputs. ORC must be turned on explicitly
 979:C:/Files/Projects/Git/XMCLib/inc\xmc4_scu.h ****  * to leverage the auditing feature. ORC is enabled by setting the enable bit in the GORCEN registe
 980:C:/Files/Projects/Git/XMCLib/inc\xmc4_scu.h ****  * \par<b>Related APIs:</b><BR>
 981:C:/Files/Projects/Git/XMCLib/inc\xmc4_scu.h ****  * XMC_SCU_DisableOutOfRangeComparator()\n\n\n
 982:C:/Files/Projects/Git/XMCLib/inc\xmc4_scu.h ****  */
 983:C:/Files/Projects/Git/XMCLib/inc\xmc4_scu.h **** void XMC_SCU_EnableOutOfRangeComparator(const uint32_t group, const uint32_t channel);
 984:C:/Files/Projects/Git/XMCLib/inc\xmc4_scu.h **** 
 985:C:/Files/Projects/Git/XMCLib/inc\xmc4_scu.h **** /**
 986:C:/Files/Projects/Git/XMCLib/inc\xmc4_scu.h ****  * 
 987:C:/Files/Projects/Git/XMCLib/inc\xmc4_scu.h ****  * @param group   ADC Group to which the channel being monitored belongs to.\n
 988:C:/Files/Projects/Git/XMCLib/inc\xmc4_scu.h ****  *                 \b Range: 0 or 1.
 989:C:/Files/Projects/Git/XMCLib/inc\xmc4_scu.h ****  * @param channel  The channel whose voltage range has to be monitored.\n
 990:C:/Files/Projects/Git/XMCLib/inc\xmc4_scu.h ****  *                 \b Range: 6 or 7. Value identifies the channel in the selected ADC group.
 991:C:/Files/Projects/Git/XMCLib/inc\xmc4_scu.h ****  *
 992:C:/Files/Projects/Git/XMCLib/inc\xmc4_scu.h ****  * @return None
 993:C:/Files/Projects/Git/XMCLib/inc\xmc4_scu.h ****  *
 994:C:/Files/Projects/Git/XMCLib/inc\xmc4_scu.h ****  * \par<b>Description</b><br>
 995:C:/Files/Projects/Git/XMCLib/inc\xmc4_scu.h ****  * Disables the out of range comparator for the selected ADC group and the channel. \n\n
 996:C:/Files/Projects/Git/XMCLib/inc\xmc4_scu.h ****  * Out of range comparator is disabled by clearing the enable bit in the GORCEN register.
 997:C:/Files/Projects/Git/XMCLib/inc\xmc4_scu.h ****  * \par<b>Related APIs:</b><BR>
 998:C:/Files/Projects/Git/XMCLib/inc\xmc4_scu.h ****  * XMC_SCU_EnableOutOfRangeComparator()\n\n\n
 999:C:/Files/Projects/Git/XMCLib/inc\xmc4_scu.h ****  */
1000:C:/Files/Projects/Git/XMCLib/inc\xmc4_scu.h **** void XMC_SCU_DisableOutOfRangeComparator(const uint32_t group, const uint32_t channel);
1001:C:/Files/Projects/Git/XMCLib/inc\xmc4_scu.h **** 
1002:C:/Files/Projects/Git/XMCLib/inc\xmc4_scu.h **** /**
1003:C:/Files/Projects/Git/XMCLib/inc\xmc4_scu.h ****  * @return None
1004:C:/Files/Projects/Git/XMCLib/inc\xmc4_scu.h ****  *
1005:C:/Files/Projects/Git/XMCLib/inc\xmc4_scu.h ****  * \par<b>Description</b><br>
1006:C:/Files/Projects/Git/XMCLib/inc\xmc4_scu.h ****  * Enables die temperature measurement by powering the DTS module.\n\n
1007:C:/Files/Projects/Git/XMCLib/inc\xmc4_scu.h ****  * Die temperature sensor is enabled by setting the PWD bit of DTSCON register.
1008:C:/Files/Projects/Git/XMCLib/inc\xmc4_scu.h ****  * \par<b>Related APIs:</b><BR>
1009:C:/Files/Projects/Git/XMCLib/inc\xmc4_scu.h ****  * XMC_SCU_DisableTemperatureSensor(), XMC_SCU_IsTemperatureSensorEnabled(), XMC_SCU_CalibrateTempe
1010:C:/Files/Projects/Git/XMCLib/inc\xmc4_scu.h ****  * XMC_SCU_StartTemperatureMeasurement(), XMC_SCU_GetTemperatureMeasurement() \n\n\n
1011:C:/Files/Projects/Git/XMCLib/inc\xmc4_scu.h ****  */
1012:C:/Files/Projects/Git/XMCLib/inc\xmc4_scu.h **** void XMC_SCU_EnableTemperatureSensor(void);
1013:C:/Files/Projects/Git/XMCLib/inc\xmc4_scu.h **** 
1014:C:/Files/Projects/Git/XMCLib/inc\xmc4_scu.h **** /**
1015:C:/Files/Projects/Git/XMCLib/inc\xmc4_scu.h ****  * @return None
1016:C:/Files/Projects/Git/XMCLib/inc\xmc4_scu.h ****  *
1017:C:/Files/Projects/Git/XMCLib/inc\xmc4_scu.h ****  * \par<b>Description</b><br>
1018:C:/Files/Projects/Git/XMCLib/inc\xmc4_scu.h ****  * Disables die temperature measurement by powering the DTS module off.\n\n
1019:C:/Files/Projects/Git/XMCLib/inc\xmc4_scu.h ****  * Die temperature sensor is disabled by clearing the PWD bit of DTSCON register.
1020:C:/Files/Projects/Git/XMCLib/inc\xmc4_scu.h ****  * \par<b>Related APIs:</b><BR>
1021:C:/Files/Projects/Git/XMCLib/inc\xmc4_scu.h ****  * XMC_SCU_EnableTemperatureSensor(), XMC_SCU_IsTemperatureSensorEnabled(), XMC_SCU_CalibrateTemper
1022:C:/Files/Projects/Git/XMCLib/inc\xmc4_scu.h ****  * XMC_SCU_StartTemperatureMeasurement(), XMC_SCU_GetTemperatureMeasurement() \n\n\n
1023:C:/Files/Projects/Git/XMCLib/inc\xmc4_scu.h ****  */
1024:C:/Files/Projects/Git/XMCLib/inc\xmc4_scu.h **** void XMC_SCU_DisableTemperatureSensor(void);
1025:C:/Files/Projects/Git/XMCLib/inc\xmc4_scu.h **** 
1026:C:/Files/Projects/Git/XMCLib/inc\xmc4_scu.h **** /**
1027:C:/Files/Projects/Git/XMCLib/inc\xmc4_scu.h ****  * @return Status of die temperature sensor. \n
1028:C:/Files/Projects/Git/XMCLib/inc\xmc4_scu.h ****  *          \b Range: true - if temperature sensor is enabled.\n
1029:C:/Files/Projects/Git/XMCLib/inc\xmc4_scu.h ****  *                    false - if temperature sensor is disabled.
1030:C:/Files/Projects/Git/XMCLib/inc\xmc4_scu.h ****  *
1031:C:/Files/Projects/Git/XMCLib/inc\xmc4_scu.h ****  * \par<b>Description</b><br>
1032:C:/Files/Projects/Git/XMCLib/inc\xmc4_scu.h ****  * Provides the die temperature sensor power status.\n\n
1033:C:/Files/Projects/Git/XMCLib/inc\xmc4_scu.h ****  * The status is obtained by reading the PWD bit of DTSCON register.
1034:C:/Files/Projects/Git/XMCLib/inc\xmc4_scu.h ****  * \par<b>Related APIs:</b><BR>
1035:C:/Files/Projects/Git/XMCLib/inc\xmc4_scu.h ****  * XMC_SCU_EnableTemperatureSensor(), XMC_SCU_CalibrateTemperatureSensor(),
1036:C:/Files/Projects/Git/XMCLib/inc\xmc4_scu.h ****  * XMC_SCU_StartTemperatureMeasurement(), XMC_SCU_GetTemperatureMeasurement() \n\n\n
1037:C:/Files/Projects/Git/XMCLib/inc\xmc4_scu.h ****  */
1038:C:/Files/Projects/Git/XMCLib/inc\xmc4_scu.h **** bool XMC_SCU_IsTemperatureSensorEnabled(void);
1039:C:/Files/Projects/Git/XMCLib/inc\xmc4_scu.h **** 
1040:C:/Files/Projects/Git/XMCLib/inc\xmc4_scu.h **** /**
1041:C:/Files/Projects/Git/XMCLib/inc\xmc4_scu.h ****  *
1042:C:/Files/Projects/Git/XMCLib/inc\xmc4_scu.h ****  * @param offset  Offset value for calibrating the DTS result.\n
1043:C:/Files/Projects/Git/XMCLib/inc\xmc4_scu.h ****  *                \b Range: 0 to 127.
1044:C:/Files/Projects/Git/XMCLib/inc\xmc4_scu.h ****  * @param gain    Gain value for calibrating the DTS conversion result.\n
1045:C:/Files/Projects/Git/XMCLib/inc\xmc4_scu.h ****  *                \b Range: 0 to 63.
1046:C:/Files/Projects/Git/XMCLib/inc\xmc4_scu.h ****  *
1047:C:/Files/Projects/Git/XMCLib/inc\xmc4_scu.h ****  * @return None
1048:C:/Files/Projects/Git/XMCLib/inc\xmc4_scu.h ****  *
1049:C:/Files/Projects/Git/XMCLib/inc\xmc4_scu.h ****  * \par<b>Description</b><br>
1050:C:/Files/Projects/Git/XMCLib/inc\xmc4_scu.h ****  * Calibrates the measurement of temperature by configuring the values of offset and gain of \a DTS
1051:C:/Files/Projects/Git/XMCLib/inc\xmc4_scu.h ****  * Allows to improve the accuracy of the temperature measurement with the adjustment of \a OFFSET a
1052:C:/Files/Projects/Git/XMCLib/inc\xmc4_scu.h ****  * in the \a DTSCON register.
1053:C:/Files/Projects/Git/XMCLib/inc\xmc4_scu.h ****  * Offset adjustment is defined as a shift of the conversion result. The range of the offset adjust
1054:C:/Files/Projects/Git/XMCLib/inc\xmc4_scu.h ****  * resolution that corresponds to +/- 12.5C. The offset value gets added to the measure result. 
1055:C:/Files/Projects/Git/XMCLib/inc\xmc4_scu.h ****  * Offset is considered as a signed value.
1056:C:/Files/Projects/Git/XMCLib/inc\xmc4_scu.h ****  * Gain adjustment helps in minimizing gain error. When the \a gain value is 0, result is generated
1057:C:/Files/Projects/Git/XMCLib/inc\xmc4_scu.h ****  * When the \a gain value is 63, result is generated with least gain, i.e, \a RESULT - 63 at the hi
1058:C:/Files/Projects/Git/XMCLib/inc\xmc4_scu.h ****  * It is recommended to use following steps:\n
1059:C:/Files/Projects/Git/XMCLib/inc\xmc4_scu.h ****  * - Call \a XMC_SCU_StopTempMeasurement to stop temperature measurement if it was started previous
1060:C:/Files/Projects/Git/XMCLib/inc\xmc4_scu.h ****  * - Call \a XMC_SCU_CalibrateTempMonitor with desired offset and gain calibration values to the DT
1061:C:/Files/Projects/Git/XMCLib/inc\xmc4_scu.h ****  * - Call \a XMC_SCU_SetRawTempLimits with desired lower and upper temperature threshold limit valu
1062:C:/Files/Projects/Git/XMCLib/inc\xmc4_scu.h ****  * - Call \a XMC_SCU_StartTempMeasurement to start temperature measurement.\n
1063:C:/Files/Projects/Git/XMCLib/inc\xmc4_scu.h ****  * - Check whether Die Temperature Sensor (DTS) is busy in conversion by calling \a XMC_SCU_IsTempe
1064:C:/Files/Projects/Git/XMCLib/inc\xmc4_scu.h ****  * conversion complete.\n
1065:C:/Files/Projects/Git/XMCLib/inc\xmc4_scu.h ****  * - Read the die temperature value using \a XMC_SCU_GetTemperatureMeasurement API.
1066:C:/Files/Projects/Git/XMCLib/inc\xmc4_scu.h ****  * \par<b>Related APIs:</b><BR>
1067:C:/Files/Projects/Git/XMCLib/inc\xmc4_scu.h ****  * XMC_SCU_EnableTemperatureSensor(),
1068:C:/Files/Projects/Git/XMCLib/inc\xmc4_scu.h ****  * XMC_SCU_StartTemperatureMeasurement(), XMC_SCU_GetTemperatureMeasurement() \n\n\n
1069:C:/Files/Projects/Git/XMCLib/inc\xmc4_scu.h ****  */
1070:C:/Files/Projects/Git/XMCLib/inc\xmc4_scu.h **** void XMC_SCU_CalibrateTemperatureSensor(uint32_t offset, uint32_t gain);
1071:C:/Files/Projects/Git/XMCLib/inc\xmc4_scu.h **** 
1072:C:/Files/Projects/Git/XMCLib/inc\xmc4_scu.h **** /**
1073:C:/Files/Projects/Git/XMCLib/inc\xmc4_scu.h ****  * @return XMC_SCU_STATUS_t  Result of starting the temperature measurement.\n
1074:C:/Files/Projects/Git/XMCLib/inc\xmc4_scu.h ****  *                           \b Range: \n 
1075:C:/Files/Projects/Git/XMCLib/inc\xmc4_scu.h ****  *                              XMC_SCU_STATUS_OK if the measurement is started successfully.\n
1076:C:/Files/Projects/Git/XMCLib/inc\xmc4_scu.h ****  *                              XMC_SCU_STATUS_ERROR if temperature sensor is not enabled.\n
1077:C:/Files/Projects/Git/XMCLib/inc\xmc4_scu.h ****  *                              XMC_SCU_STATUS_BUSY if temperature sensor is busy measuring the tem
1078:C:/Files/Projects/Git/XMCLib/inc\xmc4_scu.h ****  *
1079:C:/Files/Projects/Git/XMCLib/inc\xmc4_scu.h ****  *
1080:C:/Files/Projects/Git/XMCLib/inc\xmc4_scu.h ****  * \par<b>Description</b><br>
1081:C:/Files/Projects/Git/XMCLib/inc\xmc4_scu.h ****  * Starts die temperature measurement using internal temperature sensor.\n\n
1082:C:/Files/Projects/Git/XMCLib/inc\xmc4_scu.h ****  * The API checks if the temperature sensor is enabled and is not busy in measurement.\n
1083:C:/Files/Projects/Git/XMCLib/inc\xmc4_scu.h ****  * It is recommended to use following steps:\n
1084:C:/Files/Projects/Git/XMCLib/inc\xmc4_scu.h ****  * - Call \a XMC_SCU_StopTempMeasurement to stop temperature measurement if it was started previous
1085:C:/Files/Projects/Git/XMCLib/inc\xmc4_scu.h ****  * - Call \a XMC_SCU_SetRawTempLimits with desired lower and upper temperature threshold limit valu
1086:C:/Files/Projects/Git/XMCLib/inc\xmc4_scu.h ****  * - Call \a XMC_SCU_StartTempMeasurement to start temperature measurement.\n
1087:C:/Files/Projects/Git/XMCLib/inc\xmc4_scu.h ****  * - Check whether Die Temperature Sensor (DTS) is busy in conversion by calling \a XMC_SCU_IsTempe
1088:C:/Files/Projects/Git/XMCLib/inc\xmc4_scu.h ****  * conversion complete.\n
1089:C:/Files/Projects/Git/XMCLib/inc\xmc4_scu.h ****  * - Read the die temperature value using \a XMC_SCU_GetTemperatureMeasurement API.
1090:C:/Files/Projects/Git/XMCLib/inc\xmc4_scu.h ****  * \par<b>Related APIs:</b><BR>
1091:C:/Files/Projects/Git/XMCLib/inc\xmc4_scu.h ****  * XMC_SCU_EnableTemperatureSensor(), XMC_SCU_CalibrateTemperatureSensor(),
1092:C:/Files/Projects/Git/XMCLib/inc\xmc4_scu.h ****  * XMC_SCU_GetTemperatureMeasurement() \n\n\n
1093:C:/Files/Projects/Git/XMCLib/inc\xmc4_scu.h ****  */
1094:C:/Files/Projects/Git/XMCLib/inc\xmc4_scu.h **** XMC_SCU_STATUS_t XMC_SCU_StartTemperatureMeasurement(void);
1095:C:/Files/Projects/Git/XMCLib/inc\xmc4_scu.h **** 
1096:C:/Files/Projects/Git/XMCLib/inc\xmc4_scu.h **** 
1097:C:/Files/Projects/Git/XMCLib/inc\xmc4_scu.h **** /**
1098:C:/Files/Projects/Git/XMCLib/inc\xmc4_scu.h ****  *
1099:C:/Files/Projects/Git/XMCLib/inc\xmc4_scu.h ****  * @return uint32_t  Measured temperature value.\n
1100:C:/Files/Projects/Git/XMCLib/inc\xmc4_scu.h ****  *              \b Range: Valid temperature range is 0 to 1023. \n
1101:C:/Files/Projects/Git/XMCLib/inc\xmc4_scu.h ****  *              If sensor is not enabled, 0x7FFFFFFFH is returned.
1102:C:/Files/Projects/Git/XMCLib/inc\xmc4_scu.h ****  *
