   1              	 .syntax unified
   2              	 .cpu cortex-m4
   3              	 .eabi_attribute 27,3
   4              	 .fpu fpv4-sp-d16
   5              	 .eabi_attribute 20,1
   6              	 .eabi_attribute 21,1
   7              	 .eabi_attribute 23,3
   8              	 .eabi_attribute 24,1
   9              	 .eabi_attribute 25,1
  10              	 .eabi_attribute 26,1
  11              	 .eabi_attribute 30,1
  12              	 .eabi_attribute 34,1
  13              	 .eabi_attribute 18,4
  14              	 .thumb
  15              	 .file "xmc_dsd.c"
  16              	 .text
  17              	.Ltext0:
  18              	 .cfi_sections .debug_frame
  19              	 .section .text.XMC_DSD_Enable,"ax",%progbits
  20              	 .align 2
  21              	 .global XMC_DSD_Enable
  22              	 .thumb
  23              	 .thumb_func
  25              	XMC_DSD_Enable:
  26              	.LFB193:
  27              	 .file 1 "C:/Files/Projects/Git/XMCLib/src/xmc_dsd.c"
   1:C:/Files/Projects/Git/XMCLib/src\xmc_dsd.c **** /**
   2:C:/Files/Projects/Git/XMCLib/src\xmc_dsd.c ****  * @file xmc_dsd.c
   3:C:/Files/Projects/Git/XMCLib/src\xmc_dsd.c ****  * @date 2019-05-07
   4:C:/Files/Projects/Git/XMCLib/src\xmc_dsd.c ****  *
   5:C:/Files/Projects/Git/XMCLib/src\xmc_dsd.c ****  * @cond
   6:C:/Files/Projects/Git/XMCLib/src\xmc_dsd.c ****  **********************************************************************************
   7:C:/Files/Projects/Git/XMCLib/src\xmc_dsd.c ****  * XMClib v2.1.24 - XMC Peripheral Driver Library 
   8:C:/Files/Projects/Git/XMCLib/src\xmc_dsd.c ****  *
   9:C:/Files/Projects/Git/XMCLib/src\xmc_dsd.c ****  * Copyright (c) 2015-2019, Infineon Technologies AG
  10:C:/Files/Projects/Git/XMCLib/src\xmc_dsd.c ****  * All rights reserved.                        
  11:C:/Files/Projects/Git/XMCLib/src\xmc_dsd.c ****  *                                             
  12:C:/Files/Projects/Git/XMCLib/src\xmc_dsd.c ****  * Redistribution and use in source and binary forms, with or without           
  13:C:/Files/Projects/Git/XMCLib/src\xmc_dsd.c ****  * modification,are permitted provided that the following conditions are met:   
  14:C:/Files/Projects/Git/XMCLib/src\xmc_dsd.c ****  *                                                                              
  15:C:/Files/Projects/Git/XMCLib/src\xmc_dsd.c ****  *   Redistributions of source code must retain the above copyright notice,      
  16:C:/Files/Projects/Git/XMCLib/src\xmc_dsd.c ****  *   this list of conditions and the following disclaimer.                        
  17:C:/Files/Projects/Git/XMCLib/src\xmc_dsd.c ****  * 
  18:C:/Files/Projects/Git/XMCLib/src\xmc_dsd.c ****  *   Redistributions in binary form must reproduce the above copyright notice,   
  19:C:/Files/Projects/Git/XMCLib/src\xmc_dsd.c ****  *   this list of conditions and the following disclaimer in the documentation    
  20:C:/Files/Projects/Git/XMCLib/src\xmc_dsd.c ****  *   and/or other materials provided with the distribution.                       
  21:C:/Files/Projects/Git/XMCLib/src\xmc_dsd.c ****  * 
  22:C:/Files/Projects/Git/XMCLib/src\xmc_dsd.c ****  *   Neither the name of the copyright holders nor the names of its contributors 
  23:C:/Files/Projects/Git/XMCLib/src\xmc_dsd.c ****  *   may be used to endorse or promote products derived from this software without
  24:C:/Files/Projects/Git/XMCLib/src\xmc_dsd.c ****  *   specific prior written permission.                                           
  25:C:/Files/Projects/Git/XMCLib/src\xmc_dsd.c ****  *                                                                              
  26:C:/Files/Projects/Git/XMCLib/src\xmc_dsd.c ****  * THIS SOFTWARE IS PROVIDED BY THE COPYRIGHT HOLDERS AND CONTRIBUTORS "AS IS"  
  27:C:/Files/Projects/Git/XMCLib/src\xmc_dsd.c ****  * AND ANY EXPRESS OR IMPLIED WARRANTIES, INCLUDING, BUT NOT LIMITED TO, THE    
  28:C:/Files/Projects/Git/XMCLib/src\xmc_dsd.c ****  * IMPLIED WARRANTIES OF MERCHANTABILITY AND FITNESS FOR A PARTICULAR PURPOSE   
  29:C:/Files/Projects/Git/XMCLib/src\xmc_dsd.c ****  * ARE  DISCLAIMED. IN NO EVENT SHALL THE COPYRIGHT HOLDER OR CONTRIBUTORS BE   
  30:C:/Files/Projects/Git/XMCLib/src\xmc_dsd.c ****  * LIABLE  FOR ANY DIRECT, INDIRECT, INCIDENTAL, SPECIAL, EXEMPLARY, OR         
  31:C:/Files/Projects/Git/XMCLib/src\xmc_dsd.c ****  * CONSEQUENTIAL DAMAGES (INCLUDING, BUT NOT LIMITED TO, PROCUREMENT OF         
  32:C:/Files/Projects/Git/XMCLib/src\xmc_dsd.c ****  * SUBSTITUTE GOODS OR  SERVICES; LOSS OF USE, DATA, OR PROFITS; OR BUSINESS    
  33:C:/Files/Projects/Git/XMCLib/src\xmc_dsd.c ****  * INTERRUPTION) HOWEVER CAUSED AND ON ANY THEORY OF LIABILITY, WHETHER IN      
  34:C:/Files/Projects/Git/XMCLib/src\xmc_dsd.c ****  * CONTRACT, STRICT LIABILITY,OR TORT (INCLUDING NEGLIGENCE OR OTHERWISE)       
  35:C:/Files/Projects/Git/XMCLib/src\xmc_dsd.c ****  * ARISING IN ANY WAY OUT OF THE USE OF THIS SOFTWARE, EVEN IF ADVISED OF THE   
  36:C:/Files/Projects/Git/XMCLib/src\xmc_dsd.c ****  * POSSIBILITY OF SUCH DAMAGE.                                                  
  37:C:/Files/Projects/Git/XMCLib/src\xmc_dsd.c ****  *                                                                              
  38:C:/Files/Projects/Git/XMCLib/src\xmc_dsd.c ****  * To improve the quality of the software, users are encouraged to share        
  39:C:/Files/Projects/Git/XMCLib/src\xmc_dsd.c ****  * modifications, enhancements or bug fixes with Infineon Technologies AG       
  40:C:/Files/Projects/Git/XMCLib/src\xmc_dsd.c ****  * dave@infineon.com).                                                          
  41:C:/Files/Projects/Git/XMCLib/src\xmc_dsd.c ****  **********************************************************************************
  42:C:/Files/Projects/Git/XMCLib/src\xmc_dsd.c ****  *
  43:C:/Files/Projects/Git/XMCLib/src\xmc_dsd.c ****  * Change History
  44:C:/Files/Projects/Git/XMCLib/src\xmc_dsd.c ****  * --------------
  45:C:/Files/Projects/Git/XMCLib/src\xmc_dsd.c ****  *
  46:C:/Files/Projects/Git/XMCLib/src\xmc_dsd.c ****  * 2015-03-30:
  47:C:/Files/Projects/Git/XMCLib/src\xmc_dsd.c ****  *     - Initial version
  48:C:/Files/Projects/Git/XMCLib/src\xmc_dsd.c ****  *      
  49:C:/Files/Projects/Git/XMCLib/src\xmc_dsd.c ****  * 2015-06-19:
  50:C:/Files/Projects/Git/XMCLib/src\xmc_dsd.c ****  *     - Removed GetDriverVersion API <BR>
  51:C:/Files/Projects/Git/XMCLib/src\xmc_dsd.c ****  * 
  52:C:/Files/Projects/Git/XMCLib/src\xmc_dsd.c ****  * 2015-09-18:
  53:C:/Files/Projects/Git/XMCLib/src\xmc_dsd.c ****  *     - Support added for XMC4800 microcontroller family <BR>
  54:C:/Files/Projects/Git/XMCLib/src\xmc_dsd.c ****  *
  55:C:/Files/Projects/Git/XMCLib/src\xmc_dsd.c ****  * 2019-05-07:
  56:C:/Files/Projects/Git/XMCLib/src\xmc_dsd.c ****  *     - Fixed compilation warnings
  57:C:/Files/Projects/Git/XMCLib/src\xmc_dsd.c ****  *
  58:C:/Files/Projects/Git/XMCLib/src\xmc_dsd.c ****  * @endcond 
  59:C:/Files/Projects/Git/XMCLib/src\xmc_dsd.c ****  *
  60:C:/Files/Projects/Git/XMCLib/src\xmc_dsd.c ****  */
  61:C:/Files/Projects/Git/XMCLib/src\xmc_dsd.c **** 
  62:C:/Files/Projects/Git/XMCLib/src\xmc_dsd.c **** /**************************************************************************************************
  63:C:/Files/Projects/Git/XMCLib/src\xmc_dsd.c ****  * HEADER FILES
  64:C:/Files/Projects/Git/XMCLib/src\xmc_dsd.c ****  **************************************************************************************************
  65:C:/Files/Projects/Git/XMCLib/src\xmc_dsd.c **** #include "xmc_dsd.h"
  66:C:/Files/Projects/Git/XMCLib/src\xmc_dsd.c **** 
  67:C:/Files/Projects/Git/XMCLib/src\xmc_dsd.c **** #if defined(DSD)
  68:C:/Files/Projects/Git/XMCLib/src\xmc_dsd.c **** 
  69:C:/Files/Projects/Git/XMCLib/src\xmc_dsd.c **** /**************************************************************************************************
  70:C:/Files/Projects/Git/XMCLib/src\xmc_dsd.c ****  * MACROS
  71:C:/Files/Projects/Git/XMCLib/src\xmc_dsd.c ****  **************************************************************************************************
  72:C:/Files/Projects/Git/XMCLib/src\xmc_dsd.c **** 
  73:C:/Files/Projects/Git/XMCLib/src\xmc_dsd.c **** #define XMC_DSD_MIN_FILTER_START  (4U)
  74:C:/Files/Projects/Git/XMCLib/src\xmc_dsd.c **** #define XMC_DSD_MIN_DECIMATION_FACTOR (4U)
  75:C:/Files/Projects/Git/XMCLib/src\xmc_dsd.c **** #define XMC_DSD_MAX_DECIMATION_FACTOR (256U)
  76:C:/Files/Projects/Git/XMCLib/src\xmc_dsd.c **** #define XMC_DSD_MAX_DECIMATION_FACTOR_AUX (32U)
  77:C:/Files/Projects/Git/XMCLib/src\xmc_dsd.c **** 
  78:C:/Files/Projects/Git/XMCLib/src\xmc_dsd.c **** /**************************************************************************************************
  79:C:/Files/Projects/Git/XMCLib/src\xmc_dsd.c ****  * API IMPLEMENTATION
  80:C:/Files/Projects/Git/XMCLib/src\xmc_dsd.c ****  **************************************************************************************************
  81:C:/Files/Projects/Git/XMCLib/src\xmc_dsd.c **** 
  82:C:/Files/Projects/Git/XMCLib/src\xmc_dsd.c **** /*Enable the DSD Module*/
  83:C:/Files/Projects/Git/XMCLib/src\xmc_dsd.c **** void XMC_DSD_Enable(XMC_DSD_t *const dsd)
  84:C:/Files/Projects/Git/XMCLib/src\xmc_dsd.c **** {
  28              	 .loc 1 84 0
  29              	 .cfi_startproc
  30              	 
  31              	 
  32              	.LVL0:
  33 0000 08B5     	 push {r3,lr}
  34              	.LCFI0:
  35              	 .cfi_def_cfa_offset 8
  36              	 .cfi_offset 3,-8
  37              	 .cfi_offset 14,-4
  85:C:/Files/Projects/Git/XMCLib/src\xmc_dsd.c ****   XMC_ASSERT("XMC_DSD_Enable:Invalid module pointer", XMC_DSD_CHECK_MODULE_PTR(dsd));
  86:C:/Files/Projects/Git/XMCLib/src\xmc_dsd.c ****   XMC_UNUSED_ARG(dsd);
  87:C:/Files/Projects/Git/XMCLib/src\xmc_dsd.c **** 
  88:C:/Files/Projects/Git/XMCLib/src\xmc_dsd.c **** #if defined(CLOCK_GATING_SUPPORTED)
  89:C:/Files/Projects/Git/XMCLib/src\xmc_dsd.c ****   XMC_SCU_CLOCK_UngatePeripheralClock(XMC_SCU_PERIPHERAL_CLOCK_DSD);
  90:C:/Files/Projects/Git/XMCLib/src\xmc_dsd.c **** #endif
  91:C:/Files/Projects/Git/XMCLib/src\xmc_dsd.c ****   XMC_SCU_RESET_DeassertPeripheralReset(XMC_SCU_PERIPHERAL_RESET_DSD);
  38              	 .loc 1 91 0
  39 0002 0220     	 movs r0,#2
  40              	.LVL1:
  41 0004 FFF7FEFF 	 bl XMC_SCU_RESET_DeassertPeripheralReset
  42              	.LVL2:
  43 0008 08BD     	 pop {r3,pc}
  44              	 .cfi_endproc
  45              	.LFE193:
  47 000a 00BF     	 .section .text.XMC_DSD_Disable,"ax",%progbits
  48              	 .align 2
  49              	 .global XMC_DSD_Disable
  50              	 .thumb
  51              	 .thumb_func
  53              	XMC_DSD_Disable:
  54              	.LFB194:
  92:C:/Files/Projects/Git/XMCLib/src\xmc_dsd.c **** }
  93:C:/Files/Projects/Git/XMCLib/src\xmc_dsd.c **** 
  94:C:/Files/Projects/Git/XMCLib/src\xmc_dsd.c **** /*Disable the DSD Module*/
  95:C:/Files/Projects/Git/XMCLib/src\xmc_dsd.c **** void XMC_DSD_Disable(XMC_DSD_t *const dsd)
  96:C:/Files/Projects/Git/XMCLib/src\xmc_dsd.c **** {
  55              	 .loc 1 96 0
  56              	 .cfi_startproc
  57              	 
  58              	 
  59              	.LVL3:
  60 0000 08B5     	 push {r3,lr}
  61              	.LCFI1:
  62              	 .cfi_def_cfa_offset 8
  63              	 .cfi_offset 3,-8
  64              	 .cfi_offset 14,-4
  97:C:/Files/Projects/Git/XMCLib/src\xmc_dsd.c ****   XMC_ASSERT("XMC_DSD_Disable:Invalid module pointer", XMC_DSD_CHECK_MODULE_PTR(dsd));
  98:C:/Files/Projects/Git/XMCLib/src\xmc_dsd.c ****   XMC_UNUSED_ARG(dsd);
  99:C:/Files/Projects/Git/XMCLib/src\xmc_dsd.c **** 
 100:C:/Files/Projects/Git/XMCLib/src\xmc_dsd.c ****   XMC_SCU_RESET_AssertPeripheralReset(XMC_SCU_PERIPHERAL_RESET_DSD);
  65              	 .loc 1 100 0
  66 0002 0220     	 movs r0,#2
  67              	.LVL4:
  68 0004 FFF7FEFF 	 bl XMC_SCU_RESET_AssertPeripheralReset
  69              	.LVL5:
  70 0008 08BD     	 pop {r3,pc}
  71              	 .cfi_endproc
  72              	.LFE194:
  74 000a 00BF     	 .section .text.XMC_DSD_EnableClock,"ax",%progbits
  75              	 .align 2
  76              	 .global XMC_DSD_EnableClock
  77              	 .thumb
  78              	 .thumb_func
  80              	XMC_DSD_EnableClock:
  81              	.LFB195:
 101:C:/Files/Projects/Git/XMCLib/src\xmc_dsd.c **** #if defined(CLOCK_GATING_SUPPORTED)
 102:C:/Files/Projects/Git/XMCLib/src\xmc_dsd.c ****   XMC_SCU_CLOCK_GatePeripheralClock(XMC_SCU_PERIPHERAL_CLOCK_DSD);
 103:C:/Files/Projects/Git/XMCLib/src\xmc_dsd.c **** #endif
 104:C:/Files/Projects/Git/XMCLib/src\xmc_dsd.c **** }
 105:C:/Files/Projects/Git/XMCLib/src\xmc_dsd.c **** 
 106:C:/Files/Projects/Git/XMCLib/src\xmc_dsd.c **** /* Enable the module clock*/
 107:C:/Files/Projects/Git/XMCLib/src\xmc_dsd.c **** void XMC_DSD_EnableClock(XMC_DSD_t *const dsd)
 108:C:/Files/Projects/Git/XMCLib/src\xmc_dsd.c **** {
  82              	 .loc 1 108 0
  83              	 .cfi_startproc
  84              	 
  85              	 
  86              	 
  87              	.LVL6:
 109:C:/Files/Projects/Git/XMCLib/src\xmc_dsd.c ****   XMC_ASSERT("XMC_DSD_EnableClock:Invalid module pointer", XMC_DSD_CHECK_MODULE_PTR(dsd));
 110:C:/Files/Projects/Git/XMCLib/src\xmc_dsd.c ****   /* Enable the module clock */
 111:C:/Files/Projects/Git/XMCLib/src\xmc_dsd.c ****   dsd->CLC &= ~(uint32_t)DSD_CLC_DISR_Msk;
  88              	 .loc 1 111 0
  89 0000 0368     	 ldr r3,[r0]
  90 0002 23F00103 	 bic r3,r3,#1
  91 0006 0360     	 str r3,[r0]
 112:C:/Files/Projects/Git/XMCLib/src\xmc_dsd.c ****   /* enable internal module clock */
 113:C:/Files/Projects/Git/XMCLib/src\xmc_dsd.c ****   dsd ->GLOBCFG |= (uint32_t)0x01;
  92              	 .loc 1 113 0
  93 0008 D0F88030 	 ldr r3,[r0,#128]
  94 000c 43F00103 	 orr r3,r3,#1
  95 0010 C0F88030 	 str r3,[r0,#128]
  96 0014 7047     	 bx lr
  97              	 .cfi_endproc
  98              	.LFE195:
 100 0016 00BF     	 .section .text.XMC_DSD_DisableClock,"ax",%progbits
 101              	 .align 2
 102              	 .global XMC_DSD_DisableClock
 103              	 .thumb
 104              	 .thumb_func
 106              	XMC_DSD_DisableClock:
 107              	.LFB196:
 114:C:/Files/Projects/Git/XMCLib/src\xmc_dsd.c **** }
 115:C:/Files/Projects/Git/XMCLib/src\xmc_dsd.c **** 
 116:C:/Files/Projects/Git/XMCLib/src\xmc_dsd.c **** void XMC_DSD_DisableClock(XMC_DSD_t *const dsd)
 117:C:/Files/Projects/Git/XMCLib/src\xmc_dsd.c **** {
 108              	 .loc 1 117 0
 109              	 .cfi_startproc
 110              	 
 111              	 
 112              	 
 113              	.LVL7:
 118:C:/Files/Projects/Git/XMCLib/src\xmc_dsd.c ****   XMC_ASSERT("XMC_DSD_DisableClock:Invalid module pointer", XMC_DSD_CHECK_MODULE_PTR(dsd));
 119:C:/Files/Projects/Git/XMCLib/src\xmc_dsd.c **** 
 120:C:/Files/Projects/Git/XMCLib/src\xmc_dsd.c ****   /* disable internal module clock */
 121:C:/Files/Projects/Git/XMCLib/src\xmc_dsd.c ****   dsd->GLOBCFG &= ~(uint32_t)DSD_GLOBCFG_MCSEL_Msk;
 114              	 .loc 1 121 0
 115 0000 D0F88030 	 ldr r3,[r0,#128]
 116 0004 23F00703 	 bic r3,r3,#7
 117 0008 C0F88030 	 str r3,[r0,#128]
 122:C:/Files/Projects/Git/XMCLib/src\xmc_dsd.c **** 
 123:C:/Files/Projects/Git/XMCLib/src\xmc_dsd.c ****   /* stop the module clock */
 124:C:/Files/Projects/Git/XMCLib/src\xmc_dsd.c ****   dsd->CLC |= (uint32_t)DSD_CLC_DISR_Msk;
 118              	 .loc 1 124 0
 119 000c 0368     	 ldr r3,[r0]
 120 000e 43F00103 	 orr r3,r3,#1
 121 0012 0360     	 str r3,[r0]
 122 0014 7047     	 bx lr
 123              	 .cfi_endproc
 124              	.LFE196:
 126 0016 00BF     	 .section .text.XMC_DSD_Init,"ax",%progbits
 127              	 .align 2
 128              	 .global XMC_DSD_Init
 129              	 .thumb
 130              	 .thumb_func
 132              	XMC_DSD_Init:
 133              	.LFB197:
 125:C:/Files/Projects/Git/XMCLib/src\xmc_dsd.c **** 
 126:C:/Files/Projects/Git/XMCLib/src\xmc_dsd.c **** }
 127:C:/Files/Projects/Git/XMCLib/src\xmc_dsd.c **** 
 128:C:/Files/Projects/Git/XMCLib/src\xmc_dsd.c **** /* Enable the DSD module and clock */
 129:C:/Files/Projects/Git/XMCLib/src\xmc_dsd.c **** void XMC_DSD_Init(XMC_DSD_t *const dsd)
 130:C:/Files/Projects/Git/XMCLib/src\xmc_dsd.c **** {
 134              	 .loc 1 130 0
 135              	 .cfi_startproc
 136              	 
 137              	 
 138              	.LVL8:
 139 0000 10B5     	 push {r4,lr}
 140              	.LCFI2:
 141              	 .cfi_def_cfa_offset 8
 142              	 .cfi_offset 4,-8
 143              	 .cfi_offset 14,-4
 144 0002 0446     	 mov r4,r0
 145              	.LVL9:
 146              	.LBB4:
 147              	.LBB5:
  91:C:/Files/Projects/Git/XMCLib/src\xmc_dsd.c **** }
 148              	 .loc 1 91 0
 149 0004 0220     	 movs r0,#2
 150              	.LVL10:
 151 0006 FFF7FEFF 	 bl XMC_SCU_RESET_DeassertPeripheralReset
 152              	.LVL11:
 153              	.LBE5:
 154              	.LBE4:
 131:C:/Files/Projects/Git/XMCLib/src\xmc_dsd.c ****   XMC_ASSERT("XMC_DSD_Init:Invalid module pointer", XMC_DSD_CHECK_MODULE_PTR(dsd));
 132:C:/Files/Projects/Git/XMCLib/src\xmc_dsd.c ****   XMC_DSD_Enable(dsd);
 133:C:/Files/Projects/Git/XMCLib/src\xmc_dsd.c ****   XMC_DSD_EnableClock(dsd);
 155              	 .loc 1 133 0
 156 000a 2046     	 mov r0,r4
 157 000c FFF7FEFF 	 bl XMC_DSD_EnableClock
 158              	.LVL12:
 159 0010 10BD     	 pop {r4,pc}
 160              	 .cfi_endproc
 161              	.LFE197:
 163 0012 00BF     	 .section .text.XMC_DSD_IsEnabled,"ax",%progbits
 164              	 .align 2
 165              	 .global XMC_DSD_IsEnabled
 166              	 .thumb
 167              	 .thumb_func
 169              	XMC_DSD_IsEnabled:
 170              	.LFB198:
 134:C:/Files/Projects/Git/XMCLib/src\xmc_dsd.c **** }
 135:C:/Files/Projects/Git/XMCLib/src\xmc_dsd.c **** 
 136:C:/Files/Projects/Git/XMCLib/src\xmc_dsd.c **** bool XMC_DSD_IsEnabled(XMC_DSD_t *const dsd)
 137:C:/Files/Projects/Git/XMCLib/src\xmc_dsd.c **** {
 171              	 .loc 1 137 0
 172              	 .cfi_startproc
 173              	 
 174              	 
 175              	.LVL13:
 176 0000 08B5     	 push {r3,lr}
 177              	.LCFI3:
 178              	 .cfi_def_cfa_offset 8
 179              	 .cfi_offset 3,-8
 180              	 .cfi_offset 14,-4
 138:C:/Files/Projects/Git/XMCLib/src\xmc_dsd.c ****   bool status;
 139:C:/Files/Projects/Git/XMCLib/src\xmc_dsd.c ****   XMC_ASSERT("XMC_DSD_Disable:Invalid module pointer", XMC_DSD_CHECK_MODULE_PTR(dsd));
 140:C:/Files/Projects/Git/XMCLib/src\xmc_dsd.c ****   XMC_UNUSED_ARG(dsd);
 141:C:/Files/Projects/Git/XMCLib/src\xmc_dsd.c ****   
 142:C:/Files/Projects/Git/XMCLib/src\xmc_dsd.c ****   #if ((UC_SERIES == XMC44) || (UC_SERIES == XMC48)||(UC_SERIES == XMC47))
 143:C:/Files/Projects/Git/XMCLib/src\xmc_dsd.c ****   if(XMC_SCU_RESET_IsPeripheralResetAsserted(XMC_SCU_PERIPHERAL_RESET_DSD) == false) 
 144:C:/Files/Projects/Git/XMCLib/src\xmc_dsd.c ****   {
 145:C:/Files/Projects/Git/XMCLib/src\xmc_dsd.c ****     if(XMC_SCU_CLOCK_IsPeripheralClockGated(XMC_SCU_PERIPHERAL_CLOCK_DSD) == false)
 146:C:/Files/Projects/Git/XMCLib/src\xmc_dsd.c ****     {
 147:C:/Files/Projects/Git/XMCLib/src\xmc_dsd.c ****       status = true;
 148:C:/Files/Projects/Git/XMCLib/src\xmc_dsd.c ****     }
 149:C:/Files/Projects/Git/XMCLib/src\xmc_dsd.c **** 	else
 150:C:/Files/Projects/Git/XMCLib/src\xmc_dsd.c **** 	{
 151:C:/Files/Projects/Git/XMCLib/src\xmc_dsd.c ****       status = false;
 152:C:/Files/Projects/Git/XMCLib/src\xmc_dsd.c **** 	}
 153:C:/Files/Projects/Git/XMCLib/src\xmc_dsd.c ****   }
 154:C:/Files/Projects/Git/XMCLib/src\xmc_dsd.c ****   else
 155:C:/Files/Projects/Git/XMCLib/src\xmc_dsd.c ****   {
 156:C:/Files/Projects/Git/XMCLib/src\xmc_dsd.c ****     status = false;
 157:C:/Files/Projects/Git/XMCLib/src\xmc_dsd.c ****   }
 158:C:/Files/Projects/Git/XMCLib/src\xmc_dsd.c ****   #else
 159:C:/Files/Projects/Git/XMCLib/src\xmc_dsd.c ****   if(XMC_SCU_RESET_IsPeripheralResetAsserted(XMC_SCU_PERIPHERAL_RESET_DSD) == false)
 181              	 .loc 1 159 0
 182 0002 0220     	 movs r0,#2
 183              	.LVL14:
 184 0004 FFF7FEFF 	 bl XMC_SCU_RESET_IsPeripheralResetAsserted
 185              	.LVL15:
 186 0008 80F00100 	 eor r0,r0,#1
 187              	.LVL16:
 160:C:/Files/Projects/Git/XMCLib/src\xmc_dsd.c ****   {
 161:C:/Files/Projects/Git/XMCLib/src\xmc_dsd.c ****     status = true;
 162:C:/Files/Projects/Git/XMCLib/src\xmc_dsd.c ****   }
 163:C:/Files/Projects/Git/XMCLib/src\xmc_dsd.c ****   else
 164:C:/Files/Projects/Git/XMCLib/src\xmc_dsd.c ****   {
 165:C:/Files/Projects/Git/XMCLib/src\xmc_dsd.c ****     status = false;
 166:C:/Files/Projects/Git/XMCLib/src\xmc_dsd.c ****   }
 167:C:/Files/Projects/Git/XMCLib/src\xmc_dsd.c ****   #endif
 168:C:/Files/Projects/Git/XMCLib/src\xmc_dsd.c ****   
 169:C:/Files/Projects/Git/XMCLib/src\xmc_dsd.c ****   return (status);
 170:C:/Files/Projects/Git/XMCLib/src\xmc_dsd.c **** }
 188              	 .loc 1 170 0
 189 000c C0B2     	 uxtb r0,r0
 190 000e 08BD     	 pop {r3,pc}
 191              	 .cfi_endproc
 192              	.LFE198:
 194              	 .section .text.XMC_DSD_Generator_Init,"ax",%progbits
 195              	 .align 2
 196              	 .global XMC_DSD_Generator_Init
 197              	 .thumb
 198              	 .thumb_func
 200              	XMC_DSD_Generator_Init:
 201              	.LFB199:
 171:C:/Files/Projects/Git/XMCLib/src\xmc_dsd.c **** 
 172:C:/Files/Projects/Git/XMCLib/src\xmc_dsd.c **** /*Initializes the Waveform Generator*/
 173:C:/Files/Projects/Git/XMCLib/src\xmc_dsd.c **** void XMC_DSD_Generator_Init(XMC_DSD_t *const dsd, const XMC_DSD_GENERATOR_CONFIG_t *const config)
 174:C:/Files/Projects/Git/XMCLib/src\xmc_dsd.c **** {
 202              	 .loc 1 174 0
 203              	 .cfi_startproc
 204              	 
 205              	 
 206              	 
 207              	.LVL17:
 175:C:/Files/Projects/Git/XMCLib/src\xmc_dsd.c ****   XMC_ASSERT("XMC_DSD_GENERATOR_Init:Invalid module pointer", XMC_DSD_CHECK_MODULE_PTR(dsd));
 176:C:/Files/Projects/Git/XMCLib/src\xmc_dsd.c ****   XMC_ASSERT("XMC_DSD_GENERATOR_Init:NULL Pointer", (config != (XMC_DSD_GENERATOR_CONFIG_t *)NULL) 
 177:C:/Files/Projects/Git/XMCLib/src\xmc_dsd.c ****   /* Reset Generator */
 178:C:/Files/Projects/Git/XMCLib/src\xmc_dsd.c ****   dsd ->CGCFG &= ~((uint32_t)DSD_CGCFG_CGMOD_Msk | (uint32_t)DSD_CGCFG_BREV_Msk | (uint32_t)DSD_CGC
 208              	 .loc 1 178 0
 209 0000 D0F8A030 	 ldr r3,[r0,#160]
 210 0004 23F0FF03 	 bic r3,r3,#255
 211 0008 C0F8A030 	 str r3,[r0,#160]
 179:C:/Files/Projects/Git/XMCLib/src\xmc_dsd.c **** 
 180:C:/Files/Projects/Git/XMCLib/src\xmc_dsd.c ****   /* Generator configuration */
 181:C:/Files/Projects/Git/XMCLib/src\xmc_dsd.c ****   dsd ->CGCFG = config->generator_conf;
 212              	 .loc 1 181 0
 213 000c 0B68     	 ldr r3,[r1]
 214 000e C0F8A030 	 str r3,[r0,#160]
 215 0012 7047     	 bx lr
 216              	 .cfi_endproc
 217              	.LFE199:
 219              	 .section .text.XMC_DSD_CH_MainFilter_Init,"ax",%progbits
 220              	 .align 2
 221              	 .global XMC_DSD_CH_MainFilter_Init
 222              	 .thumb
 223              	 .thumb_func
 225              	XMC_DSD_CH_MainFilter_Init:
 226              	.LFB201:
 182:C:/Files/Projects/Git/XMCLib/src\xmc_dsd.c **** }
 183:C:/Files/Projects/Git/XMCLib/src\xmc_dsd.c **** 
 184:C:/Files/Projects/Git/XMCLib/src\xmc_dsd.c **** /* Initialize main filter,auxiliary filter,integrator, rectifier and timestamp of DSD*/
 185:C:/Files/Projects/Git/XMCLib/src\xmc_dsd.c **** XMC_DSD_STATUS_t XMC_DSD_CH_Init( XMC_DSD_CH_t *const channel, const XMC_DSD_CH_CONFIG_t *const con
 186:C:/Files/Projects/Git/XMCLib/src\xmc_dsd.c **** {
 187:C:/Files/Projects/Git/XMCLib/src\xmc_dsd.c ****   XMC_DSD_STATUS_t status;
 188:C:/Files/Projects/Git/XMCLib/src\xmc_dsd.c **** 
 189:C:/Files/Projects/Git/XMCLib/src\xmc_dsd.c ****   XMC_ASSERT("XMC_DSD_CH_Init:Invalid module pointer", XMC_DSD_CHECK_CHANNEL_PTR(channel));
 190:C:/Files/Projects/Git/XMCLib/src\xmc_dsd.c ****   XMC_ASSERT("XMC_DSD_CH_Init:NULL Pointer", (config != (XMC_DSD_CH_CONFIG_t *)NULL) );
 191:C:/Files/Projects/Git/XMCLib/src\xmc_dsd.c **** 
 192:C:/Files/Projects/Git/XMCLib/src\xmc_dsd.c ****   if (config->filter != (XMC_DSD_CH_FILTER_CONFIG_t*)NULL)
 193:C:/Files/Projects/Git/XMCLib/src\xmc_dsd.c ****   {
 194:C:/Files/Projects/Git/XMCLib/src\xmc_dsd.c ****     XMC_DSD_CH_MainFilter_Init(channel, config->filter);
 195:C:/Files/Projects/Git/XMCLib/src\xmc_dsd.c **** 
 196:C:/Files/Projects/Git/XMCLib/src\xmc_dsd.c ****     if (config->aux != (XMC_DSD_CH_AUX_FILTER_CONFIG_t*)NULL)
 197:C:/Files/Projects/Git/XMCLib/src\xmc_dsd.c ****     {
 198:C:/Files/Projects/Git/XMCLib/src\xmc_dsd.c ****       XMC_DSD_CH_AuxFilter_Init(channel, config->aux);
 199:C:/Files/Projects/Git/XMCLib/src\xmc_dsd.c ****     }
 200:C:/Files/Projects/Git/XMCLib/src\xmc_dsd.c ****     if (config->integrator != (XMC_DSD_CH_INTEGRATOR_CONFIG_t*)NULL)
 201:C:/Files/Projects/Git/XMCLib/src\xmc_dsd.c ****     {
 202:C:/Files/Projects/Git/XMCLib/src\xmc_dsd.c ****       XMC_DSD_CH_Integrator_Init(channel, config->integrator);
 203:C:/Files/Projects/Git/XMCLib/src\xmc_dsd.c ****     }
 204:C:/Files/Projects/Git/XMCLib/src\xmc_dsd.c ****     if (config->rectify != (XMC_DSD_CH_RECTIFY_CONFIG_t*)NULL)
 205:C:/Files/Projects/Git/XMCLib/src\xmc_dsd.c ****     {
 206:C:/Files/Projects/Git/XMCLib/src\xmc_dsd.c ****       XMC_DSD_CH_Rectify_Init(channel, config->rectify);
 207:C:/Files/Projects/Git/XMCLib/src\xmc_dsd.c ****     }
 208:C:/Files/Projects/Git/XMCLib/src\xmc_dsd.c ****     if (config->timestamp != (XMC_DSD_CH_TIMESTAMP_CONFIG_t*)NULL)
 209:C:/Files/Projects/Git/XMCLib/src\xmc_dsd.c ****     {
 210:C:/Files/Projects/Git/XMCLib/src\xmc_dsd.c ****       XMC_DSD_CH_Timestamp_Init(channel, config->timestamp);
 211:C:/Files/Projects/Git/XMCLib/src\xmc_dsd.c ****     }
 212:C:/Files/Projects/Git/XMCLib/src\xmc_dsd.c ****     status =  XMC_DSD_STATUS_OK;
 213:C:/Files/Projects/Git/XMCLib/src\xmc_dsd.c ****   }
 214:C:/Files/Projects/Git/XMCLib/src\xmc_dsd.c ****   else
 215:C:/Files/Projects/Git/XMCLib/src\xmc_dsd.c ****   {
 216:C:/Files/Projects/Git/XMCLib/src\xmc_dsd.c ****     status =  XMC_DSD_STATUS_ERROR;
 217:C:/Files/Projects/Git/XMCLib/src\xmc_dsd.c ****   }
 218:C:/Files/Projects/Git/XMCLib/src\xmc_dsd.c ****   return (status);
 219:C:/Files/Projects/Git/XMCLib/src\xmc_dsd.c **** 
 220:C:/Files/Projects/Git/XMCLib/src\xmc_dsd.c **** }
 221:C:/Files/Projects/Git/XMCLib/src\xmc_dsd.c **** 
 222:C:/Files/Projects/Git/XMCLib/src\xmc_dsd.c **** /* Initialize main filter of DSD */
 223:C:/Files/Projects/Git/XMCLib/src\xmc_dsd.c **** void XMC_DSD_CH_MainFilter_Init(XMC_DSD_CH_t *const channel, const XMC_DSD_CH_FILTER_CONFIG_t *cons
 224:C:/Files/Projects/Git/XMCLib/src\xmc_dsd.c **** {
 227              	 .loc 1 224 0
 228              	 .cfi_startproc
 229              	 
 230              	 
 231              	 
 232              	.LVL18:
 225:C:/Files/Projects/Git/XMCLib/src\xmc_dsd.c ****   uint32_t decimation_factor_temp;
 226:C:/Files/Projects/Git/XMCLib/src\xmc_dsd.c ****   uint32_t filter_start_value_temp;
 227:C:/Files/Projects/Git/XMCLib/src\xmc_dsd.c **** 
 228:C:/Files/Projects/Git/XMCLib/src\xmc_dsd.c ****   XMC_ASSERT("XMC_DSD_MAIN_FILTER_Init:Invalid module pointer", XMC_DSD_CHECK_CHANNEL_PTR(channel))
 229:C:/Files/Projects/Git/XMCLib/src\xmc_dsd.c ****   XMC_ASSERT("XMC_DSD_MAIN_FILTER_Init:NULL Pointer", (config != (XMC_DSD_CH_FILTER_CONFIG_t *)NULL
 230:C:/Files/Projects/Git/XMCLib/src\xmc_dsd.c ****   XMC_ASSERT("XMC_DSD_MAIN_FILTER_Init:Invalid Filter Start Value", (config->filter_start_value >= 
 231:C:/Files/Projects/Git/XMCLib/src\xmc_dsd.c ****   XMC_ASSERT("XMC_DSD_MAIN_FILTER_Init:Invalid Filter Start Value", (config->filter_start_value <= 
 232:C:/Files/Projects/Git/XMCLib/src\xmc_dsd.c ****   XMC_ASSERT("XMC_DSD_MAIN_FILTER_Init:Invalid Decimation Factor",
 233:C:/Files/Projects/Git/XMCLib/src\xmc_dsd.c ****       ((config->decimation_factor >= XMC_DSD_MIN_DECIMATION_FACTOR) && (config->decimation_factor <
 234:C:/Files/Projects/Git/XMCLib/src\xmc_dsd.c **** 
 235:C:/Files/Projects/Git/XMCLib/src\xmc_dsd.c ****   /*Set Channel frequency*/
 236:C:/Files/Projects/Git/XMCLib/src\xmc_dsd.c ****   channel->MODCFG = ((uint32_t)config->clock_divider << DSD_CH_MODCFG_DIVM_Pos) | (uint32_t)DSD_CH_
 233              	 .loc 1 236 0
 234 0000 0B78     	 ldrb r3,[r1]
 235 0002 03F00F03 	 and r3,r3,#15
 236 0006 1B04     	 lsls r3,r3,#16
 237 0008 43F40003 	 orr r3,r3,#8388608
 238 000c 0360     	 str r3,[r0]
 237:C:/Files/Projects/Git/XMCLib/src\xmc_dsd.c **** 
 238:C:/Files/Projects/Git/XMCLib/src\xmc_dsd.c ****   /* Input Data/Clk */
 239:C:/Files/Projects/Git/XMCLib/src\xmc_dsd.c ****   channel->DICFG = config->demodulator_conf | (uint32_t)DSD_CH_DICFG_DSWC_Msk | (uint32_t)DSD_CH_DI
 239              	 .loc 1 239 0
 240 000e 4B68     	 ldr r3,[r1,#4]
 241 0010 43F00043 	 orr r3,r3,#-2147483648
 242 0014 43F08003 	 orr r3,r3,#128
 243 0018 8360     	 str r3,[r0,#8]
 244              	.LVL19:
 245 001a 8B68     	 ldr r3,[r1,#8]
 246 001c 43F48062 	 orr r2,r3,#1024
 240:C:/Files/Projects/Git/XMCLib/src\xmc_dsd.c **** 
 241:C:/Files/Projects/Git/XMCLib/src\xmc_dsd.c ****   /*The decimation factor of the Main CIC filter is CFMDF + 1.*/
 242:C:/Files/Projects/Git/XMCLib/src\xmc_dsd.c ****   decimation_factor_temp = config->decimation_factor-1U;
 247              	 .loc 1 242 0
 248 0020 CB68     	 ldr r3,[r1,#12]
 249 0022 013B     	 subs r3,r3,#1
 250              	.LVL20:
 251 0024 1A43     	 orrs r2,r2,r3
 243:C:/Files/Projects/Git/XMCLib/src\xmc_dsd.c ****   filter_start_value_temp = config->filter_start_value-1U;
 252              	 .loc 1 243 0
 253 0026 0B69     	 ldr r3,[r1,#16]
 254              	.LVL21:
 255 0028 013B     	 subs r3,r3,#1
 256              	.LVL22:
 244:C:/Files/Projects/Git/XMCLib/src\xmc_dsd.c **** 
 245:C:/Files/Projects/Git/XMCLib/src\xmc_dsd.c ****   /* Filter setup*/
 246:C:/Files/Projects/Git/XMCLib/src\xmc_dsd.c ****   channel->FCFGC = (decimation_factor_temp |
 247:C:/Files/Projects/Git/XMCLib/src\xmc_dsd.c **** 		  (filter_start_value_temp << (uint32_t)DSD_CH_FCFGC_CFMSV_Pos)|
 248:C:/Files/Projects/Git/XMCLib/src\xmc_dsd.c **** 		  config->main_filter_conf|
 257              	 .loc 1 248 0
 258 002a 42EA0343 	 orr r3,r2,r3,lsl#16
 259              	.LVL23:
 246:C:/Files/Projects/Git/XMCLib/src\xmc_dsd.c **** 		  (filter_start_value_temp << (uint32_t)DSD_CH_FCFGC_CFMSV_Pos)|
 260              	 .loc 1 246 0
 261 002e 4361     	 str r3,[r0,#20]
 262              	.LVL24:
 249:C:/Files/Projects/Git/XMCLib/src\xmc_dsd.c **** 		  (uint32_t)DSD_CH_FCFGC_CFEN_Msk);
 250:C:/Files/Projects/Git/XMCLib/src\xmc_dsd.c **** 
 251:C:/Files/Projects/Git/XMCLib/src\xmc_dsd.c ****   /* Offset */
 252:C:/Files/Projects/Git/XMCLib/src\xmc_dsd.c ****   channel->OFFM = (uint16_t)config->offset;
 263              	 .loc 1 252 0
 264 0030 4B88     	 ldrh r3,[r1,#2]
 265 0032 8363     	 str r3,[r0,#56]
 266 0034 7047     	 bx lr
 267              	 .cfi_endproc
 268              	.LFE201:
 270 0036 00BF     	 .section .text.XMC_DSD_CH_Timestamp_Init,"ax",%progbits
 271              	 .align 2
 272              	 .global XMC_DSD_CH_Timestamp_Init
 273              	 .thumb
 274              	 .thumb_func
 276              	XMC_DSD_CH_Timestamp_Init:
 277              	.LFB202:
 253:C:/Files/Projects/Git/XMCLib/src\xmc_dsd.c **** }
 254:C:/Files/Projects/Git/XMCLib/src\xmc_dsd.c **** 
 255:C:/Files/Projects/Git/XMCLib/src\xmc_dsd.c **** /* Initialize timestamp mode of DSD */
 256:C:/Files/Projects/Git/XMCLib/src\xmc_dsd.c **** void XMC_DSD_CH_Timestamp_Init(XMC_DSD_CH_t *const channel, const XMC_DSD_CH_TIMESTAMP_CONFIG_t *co
 257:C:/Files/Projects/Git/XMCLib/src\xmc_dsd.c **** {
 278              	 .loc 1 257 0
 279              	 .cfi_startproc
 280              	 
 281              	 
 282              	 
 283              	.LVL25:
 258:C:/Files/Projects/Git/XMCLib/src\xmc_dsd.c ****   uint32_t temp;
 259:C:/Files/Projects/Git/XMCLib/src\xmc_dsd.c ****   XMC_ASSERT("XMC_DSD_MAIN_FILTER_Init:Invalid module pointer", XMC_DSD_CHECK_CHANNEL_PTR(channel))
 260:C:/Files/Projects/Git/XMCLib/src\xmc_dsd.c ****   XMC_ASSERT("XMC_DSD_MAIN_FILTER_Init:NULL Pointer", (config != (XMC_DSD_CH_TIMESTAMP_CONFIG_t *)N
 261:C:/Files/Projects/Git/XMCLib/src\xmc_dsd.c **** 
 262:C:/Files/Projects/Git/XMCLib/src\xmc_dsd.c ****   temp = (channel->DICFG | (uint32_t)DSD_CH_DICFG_TRWC_Msk);
 284              	 .loc 1 262 0
 285 0000 8368     	 ldr r3,[r0,#8]
 286              	.LVL26:
 287 0002 0A68     	 ldr r2,[r1]
 288 0004 42F40042 	 orr r2,r2,#32768
 263:C:/Files/Projects/Git/XMCLib/src\xmc_dsd.c ****   temp &= ~((uint32_t)DSD_CH_DICFG_TSTRMODE_Msk|(uint32_t)DSD_CH_DICFG_TRSEL_Msk);
 289              	 .loc 1 263 0
 290 0008 23F4F843 	 bic r3,r3,#31744
 291              	.LVL27:
 264:C:/Files/Projects/Git/XMCLib/src\xmc_dsd.c ****   temp |= config->timestamp_conf;
 292              	 .loc 1 264 0
 293 000c 1343     	 orrs r3,r3,r2
 294              	.LVL28:
 265:C:/Files/Projects/Git/XMCLib/src\xmc_dsd.c ****   channel->DICFG = temp;
 295              	 .loc 1 265 0
 296 000e 8360     	 str r3,[r0,#8]
 297 0010 7047     	 bx lr
 298              	 .cfi_endproc
 299              	.LFE202:
 301 0012 00BF     	 .section .text.XMC_DSD_CH_AuxFilter_Init,"ax",%progbits
 302              	 .align 2
 303              	 .global XMC_DSD_CH_AuxFilter_Init
 304              	 .thumb
 305              	 .thumb_func
 307              	XMC_DSD_CH_AuxFilter_Init:
 308              	.LFB203:
 266:C:/Files/Projects/Git/XMCLib/src\xmc_dsd.c **** }
 267:C:/Files/Projects/Git/XMCLib/src\xmc_dsd.c **** 
 268:C:/Files/Projects/Git/XMCLib/src\xmc_dsd.c **** /* Initialize auxiliary filter of DSD */
 269:C:/Files/Projects/Git/XMCLib/src\xmc_dsd.c **** void XMC_DSD_CH_AuxFilter_Init(XMC_DSD_CH_t *const channel, const XMC_DSD_CH_AUX_FILTER_CONFIG_t *c
 270:C:/Files/Projects/Git/XMCLib/src\xmc_dsd.c **** {
 309              	 .loc 1 270 0
 310              	 .cfi_startproc
 311              	 
 312              	 
 313              	 
 314              	.LVL29:
 271:C:/Files/Projects/Git/XMCLib/src\xmc_dsd.c ****   uint32_t decimation_factor_temp;
 272:C:/Files/Projects/Git/XMCLib/src\xmc_dsd.c **** 
 273:C:/Files/Projects/Git/XMCLib/src\xmc_dsd.c ****   XMC_ASSERT("XMC_DSD_AUX_FILTER_Init:Invalid module pointer", XMC_DSD_CHECK_CHANNEL_PTR(channel));
 274:C:/Files/Projects/Git/XMCLib/src\xmc_dsd.c ****   XMC_ASSERT("XMC_DSD_AUX_FILTER_Init:NULL Pointer", (config != (XMC_DSD_CH_AUX_FILTER_CONFIG_t *)N
 275:C:/Files/Projects/Git/XMCLib/src\xmc_dsd.c ****   XMC_ASSERT("XMC_DSD_AUX_FILTER_Init:Invalid Decimation Factor",
 276:C:/Files/Projects/Git/XMCLib/src\xmc_dsd.c ****       ((config->decimation_factor >= XMC_DSD_MIN_DECIMATION_FACTOR) && (config->decimation_factor <
 277:C:/Files/Projects/Git/XMCLib/src\xmc_dsd.c **** 
 278:C:/Files/Projects/Git/XMCLib/src\xmc_dsd.c ****   channel->BOUNDSEL = config->boundary_conf;
 315              	 .loc 1 278 0
 316 0000 4B68     	 ldr r3,[r1,#4]
 317 0002 8362     	 str r3,[r0,#40]
 318              	.LVL30:
 279:C:/Files/Projects/Git/XMCLib/src\xmc_dsd.c ****   /*The decimation factor of the Aux CIC filter is CFMDF + 1.*/
 280:C:/Files/Projects/Git/XMCLib/src\xmc_dsd.c ****   decimation_factor_temp = config->decimation_factor-1U;
 319              	 .loc 1 280 0
 320 0004 8B68     	 ldr r3,[r1,#8]
 321 0006 5A1E     	 subs r2,r3,#1
 322              	.LVL31:
 281:C:/Files/Projects/Git/XMCLib/src\xmc_dsd.c ****   channel->FCFGA = (decimation_factor_temp | config->aux_filter_conf);
 323              	 .loc 1 281 0
 324 0008 0B68     	 ldr r3,[r1]
 325 000a 1343     	 orrs r3,r3,r2
 326 000c 8361     	 str r3,[r0,#24]
 327 000e 7047     	 bx lr
 328              	 .cfi_endproc
 329              	.LFE203:
 331              	 .section .text.XMC_DSD_CH_Integrator_Init,"ax",%progbits
 332              	 .align 2
 333              	 .global XMC_DSD_CH_Integrator_Init
 334              	 .thumb
 335              	 .thumb_func
 337              	XMC_DSD_CH_Integrator_Init:
 338              	.LFB204:
 282:C:/Files/Projects/Git/XMCLib/src\xmc_dsd.c **** }
 283:C:/Files/Projects/Git/XMCLib/src\xmc_dsd.c **** 
 284:C:/Files/Projects/Git/XMCLib/src\xmc_dsd.c **** /* Integrator initialization of DSD */
 285:C:/Files/Projects/Git/XMCLib/src\xmc_dsd.c **** void XMC_DSD_CH_Integrator_Init(XMC_DSD_CH_t *const channel, const XMC_DSD_CH_INTEGRATOR_CONFIG_t *
 286:C:/Files/Projects/Git/XMCLib/src\xmc_dsd.c **** {
 339              	 .loc 1 286 0
 340              	 .cfi_startproc
 341              	 
 342              	 
 343              	 
 344              	.LVL32:
 345 0000 10B4     	 push {r4}
 346              	.LCFI4:
 347              	 .cfi_def_cfa_offset 4
 348              	 .cfi_offset 4,-4
 287:C:/Files/Projects/Git/XMCLib/src\xmc_dsd.c ****   uint32_t temp;
 288:C:/Files/Projects/Git/XMCLib/src\xmc_dsd.c ****   XMC_ASSERT("XMC_DSD_INTEGRATOR_Init:Invalid module pointer", XMC_DSD_CHECK_CHANNEL_PTR(channel));
 289:C:/Files/Projects/Git/XMCLib/src\xmc_dsd.c ****   XMC_ASSERT("XMC_DSD_INTEGRATOR_Init:NULL Pointer", (config != (XMC_DSD_CH_INTEGRATOR_CONFIG_t *)N
 290:C:/Files/Projects/Git/XMCLib/src\xmc_dsd.c ****   XMC_ASSERT("XMC_DSD_INTEGRATOR_Init:Invalid integration_loop", (config->integration_loop > 0U ));
 291:C:/Files/Projects/Git/XMCLib/src\xmc_dsd.c ****   XMC_ASSERT("XMC_DSD_INTEGRATOR_Init:Invalid counted_values", (config->counted_values > 0U ));
 292:C:/Files/Projects/Git/XMCLib/src\xmc_dsd.c **** 
 293:C:/Files/Projects/Git/XMCLib/src\xmc_dsd.c ****   channel->IWCTR = ((config->integration_loop - 1U) << DSD_CH_IWCTR_REPVAL_Pos)
 294:C:/Files/Projects/Git/XMCLib/src\xmc_dsd.c ****                    | (config->discarded_values << DSD_CH_IWCTR_NVALDIS_Pos)
 295:C:/Files/Projects/Git/XMCLib/src\xmc_dsd.c ****                    | (config->stop_condition << DSD_CH_IWCTR_IWS_Pos)
 349              	 .loc 1 295 0
 350 0002 CA68     	 ldr r2,[r1,#12]
 294:C:/Files/Projects/Git/XMCLib/src\xmc_dsd.c ****                    | (config->stop_condition << DSD_CH_IWCTR_IWS_Pos)
 351              	 .loc 1 294 0
 352 0004 8B68     	 ldr r3,[r1,#8]
 353 0006 1B04     	 lsls r3,r3,#16
 354 0008 43EAC254 	 orr r4,r3,r2,lsl#23
 293:C:/Files/Projects/Git/XMCLib/src\xmc_dsd.c ****                    | (config->discarded_values << DSD_CH_IWCTR_NVALDIS_Pos)
 355              	 .loc 1 293 0
 356 000c 4B68     	 ldr r3,[r1,#4]
 357 000e 013B     	 subs r3,r3,#1
 358              	 .loc 1 295 0
 359 0010 44EA0332 	 orr r2,r4,r3,lsl#12
 296:C:/Files/Projects/Git/XMCLib/src\xmc_dsd.c ****                    | ((config->counted_values - 1U) << DSD_CH_IWCTR_NVALINT_Pos);
 360              	 .loc 1 296 0
 361 0014 0B69     	 ldr r3,[r1,#16]
 362 0016 013B     	 subs r3,r3,#1
 363 0018 42EA0363 	 orr r3,r2,r3,lsl#24
 293:C:/Files/Projects/Git/XMCLib/src\xmc_dsd.c ****                    | (config->discarded_values << DSD_CH_IWCTR_NVALDIS_Pos)
 364              	 .loc 1 293 0
 365 001c 0362     	 str r3,[r0,#32]
 297:C:/Files/Projects/Git/XMCLib/src\xmc_dsd.c **** 
 298:C:/Files/Projects/Git/XMCLib/src\xmc_dsd.c ****   /*To ensure proper operation, ensure that bit field ITRMODE is zero before selecting any other tr
 299:C:/Files/Projects/Git/XMCLib/src\xmc_dsd.c ****   temp = (channel->DICFG & ~((uint32_t)DSD_CH_DICFG_ITRMODE_Msk|(uint32_t)DSD_CH_DICFG_TRSEL_Msk)) 
 366              	 .loc 1 299 0
 367 001e 8368     	 ldr r3,[r0,#8]
 368 0020 23F47343 	 bic r3,r3,#62208
 369 0024 43F40043 	 orr r3,r3,#32768
 370              	.LVL33:
 300:C:/Files/Projects/Git/XMCLib/src\xmc_dsd.c **** 
 301:C:/Files/Projects/Git/XMCLib/src\xmc_dsd.c ****   channel->DICFG = temp;
 371              	 .loc 1 301 0
 372 0028 8360     	 str r3,[r0,#8]
 302:C:/Files/Projects/Git/XMCLib/src\xmc_dsd.c **** 
 303:C:/Files/Projects/Git/XMCLib/src\xmc_dsd.c ****   temp |=  config->integrator_trigger;
 373              	 .loc 1 303 0
 374 002a 0A68     	 ldr r2,[r1]
 375 002c 1343     	 orrs r3,r3,r2
 376              	.LVL34:
 304:C:/Files/Projects/Git/XMCLib/src\xmc_dsd.c ****   channel->DICFG = temp;
 377              	 .loc 1 304 0
 378 002e 8360     	 str r3,[r0,#8]
 305:C:/Files/Projects/Git/XMCLib/src\xmc_dsd.c **** }
 379              	 .loc 1 305 0
 380 0030 5DF8044B 	 ldr r4,[sp],#4
 381              	.LCFI5:
 382              	 .cfi_restore 4
 383              	 .cfi_def_cfa_offset 0
 384 0034 7047     	 bx lr
 385              	 .cfi_endproc
 386              	.LFE204:
 388 0036 00BF     	 .section .text.XMC_DSD_CH_Rectify_Init,"ax",%progbits
 389              	 .align 2
 390              	 .global XMC_DSD_CH_Rectify_Init
 391              	 .thumb
 392              	 .thumb_func
 394              	XMC_DSD_CH_Rectify_Init:
 395              	.LFB205:
 306:C:/Files/Projects/Git/XMCLib/src\xmc_dsd.c **** 
 307:C:/Files/Projects/Git/XMCLib/src\xmc_dsd.c **** /* Rectifier initialization of DSD */
 308:C:/Files/Projects/Git/XMCLib/src\xmc_dsd.c **** void XMC_DSD_CH_Rectify_Init(XMC_DSD_CH_t *const channel, const XMC_DSD_CH_RECTIFY_CONFIG_t *const 
 309:C:/Files/Projects/Git/XMCLib/src\xmc_dsd.c **** {
 396              	 .loc 1 309 0
 397              	 .cfi_startproc
 398              	 
 399              	 
 400              	 
 401              	.LVL35:
 310:C:/Files/Projects/Git/XMCLib/src\xmc_dsd.c ****   XMC_ASSERT("XMC_DSD_RECTIFY_Init:Invalid module pointer", XMC_DSD_CHECK_CHANNEL_PTR(channel));
 311:C:/Files/Projects/Git/XMCLib/src\xmc_dsd.c ****   XMC_ASSERT("XMC_DSD_RECTIFY_Init:NULL Pointer", (config != (XMC_DSD_CH_RECTIFY_CONFIG_t *)NULL));
 312:C:/Files/Projects/Git/XMCLib/src\xmc_dsd.c ****   XMC_ASSERT("XMC_DSD_RECTIFY_Init:NULL Pointer", (((uint16_t)config->delay + (uint16_t)config->hal
 313:C:/Files/Projects/Git/XMCLib/src\xmc_dsd.c **** 
 314:C:/Files/Projects/Git/XMCLib/src\xmc_dsd.c ****   channel->RECTCFG = config->rectify_config | (uint32_t)DSD_CH_RECTCFG_RFEN_Msk;
 402              	 .loc 1 314 0
 403 0000 0B68     	 ldr r3,[r1]
 404 0002 43F00103 	 orr r3,r3,#1
 405 0006 C0F8A830 	 str r3,[r0,#168]
 315:C:/Files/Projects/Git/XMCLib/src\xmc_dsd.c ****   channel->CGSYNC = (((uint32_t) config->delay << (uint32_t)DSD_CH_CGSYNC_SDPOS_Pos)
 406              	 .loc 1 315 0
 407 000a 0B79     	 ldrb r3,[r1,#4]
 316:C:/Files/Projects/Git/XMCLib/src\xmc_dsd.c ****                       | (((uint32_t)config->delay + (uint32_t)config->half_cycle) << (uint32_t)DSD_
 408              	 .loc 1 316 0
 409 000c 4A79     	 ldrb r2,[r1,#5]
 410 000e 1A44     	 add r2,r2,r3
 315:C:/Files/Projects/Git/XMCLib/src\xmc_dsd.c ****   channel->CGSYNC = (((uint32_t) config->delay << (uint32_t)DSD_CH_CGSYNC_SDPOS_Pos)
 411              	 .loc 1 315 0
 412 0010 1B04     	 lsls r3,r3,#16
 413              	 .loc 1 316 0
 414 0012 43EA0263 	 orr r3,r3,r2,lsl#24
 315:C:/Files/Projects/Git/XMCLib/src\xmc_dsd.c ****   channel->CGSYNC = (((uint32_t) config->delay << (uint32_t)DSD_CH_CGSYNC_SDPOS_Pos)
 415              	 .loc 1 315 0
 416 0016 C0F8A030 	 str r3,[r0,#160]
 417 001a 7047     	 bx lr
 418              	 .cfi_endproc
 419              	.LFE205:
 421              	 .section .text.XMC_DSD_CH_Init,"ax",%progbits
 422              	 .align 2
 423              	 .global XMC_DSD_CH_Init
 424              	 .thumb
 425              	 .thumb_func
 427              	XMC_DSD_CH_Init:
 428              	.LFB200:
 186:C:/Files/Projects/Git/XMCLib/src\xmc_dsd.c ****   XMC_DSD_STATUS_t status;
 429              	 .loc 1 186 0
 430              	 .cfi_startproc
 431              	 
 432              	 
 433              	.LVL36:
 434 0000 38B5     	 push {r3,r4,r5,lr}
 435              	.LCFI6:
 436              	 .cfi_def_cfa_offset 16
 437              	 .cfi_offset 3,-16
 438              	 .cfi_offset 4,-12
 439              	 .cfi_offset 5,-8
 440              	 .cfi_offset 14,-4
 441 0002 0C46     	 mov r4,r1
 192:C:/Files/Projects/Git/XMCLib/src\xmc_dsd.c ****   {
 442              	 .loc 1 192 0
 443 0004 0968     	 ldr r1,[r1]
 444              	.LVL37:
 445 0006 C1B1     	 cbz r1,.L23
 446 0008 0546     	 mov r5,r0
 194:C:/Files/Projects/Git/XMCLib/src\xmc_dsd.c **** 
 447              	 .loc 1 194 0
 448 000a FFF7FEFF 	 bl XMC_DSD_CH_MainFilter_Init
 449              	.LVL38:
 196:C:/Files/Projects/Git/XMCLib/src\xmc_dsd.c ****     {
 450              	 .loc 1 196 0
 451 000e E168     	 ldr r1,[r4,#12]
 452 0010 11B1     	 cbz r1,.L20
 198:C:/Files/Projects/Git/XMCLib/src\xmc_dsd.c ****     }
 453              	 .loc 1 198 0
 454 0012 2846     	 mov r0,r5
 455 0014 FFF7FEFF 	 bl XMC_DSD_CH_AuxFilter_Init
 456              	.LVL39:
 457              	.L20:
 200:C:/Files/Projects/Git/XMCLib/src\xmc_dsd.c ****     {
 458              	 .loc 1 200 0
 459 0018 6168     	 ldr r1,[r4,#4]
 460 001a 11B1     	 cbz r1,.L21
 202:C:/Files/Projects/Git/XMCLib/src\xmc_dsd.c ****     }
 461              	 .loc 1 202 0
 462 001c 2846     	 mov r0,r5
 463 001e FFF7FEFF 	 bl XMC_DSD_CH_Integrator_Init
 464              	.LVL40:
 465              	.L21:
 204:C:/Files/Projects/Git/XMCLib/src\xmc_dsd.c ****     {
 466              	 .loc 1 204 0
 467 0022 2169     	 ldr r1,[r4,#16]
 468 0024 11B1     	 cbz r1,.L22
 206:C:/Files/Projects/Git/XMCLib/src\xmc_dsd.c ****     }
 469              	 .loc 1 206 0
 470 0026 2846     	 mov r0,r5
 471 0028 FFF7FEFF 	 bl XMC_DSD_CH_Rectify_Init
 472              	.LVL41:
 473              	.L22:
 208:C:/Files/Projects/Git/XMCLib/src\xmc_dsd.c ****     {
 474              	 .loc 1 208 0
 475 002c A168     	 ldr r1,[r4,#8]
 476 002e 31B1     	 cbz r1,.L24
 210:C:/Files/Projects/Git/XMCLib/src\xmc_dsd.c ****     }
 477              	 .loc 1 210 0
 478 0030 2846     	 mov r0,r5
 479 0032 FFF7FEFF 	 bl XMC_DSD_CH_Timestamp_Init
 480              	.LVL42:
 212:C:/Files/Projects/Git/XMCLib/src\xmc_dsd.c ****   }
 481              	 .loc 1 212 0
 482 0036 0020     	 movs r0,#0
 483 0038 38BD     	 pop {r3,r4,r5,pc}
 484              	.LVL43:
 485              	.L23:
 216:C:/Files/Projects/Git/XMCLib/src\xmc_dsd.c ****   }
 486              	 .loc 1 216 0
 487 003a 0120     	 movs r0,#1
 488              	.LVL44:
 489 003c 38BD     	 pop {r3,r4,r5,pc}
 490              	.LVL45:
 491              	.L24:
 212:C:/Files/Projects/Git/XMCLib/src\xmc_dsd.c ****   }
 492              	 .loc 1 212 0
 493 003e 0020     	 movs r0,#0
 494              	.LVL46:
 220:C:/Files/Projects/Git/XMCLib/src\xmc_dsd.c **** 
 495              	 .loc 1 220 0
 496 0040 38BD     	 pop {r3,r4,r5,pc}
 497              	 .cfi_endproc
 498              	.LFE200:
 500 0042 00BF     	 .section .text.XMC_DSD_CH_GetResult_TS,"ax",%progbits
 501              	 .align 2
 502              	 .global XMC_DSD_CH_GetResult_TS
 503              	 .thumb
 504              	 .thumb_func
 506              	XMC_DSD_CH_GetResult_TS:
 507              	.LFB206:
 317:C:/Files/Projects/Git/XMCLib/src\xmc_dsd.c **** }
 318:C:/Files/Projects/Git/XMCLib/src\xmc_dsd.c **** 
 319:C:/Files/Projects/Git/XMCLib/src\xmc_dsd.c **** /* API to get the result of the last conversion */
 320:C:/Files/Projects/Git/XMCLib/src\xmc_dsd.c **** void XMC_DSD_CH_GetResult_TS(XMC_DSD_CH_t* const channel,
 321:C:/Files/Projects/Git/XMCLib/src\xmc_dsd.c ****                              int16_t* dsd_result,
 322:C:/Files/Projects/Git/XMCLib/src\xmc_dsd.c ****                              uint8_t* dsd_filter_count,
 323:C:/Files/Projects/Git/XMCLib/src\xmc_dsd.c ****                              uint8_t* dsd_integration_count)
 324:C:/Files/Projects/Git/XMCLib/src\xmc_dsd.c **** {
 508              	 .loc 1 324 0
 509              	 .cfi_startproc
 510              	 
 511              	 
 512              	 
 513              	.LVL47:
 325:C:/Files/Projects/Git/XMCLib/src\xmc_dsd.c ****   uint32_t timestamp;
 326:C:/Files/Projects/Git/XMCLib/src\xmc_dsd.c ****   uint16_t result;
 327:C:/Files/Projects/Git/XMCLib/src\xmc_dsd.c **** 
 328:C:/Files/Projects/Git/XMCLib/src\xmc_dsd.c ****   timestamp = channel->TSTMP;
 514              	 .loc 1 328 0
 515 0000 006D     	 ldr r0,[r0,#80]
 516              	.LVL48:
 329:C:/Files/Projects/Git/XMCLib/src\xmc_dsd.c ****   result = (uint16_t)((uint32_t)timestamp & DSD_CH_TSTMP_RESULT_Msk);
 330:C:/Files/Projects/Git/XMCLib/src\xmc_dsd.c ****   *dsd_result = (int16_t)(result);
 517              	 .loc 1 330 0
 518 0002 0880     	 strh r0,[r1]
 331:C:/Files/Projects/Git/XMCLib/src\xmc_dsd.c ****   *dsd_filter_count = (uint8_t) ((timestamp & (uint32_t)DSD_CH_TSTMP_CFMDCNT_Msk)>>(uint32_t)DSD_CH
 519              	 .loc 1 331 0
 520 0004 C0F30741 	 ubfx r1,r0,#16,#8
 521              	.LVL49:
 522 0008 1170     	 strb r1,[r2]
 332:C:/Files/Projects/Git/XMCLib/src\xmc_dsd.c ****   *dsd_integration_count = (uint8_t) ((timestamp & (uint32_t)DSD_CH_TSTMP_NVALCNT_Msk)>>(uint32_t)D
 523              	 .loc 1 332 0
 524 000a C0F30560 	 ubfx r0,r0,#24,#6
 525              	.LVL50:
 526 000e 1870     	 strb r0,[r3]
 527 0010 7047     	 bx lr
 528              	 .cfi_endproc
 529              	.LFE206:
 531 0012 00BF     	 .section .text.XMC_DSD_CH_GetResult_TS_Time,"ax",%progbits
 532              	 .align 2
 533              	 .global XMC_DSD_CH_GetResult_TS_Time
 534              	 .thumb
 535              	 .thumb_func
 537              	XMC_DSD_CH_GetResult_TS_Time:
 538              	.LFB207:
 333:C:/Files/Projects/Git/XMCLib/src\xmc_dsd.c **** }
 334:C:/Files/Projects/Git/XMCLib/src\xmc_dsd.c **** 
 335:C:/Files/Projects/Git/XMCLib/src\xmc_dsd.c **** /* API to get the result of the last conversion with the time */
 336:C:/Files/Projects/Git/XMCLib/src\xmc_dsd.c **** void XMC_DSD_CH_GetResult_TS_Time(XMC_DSD_CH_t* const channel, int16_t* dsd_Result, uint32_t* time)
 337:C:/Files/Projects/Git/XMCLib/src\xmc_dsd.c **** {
 539              	 .loc 1 337 0
 540              	 .cfi_startproc
 541              	 
 542              	 
 543              	 
 544              	.LVL51:
 545 0000 70B4     	 push {r4,r5,r6}
 546              	.LCFI7:
 547              	 .cfi_def_cfa_offset 12
 548              	 .cfi_offset 4,-12
 549              	 .cfi_offset 5,-8
 550              	 .cfi_offset 6,-4
 338:C:/Files/Projects/Git/XMCLib/src\xmc_dsd.c ****   uint32_t timestamp;
 339:C:/Files/Projects/Git/XMCLib/src\xmc_dsd.c ****   uint16_t filter_count;
 340:C:/Files/Projects/Git/XMCLib/src\xmc_dsd.c ****   uint16_t integrator_count;
 341:C:/Files/Projects/Git/XMCLib/src\xmc_dsd.c ****   uint16_t decimation;
 342:C:/Files/Projects/Git/XMCLib/src\xmc_dsd.c ****   uint16_t result;
 343:C:/Files/Projects/Git/XMCLib/src\xmc_dsd.c **** 
 344:C:/Files/Projects/Git/XMCLib/src\xmc_dsd.c ****   timestamp = channel->TSTMP;
 551              	 .loc 1 344 0
 552 0002 046D     	 ldr r4,[r0,#80]
 553              	.LVL52:
 345:C:/Files/Projects/Git/XMCLib/src\xmc_dsd.c ****   decimation = (uint16_t)(channel->FCFGC & DSD_CH_FCFGC_CFMDF_Msk);
 554              	 .loc 1 345 0
 555 0004 4369     	 ldr r3,[r0,#20]
 556 0006 DBB2     	 uxtb r3,r3
 557              	.LVL53:
 346:C:/Files/Projects/Git/XMCLib/src\xmc_dsd.c ****   filter_count = (uint16_t)((timestamp & DSD_CH_TSTMP_CFMDCNT_Msk)>>DSD_CH_TSTMP_CFMDCNT_Pos);
 558              	 .loc 1 346 0
 559 0008 C4F30745 	 ubfx r5,r4,#16,#8
 560              	.LVL54:
 347:C:/Files/Projects/Git/XMCLib/src\xmc_dsd.c **** 
 348:C:/Files/Projects/Git/XMCLib/src\xmc_dsd.c ****   /* Integration enabled? */
 349:C:/Files/Projects/Git/XMCLib/src\xmc_dsd.c ****   if ((channel->IWCTR & DSD_CH_IWCTR_INTEN_Msk))
 561              	 .loc 1 349 0
 562 000c 006A     	 ldr r0,[r0,#32]
 563              	.LVL55:
 564 000e 10F0800F 	 tst r0,#128
 565 0012 0BD0     	 beq .L28
 350:C:/Files/Projects/Git/XMCLib/src\xmc_dsd.c ****   {
 351:C:/Files/Projects/Git/XMCLib/src\xmc_dsd.c ****     integrator_count = (uint16_t) ((timestamp & DSD_CH_TSTMP_NVALCNT_Msk)>>DSD_CH_TSTMP_NVALCNT_Pos
 566              	 .loc 1 351 0
 567 0014 C4F30560 	 ubfx r0,r4,#24,#6
 568              	.LVL56:
 352:C:/Files/Projects/Git/XMCLib/src\xmc_dsd.c **** 
 353:C:/Files/Projects/Git/XMCLib/src\xmc_dsd.c ****     /*See Errata number: xxyy */
 354:C:/Files/Projects/Git/XMCLib/src\xmc_dsd.c ****     if (filter_count == decimation)
 569              	 .loc 1 354 0
 570 0018 AEB2     	 uxth r6,r5
 571 001a 9E42     	 cmp r6,r3
 355:C:/Files/Projects/Git/XMCLib/src\xmc_dsd.c ****     {
 356:C:/Files/Projects/Git/XMCLib/src\xmc_dsd.c ****       integrator_count++;
 572              	 .loc 1 356 0
 573 001c 08BF     	 it eq
 574 001e 0130     	 addeq r0,r0,#1
 575              	.LVL57:
 357:C:/Files/Projects/Git/XMCLib/src\xmc_dsd.c ****     }
 358:C:/Files/Projects/Git/XMCLib/src\xmc_dsd.c ****     *time = (uint32_t)(((uint32_t) integrator_count * ((uint32_t) decimation + 1U)) + (uint32_t) ((
 576              	 .loc 1 358 0
 577 0020 5D1B     	 subs r5,r3,r5
 578              	.LVL58:
 579 0022 03FB0000 	 mla r0,r3,r0,r0
 580              	.LVL59:
 581 0026 2B18     	 adds r3,r5,r0
 582              	.LVL60:
 583 0028 1360     	 str r3,[r2]
 584 002a 01E0     	 b .L30
 585              	.LVL61:
 586              	.L28:
 359:C:/Files/Projects/Git/XMCLib/src\xmc_dsd.c ****   }
 360:C:/Files/Projects/Git/XMCLib/src\xmc_dsd.c ****   else
 361:C:/Files/Projects/Git/XMCLib/src\xmc_dsd.c ****   {
 362:C:/Files/Projects/Git/XMCLib/src\xmc_dsd.c ****     *time = (uint32_t) ((uint32_t)decimation - filter_count);
 587              	 .loc 1 362 0
 588 002c 5B1B     	 subs r3,r3,r5
 589              	.LVL62:
 590 002e 1360     	 str r3,[r2]
 591              	.LVL63:
 592              	.L30:
 363:C:/Files/Projects/Git/XMCLib/src\xmc_dsd.c ****   }
 364:C:/Files/Projects/Git/XMCLib/src\xmc_dsd.c ****   result = (uint16_t)((uint32_t)timestamp & DSD_CH_TSTMP_RESULT_Msk);
 365:C:/Files/Projects/Git/XMCLib/src\xmc_dsd.c ****   *dsd_Result = (int16_t)(result);
 593              	 .loc 1 365 0
 594 0030 0C80     	 strh r4,[r1]
 366:C:/Files/Projects/Git/XMCLib/src\xmc_dsd.c **** }
 595              	 .loc 1 366 0
 596 0032 70BC     	 pop {r4,r5,r6}
 597              	.LCFI8:
 598              	 .cfi_restore 6
 599              	 .cfi_restore 5
 600              	 .cfi_restore 4
 601              	 .cfi_def_cfa_offset 0
 602              	.LVL64:
 603 0034 7047     	 bx lr
 604              	 .cfi_endproc
 605              	.LFE207:
 607 0036 00BF     	 .text
 608              	.Letext0:
 609              	 .file 2 "c:\\dave\\dave-ide-4.4.2-64bit\\eclipse\\arm-gcc-49\\arm-none-eabi\\include\\machine\\_default_types.h"
 610              	 .file 3 "c:\\dave\\dave-ide-4.4.2-64bit\\eclipse\\arm-gcc-49\\arm-none-eabi\\include\\stdint.h"
 611              	 .file 4 "C:/Files/Projects/Git/CMSIS/Infineon/XMC4500_series/Include/XMC4500.h"
 612              	 .file 5 "C:/Files/Projects/Git/XMCLib/inc/xmc4_scu.h"
 613              	 .file 6 "C:/Files/Projects/Git/XMCLib/inc/xmc_dsd.h"
 614              	 .file 7 "C:/Files/Projects/Git/CMSIS/Include/cmsis_gcc.h"
 615              	 .file 8 "C:/Files/Projects/Git/CMSIS/Include/core_cm4.h"
 616              	 .file 9 "C:/Files/Projects/Git/CMSIS/Infineon/XMC4500_series/Include/system_XMC4500.h"