   1              	 .syntax unified
   2              	 .cpu cortex-m4
   3              	 .eabi_attribute 27,3
   4              	 .fpu fpv4-sp-d16
   5              	 .eabi_attribute 20,1
   6              	 .eabi_attribute 21,1
   7              	 .eabi_attribute 23,3
   8              	 .eabi_attribute 24,1
   9              	 .eabi_attribute 25,1
  10              	 .eabi_attribute 26,1
  11              	 .eabi_attribute 30,1
  12              	 .eabi_attribute 34,1
  13              	 .eabi_attribute 18,4
  14              	 .thumb
  15              	 .file "xmc_usbd.c"
  16              	 .text
  17              	.Ltext0:
  18              	 .cfi_sections .debug_frame
  19              	 .section .text.XMC_USBD_lReadFifo,"ax",%progbits
  20              	 .align 2
  21              	 .thumb
  22              	 .thumb_func
  24              	XMC_USBD_lReadFifo:
  25              	.LFB176:
  26              	 .file 1 "C:/Files/Projects/Git/XMCLib/src/xmc_usbd.c"
   1:C:/Files/Projects/Git/XMCLib/src\xmc_usbd.c **** /**
   2:C:/Files/Projects/Git/XMCLib/src\xmc_usbd.c ****  * @file xmc_usbd.c
   3:C:/Files/Projects/Git/XMCLib/src\xmc_usbd.c ****  * @date 2015-06-20
   4:C:/Files/Projects/Git/XMCLib/src\xmc_usbd.c ****  *
   5:C:/Files/Projects/Git/XMCLib/src\xmc_usbd.c ****  * @cond
   6:C:/Files/Projects/Git/XMCLib/src\xmc_usbd.c ****  **********************************************************************************
   7:C:/Files/Projects/Git/XMCLib/src\xmc_usbd.c ****  * XMClib v2.1.24 - XMC Peripheral Driver Library 
   8:C:/Files/Projects/Git/XMCLib/src\xmc_usbd.c ****  *
   9:C:/Files/Projects/Git/XMCLib/src\xmc_usbd.c ****  * Copyright (c) 2015-2019, Infineon Technologies AG
  10:C:/Files/Projects/Git/XMCLib/src\xmc_usbd.c ****  * All rights reserved.                        
  11:C:/Files/Projects/Git/XMCLib/src\xmc_usbd.c ****  *                                             
  12:C:/Files/Projects/Git/XMCLib/src\xmc_usbd.c ****  * Redistribution and use in source and binary forms, with or without           
  13:C:/Files/Projects/Git/XMCLib/src\xmc_usbd.c ****  * modification,are permitted provided that the following conditions are met:   
  14:C:/Files/Projects/Git/XMCLib/src\xmc_usbd.c ****  *                                                                              
  15:C:/Files/Projects/Git/XMCLib/src\xmc_usbd.c ****  *   Redistributions of source code must retain the above copyright notice,      
  16:C:/Files/Projects/Git/XMCLib/src\xmc_usbd.c ****  *   this list of conditions and the following disclaimer.                        
  17:C:/Files/Projects/Git/XMCLib/src\xmc_usbd.c ****  * 
  18:C:/Files/Projects/Git/XMCLib/src\xmc_usbd.c ****  *   Redistributions in binary form must reproduce the above copyright notice,   
  19:C:/Files/Projects/Git/XMCLib/src\xmc_usbd.c ****  *   this list of conditions and the following disclaimer in the documentation    
  20:C:/Files/Projects/Git/XMCLib/src\xmc_usbd.c ****  *   and/or other materials provided with the distribution.                       
  21:C:/Files/Projects/Git/XMCLib/src\xmc_usbd.c ****  * 
  22:C:/Files/Projects/Git/XMCLib/src\xmc_usbd.c ****  *   Neither the name of the copyright holders nor the names of its contributors 
  23:C:/Files/Projects/Git/XMCLib/src\xmc_usbd.c ****  *   may be used to endorse or promote products derived from this software without
  24:C:/Files/Projects/Git/XMCLib/src\xmc_usbd.c ****  *   specific prior written permission.                                           
  25:C:/Files/Projects/Git/XMCLib/src\xmc_usbd.c ****  *                                                                              
  26:C:/Files/Projects/Git/XMCLib/src\xmc_usbd.c ****  * THIS SOFTWARE IS PROVIDED BY THE COPYRIGHT HOLDERS AND CONTRIBUTORS "AS IS"  
  27:C:/Files/Projects/Git/XMCLib/src\xmc_usbd.c ****  * AND ANY EXPRESS OR IMPLIED WARRANTIES, INCLUDING, BUT NOT LIMITED TO, THE    
  28:C:/Files/Projects/Git/XMCLib/src\xmc_usbd.c ****  * IMPLIED WARRANTIES OF MERCHANTABILITY AND FITNESS FOR A PARTICULAR PURPOSE   
  29:C:/Files/Projects/Git/XMCLib/src\xmc_usbd.c ****  * ARE  DISCLAIMED. IN NO EVENT SHALL THE COPYRIGHT HOLDER OR CONTRIBUTORS BE   
  30:C:/Files/Projects/Git/XMCLib/src\xmc_usbd.c ****  * LIABLE  FOR ANY DIRECT, INDIRECT, INCIDENTAL, SPECIAL, EXEMPLARY, OR         
  31:C:/Files/Projects/Git/XMCLib/src\xmc_usbd.c ****  * CONSEQUENTIAL DAMAGES (INCLUDING, BUT NOT LIMITED TO, PROCUREMENT OF         
  32:C:/Files/Projects/Git/XMCLib/src\xmc_usbd.c ****  * SUBSTITUTE GOODS OR  SERVICES; LOSS OF USE, DATA, OR PROFITS; OR BUSINESS    
  33:C:/Files/Projects/Git/XMCLib/src\xmc_usbd.c ****  * INTERRUPTION) HOWEVER CAUSED AND ON ANY THEORY OF LIABILITY, WHETHER IN      
  34:C:/Files/Projects/Git/XMCLib/src\xmc_usbd.c ****  * CONTRACT, STRICT LIABILITY,OR TORT (INCLUDING NEGLIGENCE OR OTHERWISE)       
  35:C:/Files/Projects/Git/XMCLib/src\xmc_usbd.c ****  * ARISING IN ANY WAY OUT OF THE USE OF THIS SOFTWARE, EVEN IF ADVISED OF THE   
  36:C:/Files/Projects/Git/XMCLib/src\xmc_usbd.c ****  * POSSIBILITY OF SUCH DAMAGE.                                                  
  37:C:/Files/Projects/Git/XMCLib/src\xmc_usbd.c ****  *                                                                              
  38:C:/Files/Projects/Git/XMCLib/src\xmc_usbd.c ****  * To improve the quality of the software, users are encouraged to share        
  39:C:/Files/Projects/Git/XMCLib/src\xmc_usbd.c ****  * modifications, enhancements or bug fixes with Infineon Technologies AG       
  40:C:/Files/Projects/Git/XMCLib/src\xmc_usbd.c ****  * dave@infineon.com).                                                          
  41:C:/Files/Projects/Git/XMCLib/src\xmc_usbd.c ****  **********************************************************************************
  42:C:/Files/Projects/Git/XMCLib/src\xmc_usbd.c ****  *
  43:C:/Files/Projects/Git/XMCLib/src\xmc_usbd.c ****  * Change History
  44:C:/Files/Projects/Git/XMCLib/src\xmc_usbd.c ****  * --------------
  45:C:/Files/Projects/Git/XMCLib/src\xmc_usbd.c ****  *
  46:C:/Files/Projects/Git/XMCLib/src\xmc_usbd.c ****  * 2015-02-16:
  47:C:/Files/Projects/Git/XMCLib/src\xmc_usbd.c ****  *     - Initial Version.<br>           
  48:C:/Files/Projects/Git/XMCLib/src\xmc_usbd.c ****  * 2015-03-18:
  49:C:/Files/Projects/Git/XMCLib/src\xmc_usbd.c ****  *     - Updated the XMC_USBD_EndpointStall() to fix issue on USB clear stall. <br>
  50:C:/Files/Projects/Git/XMCLib/src\xmc_usbd.c ****  *     - Updated the XMC_USBD_EndpointConfigure() to fix issue in EP0 configuration.<br>
  51:C:/Files/Projects/Git/XMCLib/src\xmc_usbd.c ****  *     - Updated the XMC_USBD_IRQHandler()(Removed the DAVE_CE check on SOF event).<br>
  52:C:/Files/Projects/Git/XMCLib/src\xmc_usbd.c ****  * 2015-06-20:
  53:C:/Files/Projects/Git/XMCLib/src\xmc_usbd.c ****  *     - Removed GetDriverVersion API.<br>
  54:C:/Files/Projects/Git/XMCLib/src\xmc_usbd.c ****  *     - Updated the XMC_USBD_IsEnumDone() API.<br>
  55:C:/Files/Projects/Git/XMCLib/src\xmc_usbd.c ****  *     - Updated the copy right in the file header.<br>
  56:C:/Files/Projects/Git/XMCLib/src\xmc_usbd.c ****  *     - Updated the XMC_USBD_Disable() API to gate the clock after programming the SCU registers.<
  57:C:/Files/Projects/Git/XMCLib/src\xmc_usbd.c ****  *
  58:C:/Files/Projects/Git/XMCLib/src\xmc_usbd.c ****  * @endcond 
  59:C:/Files/Projects/Git/XMCLib/src\xmc_usbd.c ****  *
  60:C:/Files/Projects/Git/XMCLib/src\xmc_usbd.c ****  */
  61:C:/Files/Projects/Git/XMCLib/src\xmc_usbd.c **** 
  62:C:/Files/Projects/Git/XMCLib/src\xmc_usbd.c **** 
  63:C:/Files/Projects/Git/XMCLib/src\xmc_usbd.c **** /*******************************************************************************
  64:C:/Files/Projects/Git/XMCLib/src\xmc_usbd.c ****  * HEADER FILES
  65:C:/Files/Projects/Git/XMCLib/src\xmc_usbd.c ****  *******************************************************************************/
  66:C:/Files/Projects/Git/XMCLib/src\xmc_usbd.c **** #include <xmc_usbd.h>
  67:C:/Files/Projects/Git/XMCLib/src\xmc_usbd.c **** 
  68:C:/Files/Projects/Git/XMCLib/src\xmc_usbd.c **** #if defined(USB0)
  69:C:/Files/Projects/Git/XMCLib/src\xmc_usbd.c **** 	
  70:C:/Files/Projects/Git/XMCLib/src\xmc_usbd.c **** /**< macro to check the maximum number of endpoints used*/
  71:C:/Files/Projects/Git/XMCLib/src\xmc_usbd.c **** #define XMC_USBD_CHECK_INPUT_MAX_NUM_EPS(usbd_max_num_eps) \
  72:C:/Files/Projects/Git/XMCLib/src\xmc_usbd.c ****   ((usbd_max_num_eps ==  XMC_USBD_MAX_NUM_EPS_1 ) || \
  73:C:/Files/Projects/Git/XMCLib/src\xmc_usbd.c ****    (usbd_max_num_eps ==  XMC_USBD_MAX_NUM_EPS_2 ) || \
  74:C:/Files/Projects/Git/XMCLib/src\xmc_usbd.c ****    (usbd_max_num_eps ==  XMC_USBD_MAX_NUM_EPS_3 ) || \
  75:C:/Files/Projects/Git/XMCLib/src\xmc_usbd.c ****    (usbd_max_num_eps ==  XMC_USBD_MAX_NUM_EPS_4 ) || \
  76:C:/Files/Projects/Git/XMCLib/src\xmc_usbd.c ****    (usbd_max_num_eps ==  XMC_USBD_MAX_NUM_EPS_5 ) || \
  77:C:/Files/Projects/Git/XMCLib/src\xmc_usbd.c ****    (usbd_max_num_eps ==  XMC_USBD_MAX_NUM_EPS_6 ) || \
  78:C:/Files/Projects/Git/XMCLib/src\xmc_usbd.c ****    (usbd_max_num_eps == XMC_USBD_MAX_NUM_EPS_7 ))
  79:C:/Files/Projects/Git/XMCLib/src\xmc_usbd.c **** 
  80:C:/Files/Projects/Git/XMCLib/src\xmc_usbd.c **** /*******************************************************************************
  81:C:/Files/Projects/Git/XMCLib/src\xmc_usbd.c ****  *GLOBAL DATA
  82:C:/Files/Projects/Git/XMCLib/src\xmc_usbd.c ****  *******************************************************************************/
  83:C:/Files/Projects/Git/XMCLib/src\xmc_usbd.c **** /*
  84:C:/Files/Projects/Git/XMCLib/src\xmc_usbd.c ****  * Endpoint Out Fifo Size
  85:C:/Files/Projects/Git/XMCLib/src\xmc_usbd.c ****  */
  86:C:/Files/Projects/Git/XMCLib/src\xmc_usbd.c **** uint32_t XMC_USBD_EP_OUT_BUFFERSIZE[7] = {0U,0U,0U,0U,0U,0U,0U};
  87:C:/Files/Projects/Git/XMCLib/src\xmc_usbd.c **** /*
  88:C:/Files/Projects/Git/XMCLib/src\xmc_usbd.c ****  * Endpoint In Fifo Size
  89:C:/Files/Projects/Git/XMCLib/src\xmc_usbd.c ****  */
  90:C:/Files/Projects/Git/XMCLib/src\xmc_usbd.c **** uint32_t XMC_USBD_EP_IN_BUFFERSIZE[7] = {0U,0U,0U,0U,0U,0U,0U};
  91:C:/Files/Projects/Git/XMCLib/src\xmc_usbd.c **** /*
  92:C:/Files/Projects/Git/XMCLib/src\xmc_usbd.c ****  * Device definition
  93:C:/Files/Projects/Git/XMCLib/src\xmc_usbd.c ****  */
  94:C:/Files/Projects/Git/XMCLib/src\xmc_usbd.c ****  XMC_USBD_DEVICE_t xmc_device;
  95:C:/Files/Projects/Git/XMCLib/src\xmc_usbd.c **** #ifdef __GNUC__															  /*GCC*/
  96:C:/Files/Projects/Git/XMCLib/src\xmc_usbd.c **** /*
  97:C:/Files/Projects/Git/XMCLib/src\xmc_usbd.c ****  * Endpoint Out Fifo
  98:C:/Files/Projects/Git/XMCLib/src\xmc_usbd.c ****  */
  99:C:/Files/Projects/Git/XMCLib/src\xmc_usbd.c **** static __attribute__((aligned(4))) uint8_t XMC_USBD_EP_OUT_BUFFER[7][256] __attribute__((section("U
 100:C:/Files/Projects/Git/XMCLib/src\xmc_usbd.c **** /*
 101:C:/Files/Projects/Git/XMCLib/src\xmc_usbd.c ****  * Endpoint In Fifo
 102:C:/Files/Projects/Git/XMCLib/src\xmc_usbd.c ****  */
 103:C:/Files/Projects/Git/XMCLib/src\xmc_usbd.c **** static __attribute__((aligned(4))) uint8_t XMC_USBD_EP_IN_BUFFER[7][256] __attribute__((section("US
 104:C:/Files/Projects/Git/XMCLib/src\xmc_usbd.c **** #endif
 105:C:/Files/Projects/Git/XMCLib/src\xmc_usbd.c **** #if defined(__ICCARM__)
 106:C:/Files/Projects/Git/XMCLib/src\xmc_usbd.c **** #pragma data_alignment=4
 107:C:/Files/Projects/Git/XMCLib/src\xmc_usbd.c **** /*
 108:C:/Files/Projects/Git/XMCLib/src\xmc_usbd.c ****  * Endpoint Out Fifo
 109:C:/Files/Projects/Git/XMCLib/src\xmc_usbd.c ****  */
 110:C:/Files/Projects/Git/XMCLib/src\xmc_usbd.c **** static uint8_t XMC_USBD_EP_OUT_BUFFER[7][256] @ ".dram";
 111:C:/Files/Projects/Git/XMCLib/src\xmc_usbd.c **** /*
 112:C:/Files/Projects/Git/XMCLib/src\xmc_usbd.c ****  * Endpoint In Fifo
 113:C:/Files/Projects/Git/XMCLib/src\xmc_usbd.c ****  */
 114:C:/Files/Projects/Git/XMCLib/src\xmc_usbd.c **** #pragma data_alignment=4
 115:C:/Files/Projects/Git/XMCLib/src\xmc_usbd.c **** static uint8_t XMC_USBD_EP_IN_BUFFER[7][256] @ ".dram";
 116:C:/Files/Projects/Git/XMCLib/src\xmc_usbd.c **** #endif
 117:C:/Files/Projects/Git/XMCLib/src\xmc_usbd.c **** #if defined(__CC_ARM)
 118:C:/Files/Projects/Git/XMCLib/src\xmc_usbd.c **** /*
 119:C:/Files/Projects/Git/XMCLib/src\xmc_usbd.c ****  * Endpoint Out Fifo
 120:C:/Files/Projects/Git/XMCLib/src\xmc_usbd.c ****  */
 121:C:/Files/Projects/Git/XMCLib/src\xmc_usbd.c **** static __attribute__((aligned(4))) uint8_t XMC_USBD_EP_OUT_BUFFER[7][256] __attribute__((section ("
 122:C:/Files/Projects/Git/XMCLib/src\xmc_usbd.c **** /*
 123:C:/Files/Projects/Git/XMCLib/src\xmc_usbd.c ****  * Endpoint In Fifo
 124:C:/Files/Projects/Git/XMCLib/src\xmc_usbd.c ****  */
 125:C:/Files/Projects/Git/XMCLib/src\xmc_usbd.c **** static __attribute__((aligned(4))) uint8_t XMC_USBD_EP_IN_BUFFER[7][256] __attribute__((section ("R
 126:C:/Files/Projects/Git/XMCLib/src\xmc_usbd.c **** #endif
 127:C:/Files/Projects/Git/XMCLib/src\xmc_usbd.c **** XMC_USBD_t *usbd_init;
 128:C:/Files/Projects/Git/XMCLib/src\xmc_usbd.c **** 
 129:C:/Files/Projects/Git/XMCLib/src\xmc_usbd.c **** /*******************************************************************************
 130:C:/Files/Projects/Git/XMCLib/src\xmc_usbd.c ****  *LOCAL ROUTINES
 131:C:/Files/Projects/Git/XMCLib/src\xmc_usbd.c ****  *******************************************************************************/
 132:C:/Files/Projects/Git/XMCLib/src\xmc_usbd.c **** /*Local routines prototypes*/
 133:C:/Files/Projects/Git/XMCLib/src\xmc_usbd.c **** uint8_t XMC_USBD_lDeviceActive(const XMC_USBD_t *const obj);
 134:C:/Files/Projects/Git/XMCLib/src\xmc_usbd.c **** static void XMC_USBD_lReadFifo(const uint32_t ep_num,const uint32_t byte_count);
 135:C:/Files/Projects/Git/XMCLib/src\xmc_usbd.c **** static uint32_t XMC_USBD_lWriteFifo(XMC_USBD_EP_t *ep);
 136:C:/Files/Projects/Git/XMCLib/src\xmc_usbd.c **** static void XMC_USBD_lFlushTXFifo(const uint8_t fifo_num);
 137:C:/Files/Projects/Git/XMCLib/src\xmc_usbd.c **** static void XMC_USBD_lFlushRXFifo(void);
 138:C:/Files/Projects/Git/XMCLib/src\xmc_usbd.c **** static uint8_t XMC_USBD_lAssignTXFifo(void);
 139:C:/Files/Projects/Git/XMCLib/src\xmc_usbd.c **** static void XMC_USBD_lStartReadXfer(XMC_USBD_EP_t *const ep);
 140:C:/Files/Projects/Git/XMCLib/src\xmc_usbd.c **** static void XMC_USBD_lStartWriteXfer(XMC_USBD_EP_t *const ep);
 141:C:/Files/Projects/Git/XMCLib/src\xmc_usbd.c **** static void XMC_USBD_lHandleEnumDone(void);
 142:C:/Files/Projects/Git/XMCLib/src\xmc_usbd.c **** static void XMC_USBD_lHandleOEPInt(const XMC_USBD_t *const obj);
 143:C:/Files/Projects/Git/XMCLib/src\xmc_usbd.c **** static void XMC_USBD_lHandleRxFLvl(void);
 144:C:/Files/Projects/Git/XMCLib/src\xmc_usbd.c **** static void XMC_USBD_lHandleIEPInt(const XMC_USBD_t *const obj);
 145:C:/Files/Projects/Git/XMCLib/src\xmc_usbd.c **** static void XMC_USBD_lUnassignFifo(const uint8_t fifo_nr);
 146:C:/Files/Projects/Git/XMCLib/src\xmc_usbd.c **** static void XMC_USBD_lHandleUSBReset(const XMC_USBD_t *const obj);
 147:C:/Files/Projects/Git/XMCLib/src\xmc_usbd.c **** static void XMC_USBD_lHandleOTGInt(void);
 148:C:/Files/Projects/Git/XMCLib/src\xmc_usbd.c **** static void XMC_USBD_lClearEventOTG(uint32_t event);
 149:C:/Files/Projects/Git/XMCLib/src\xmc_usbd.c **** 
 150:C:/Files/Projects/Git/XMCLib/src\xmc_usbd.c **** /**
 151:C:/Files/Projects/Git/XMCLib/src\xmc_usbd.c ****  *  The device driver
 152:C:/Files/Projects/Git/XMCLib/src\xmc_usbd.c ****  */
 153:C:/Files/Projects/Git/XMCLib/src\xmc_usbd.c **** const XMC_USBD_DRIVER_t Driver_USBD0 =
 154:C:/Files/Projects/Git/XMCLib/src\xmc_usbd.c **** {
 155:C:/Files/Projects/Git/XMCLib/src\xmc_usbd.c ****   .GetCapabilities = XMC_USBD_GetCapabilities,
 156:C:/Files/Projects/Git/XMCLib/src\xmc_usbd.c ****   .Initialize = XMC_USBD_Init,
 157:C:/Files/Projects/Git/XMCLib/src\xmc_usbd.c ****   .Uninitialize = XMC_USBD_Uninitialize,
 158:C:/Files/Projects/Git/XMCLib/src\xmc_usbd.c ****   .DeviceConnect = XMC_USBD_DeviceConnect,
 159:C:/Files/Projects/Git/XMCLib/src\xmc_usbd.c ****   .DeviceDisconnect = XMC_USBD_DeviceDisconnect,
 160:C:/Files/Projects/Git/XMCLib/src\xmc_usbd.c ****   .DeviceGetState = XMC_USBD_DeviceGetState,
 161:C:/Files/Projects/Git/XMCLib/src\xmc_usbd.c ****   .DeviceSetAddress = XMC_USBD_DeviceSetAddress,
 162:C:/Files/Projects/Git/XMCLib/src\xmc_usbd.c ****   .EndpointConfigure = XMC_USBD_EndpointConfigure,
 163:C:/Files/Projects/Git/XMCLib/src\xmc_usbd.c ****   .EndpointUnconfigure = XMC_USBD_EndpointUnconfigure,
 164:C:/Files/Projects/Git/XMCLib/src\xmc_usbd.c ****   .EndpointStall = XMC_USBD_EndpointStall,
 165:C:/Files/Projects/Git/XMCLib/src\xmc_usbd.c ****   .EndpointReadStart = XMC_USBD_EndpointReadStart,
 166:C:/Files/Projects/Git/XMCLib/src\xmc_usbd.c ****   .EndpointRead = XMC_USBD_EndpointRead,
 167:C:/Files/Projects/Git/XMCLib/src\xmc_usbd.c ****   .EndpointWrite = XMC_USBD_EndpointWrite,
 168:C:/Files/Projects/Git/XMCLib/src\xmc_usbd.c ****   .EndpointAbort = XMC_USBD_EndpointAbort,
 169:C:/Files/Projects/Git/XMCLib/src\xmc_usbd.c ****   .GetFrameNumber = XMC_USBD_GetFrameNumber,
 170:C:/Files/Projects/Git/XMCLib/src\xmc_usbd.c ****   .IsEnumDone = XMC_USBD_IsEnumDone
 171:C:/Files/Projects/Git/XMCLib/src\xmc_usbd.c **** };
 172:C:/Files/Projects/Git/XMCLib/src\xmc_usbd.c **** 
 173:C:/Files/Projects/Git/XMCLib/src\xmc_usbd.c **** /**
 174:C:/Files/Projects/Git/XMCLib/src\xmc_usbd.c ****  * @brief Checks if device is active
 175:C:/Files/Projects/Git/XMCLib/src\xmc_usbd.c ****  *
 176:C:/Files/Projects/Git/XMCLib/src\xmc_usbd.c ****  * Therefore the endpoint inInUse flag are checked and if one endpoint is in use, 1 is returned,
 177:C:/Files/Projects/Git/XMCLib/src\xmc_usbd.c ****  * else 0 is returned.
 178:C:/Files/Projects/Git/XMCLib/src\xmc_usbd.c ****  * @return 1 if an endpoint is active else 0
 179:C:/Files/Projects/Git/XMCLib/src\xmc_usbd.c ****  */
 180:C:/Files/Projects/Git/XMCLib/src\xmc_usbd.c **** uint8_t XMC_USBD_lDeviceActive(const XMC_USBD_t *const obj) 
 181:C:/Files/Projects/Git/XMCLib/src\xmc_usbd.c **** {
 182:C:/Files/Projects/Git/XMCLib/src\xmc_usbd.c ****   uint8_t i;
 183:C:/Files/Projects/Git/XMCLib/src\xmc_usbd.c ****   uint8_t result = 0U;
 184:C:/Files/Projects/Git/XMCLib/src\xmc_usbd.c ****   for (i = 0U; i < (uint8_t)obj->usbd_max_num_eps; i++)
 185:C:/Files/Projects/Git/XMCLib/src\xmc_usbd.c ****   {
 186:C:/Files/Projects/Git/XMCLib/src\xmc_usbd.c ****     if (xmc_device.ep[i].inInUse || xmc_device.ep[i].outInUse)
 187:C:/Files/Projects/Git/XMCLib/src\xmc_usbd.c ****     {
 188:C:/Files/Projects/Git/XMCLib/src\xmc_usbd.c ****       result = 1U;
 189:C:/Files/Projects/Git/XMCLib/src\xmc_usbd.c ****     }
 190:C:/Files/Projects/Git/XMCLib/src\xmc_usbd.c ****   }
 191:C:/Files/Projects/Git/XMCLib/src\xmc_usbd.c ****   return result;
 192:C:/Files/Projects/Git/XMCLib/src\xmc_usbd.c **** }
 193:C:/Files/Projects/Git/XMCLib/src\xmc_usbd.c **** 
 194:C:/Files/Projects/Git/XMCLib/src\xmc_usbd.c **** 
 195:C:/Files/Projects/Git/XMCLib/src\xmc_usbd.c **** /**
 196:C:/Files/Projects/Git/XMCLib/src\xmc_usbd.c ****  * @brief Read data from the rx fifo
 197:C:/Files/Projects/Git/XMCLib/src\xmc_usbd.c ****  *
 198:C:/Files/Projects/Git/XMCLib/src\xmc_usbd.c ****  * The data from the fifo is copied in to the buffer specified by @ref xfer_buffer and
 199:C:/Files/Projects/Git/XMCLib/src\xmc_usbd.c ****  * the transfer values get updated. If the endpoint is disabled or the buffer not existent
 200:C:/Files/Projects/Git/XMCLib/src\xmc_usbd.c ****  * the function exits.
 201:C:/Files/Projects/Git/XMCLib/src\xmc_usbd.c ****  *
 202:C:/Files/Projects/Git/XMCLib/src\xmc_usbd.c ****  * @arg ep_num the endpoint to read for
 203:C:/Files/Projects/Git/XMCLib/src\xmc_usbd.c ****  * @arg byte_count the byte count to read
 204:C:/Files/Projects/Git/XMCLib/src\xmc_usbd.c ****  */
 205:C:/Files/Projects/Git/XMCLib/src\xmc_usbd.c **** static void XMC_USBD_lReadFifo(const uint32_t ep_num,const uint32_t byte_count) 
 206:C:/Files/Projects/Git/XMCLib/src\xmc_usbd.c **** {
  27              	 .loc 1 206 0
  28              	 .cfi_startproc
  29              	 
  30              	 
  31              	.LVL0:
  32 0000 F0B5     	 push {r4,r5,r6,r7,lr}
  33              	.LCFI0:
  34              	 .cfi_def_cfa_offset 20
  35              	 .cfi_offset 4,-20
  36              	 .cfi_offset 5,-16
  37              	 .cfi_offset 6,-12
  38              	 .cfi_offset 7,-8
  39              	 .cfi_offset 14,-4
  40              	.LVL1:
 207:C:/Files/Projects/Git/XMCLib/src\xmc_usbd.c ****   XMC_USBD_EP_t * ep = &xmc_device.ep[ep_num];
 208:C:/Files/Projects/Git/XMCLib/src\xmc_usbd.c ****   uint32_t word_count;
 209:C:/Files/Projects/Git/XMCLib/src\xmc_usbd.c ****   uint32_t temp_data;
 210:C:/Files/Projects/Git/XMCLib/src\xmc_usbd.c ****   uint32_t temp_word_count;
 211:C:/Files/Projects/Git/XMCLib/src\xmc_usbd.c ****   volatile uint32_t *fifo = xmc_device.fifo[0U];
  41              	 .loc 1 211 0
  42 0002 224B     	 ldr r3,.L10
  43 0004 D3F8E071 	 ldr r7,[r3,#480]
  44              	.LVL2:
 212:C:/Files/Projects/Git/XMCLib/src\xmc_usbd.c ****   uint32_t i;
 213:C:/Files/Projects/Git/XMCLib/src\xmc_usbd.c ****   depctl_data_t data;
 214:C:/Files/Projects/Git/XMCLib/src\xmc_usbd.c ****   data.d32 = xmc_device.endpoint_out_register[ep_num]->doepctl;
  45              	 .loc 1 214 0
  46 0008 03EB8003 	 add r3,r3,r0,lsl#2
  47 000c D3F8C431 	 ldr r3,[r3,#452]
  48 0010 1B68     	 ldr r3,[r3]
  49              	.LVL3:
 215:C:/Files/Projects/Git/XMCLib/src\xmc_usbd.c ****   word_count = (byte_count >> 2U );
 216:C:/Files/Projects/Git/XMCLib/src\xmc_usbd.c ****   temp_word_count = (word_count << 2U);
 217:C:/Files/Projects/Git/XMCLib/src\xmc_usbd.c ****   /* Check if ep is enabled and has buffer */
 218:C:/Files/Projects/Git/XMCLib/src\xmc_usbd.c ****   if (!data.b.usbactep)
  50              	 .loc 1 218 0
  51 0012 C3F30723 	 ubfx r3,r3,#8,#8
  52              	.LVL4:
  53 0016 23F07F03 	 bic r3,r3,#127
  54 001a 13F0FF0F 	 tst r3,#255
  55 001e 33D0     	 beq .L1
 219:C:/Files/Projects/Git/XMCLib/src\xmc_usbd.c ****   {
 220:C:/Files/Projects/Git/XMCLib/src\xmc_usbd.c ****     /*Do Nothing*/
 221:C:/Files/Projects/Git/XMCLib/src\xmc_usbd.c ****   }
 222:C:/Files/Projects/Git/XMCLib/src\xmc_usbd.c ****   else if (ep->xferBuffer == NULL)
  56              	 .loc 1 222 0
  57 0020 3423     	 movs r3,#52
  58 0022 1A4A     	 ldr r2,.L10
  59 0024 03FB0023 	 mla r3,r3,r0,r2
  60 0028 5B6A     	 ldr r3,[r3,#36]
  61 002a 6BB3     	 cbz r3,.L1
  62              	.LVL5:
 223:C:/Files/Projects/Git/XMCLib/src\xmc_usbd.c ****   {
 224:C:/Files/Projects/Git/XMCLib/src\xmc_usbd.c **** 	/*Do Nothing*/
 225:C:/Files/Projects/Git/XMCLib/src\xmc_usbd.c ****   }
 226:C:/Files/Projects/Git/XMCLib/src\xmc_usbd.c ****   else
 227:C:/Files/Projects/Git/XMCLib/src\xmc_usbd.c ****   {
 228:C:/Files/Projects/Git/XMCLib/src\xmc_usbd.c ****     /* store the data */
 229:C:/Files/Projects/Git/XMCLib/src\xmc_usbd.c ****     for (i = 0U;i < word_count; i++)
  63              	 .loc 1 229 0 discriminator 1
  64 002c 8B08     	 lsrs r3,r1,#2
  65              	.LVL6:
  66 002e 0BD0     	 beq .L3
  67              	 .loc 1 229 0 is_stmt 0
  68 0030 0022     	 movs r2,#0
 230:C:/Files/Projects/Git/XMCLib/src\xmc_usbd.c ****     {
 231:C:/Files/Projects/Git/XMCLib/src\xmc_usbd.c ****       *(((uint32_t*)ep->xferBuffer)+i) = *fifo;
  69              	 .loc 1 231 0 is_stmt 1
  70 0032 3424     	 movs r4,#52
  71 0034 154E     	 ldr r6,.L10
  72 0036 04FB0066 	 mla r6,r4,r0,r6
  73              	.LVL7:
  74              	.L4:
  75              	 .loc 1 231 0 is_stmt 0 discriminator 3
  76 003a 3D68     	 ldr r5,[r7]
  77 003c 746A     	 ldr r4,[r6,#36]
  78 003e 44F82250 	 str r5,[r4,r2,lsl#2]
 229:C:/Files/Projects/Git/XMCLib/src\xmc_usbd.c ****     {
  79              	 .loc 1 229 0 is_stmt 1 discriminator 3
  80 0042 0132     	 adds r2,r2,#1
  81              	.LVL8:
  82 0044 9A42     	 cmp r2,r3
  83 0046 F8D1     	 bne .L4
  84              	.LVL9:
  85              	.L3:
 216:C:/Files/Projects/Git/XMCLib/src\xmc_usbd.c ****   /* Check if ep is enabled and has buffer */
  86              	 .loc 1 216 0
  87 0048 9B00     	 lsls r3,r3,#2
  88              	.LVL10:
 232:C:/Files/Projects/Git/XMCLib/src\xmc_usbd.c ****     }
 233:C:/Files/Projects/Git/XMCLib/src\xmc_usbd.c ****     /* space is not devidable by 4 */
 234:C:/Files/Projects/Git/XMCLib/src\xmc_usbd.c ****     if (byte_count!=temp_word_count)
  89              	 .loc 1 234 0
  90 004a 9942     	 cmp r1,r3
  91 004c 12D0     	 beq .L5
 235:C:/Files/Projects/Git/XMCLib/src\xmc_usbd.c ****     {
 236:C:/Files/Projects/Git/XMCLib/src\xmc_usbd.c ****       temp_data = *fifo;
  92              	 .loc 1 236 0
  93 004e 3F68     	 ldr r7,[r7]
  94              	.LVL11:
 237:C:/Files/Projects/Git/XMCLib/src\xmc_usbd.c ****       for (i = 0U;(temp_word_count + i) < byte_count;i++)
  95              	 .loc 1 237 0
  96 0050 10D9     	 bls .L5
  97 0052 0024     	 movs r4,#0
 238:C:/Files/Projects/Git/XMCLib/src\xmc_usbd.c ****       {
 239:C:/Files/Projects/Git/XMCLib/src\xmc_usbd.c ****         ep->xferBuffer[(word_count << 2)+i] = (uint8_t)((temp_data & ((uint32_t)0xFFU << (i * 8U)))
  98              	 .loc 1 239 0
  99 0054 3422     	 movs r2,#52
 100 0056 0D4E     	 ldr r6,.L10
 101 0058 02FB0066 	 mla r6,r2,r0,r6
 102 005c 4FF0FF0E 	 mov lr,#255
 103              	.LVL12:
 104              	.L6:
 105              	 .loc 1 239 0 is_stmt 0 discriminator 3
 106 0060 756A     	 ldr r5,[r6,#36]
 107 0062 0EFA04F2 	 lsl r2,lr,r4
 108 0066 3A40     	 ands r2,r2,r7
 109 0068 E240     	 lsrs r2,r2,r4
 110 006a EA54     	 strb r2,[r5,r3]
 111              	.LVL13:
 112 006c 0133     	 adds r3,r3,#1
 113              	.LVL14:
 114 006e 0834     	 adds r4,r4,#8
 237:C:/Files/Projects/Git/XMCLib/src\xmc_usbd.c ****       for (i = 0U;(temp_word_count + i) < byte_count;i++)
 115              	 .loc 1 237 0 is_stmt 1 discriminator 3
 116 0070 8B42     	 cmp r3,r1
 117 0072 F5D1     	 bne .L6
 118              	.LVL15:
 119              	.L5:
 240:C:/Files/Projects/Git/XMCLib/src\xmc_usbd.c ****       }
 241:C:/Files/Projects/Git/XMCLib/src\xmc_usbd.c ****     }
 242:C:/Files/Projects/Git/XMCLib/src\xmc_usbd.c **** 
 243:C:/Files/Projects/Git/XMCLib/src\xmc_usbd.c ****     /* save the amount of data */
 244:C:/Files/Projects/Git/XMCLib/src\xmc_usbd.c ****     ep->xferCount += byte_count;
 120              	 .loc 1 244 0
 121 0074 3422     	 movs r2,#52
 122 0076 054B     	 ldr r3,.L10
 123 0078 02FB0030 	 mla r0,r2,r0,r3
 124              	.LVL16:
 125 007c C36A     	 ldr r3,[r0,#44]
 126 007e 0B44     	 add r3,r3,r1
 127 0080 C362     	 str r3,[r0,#44]
 245:C:/Files/Projects/Git/XMCLib/src\xmc_usbd.c ****     ep->xferBuffer += byte_count;
 128              	 .loc 1 245 0
 129 0082 436A     	 ldr r3,[r0,#36]
 130 0084 1944     	 add r1,r1,r3
 131              	.LVL17:
 132 0086 4162     	 str r1,[r0,#36]
 133              	.L1:
 134 0088 F0BD     	 pop {r4,r5,r6,r7,pc}
 135              	.L11:
 136 008a 00BF     	 .align 2
 137              	.L10:
 138 008c 00000000 	 .word .LANCHOR0
 139              	 .cfi_endproc
 140              	.LFE176:
 142              	 .section .text.XMC_USBD_lFlushTXFifo,"ax",%progbits
 143              	 .align 2
 144              	 .thumb
 145              	 .thumb_func
 147              	XMC_USBD_lFlushTXFifo:
 148              	.LFB178:
 246:C:/Files/Projects/Git/XMCLib/src\xmc_usbd.c ****   }
 247:C:/Files/Projects/Git/XMCLib/src\xmc_usbd.c **** }
 248:C:/Files/Projects/Git/XMCLib/src\xmc_usbd.c **** 
 249:C:/Files/Projects/Git/XMCLib/src\xmc_usbd.c **** /**
 250:C:/Files/Projects/Git/XMCLib/src\xmc_usbd.c ****  * @brief Write data to an endpoint fifo
 251:C:/Files/Projects/Git/XMCLib/src\xmc_usbd.c ****  *
 252:C:/Files/Projects/Git/XMCLib/src\xmc_usbd.c ****  * The data from the @ref xfer_buffer gets copied in to the tx fifo of the endpoint until the buffe
 253:C:/Files/Projects/Git/XMCLib/src\xmc_usbd.c ****  *completely or the tx fifo is full. The transfer values are not updated.
 254:C:/Files/Projects/Git/XMCLib/src\xmc_usbd.c ****  *
 255:C:/Files/Projects/Git/XMCLib/src\xmc_usbd.c ****  * @arg[in] ep the endpoint to use
 256:C:/Files/Projects/Git/XMCLib/src\xmc_usbd.c ****  * @return the number of bytes written to the fifo
 257:C:/Files/Projects/Git/XMCLib/src\xmc_usbd.c ****  */
 258:C:/Files/Projects/Git/XMCLib/src\xmc_usbd.c **** static uint32_t XMC_USBD_lWriteFifo(XMC_USBD_EP_t *const ep) 
 259:C:/Files/Projects/Git/XMCLib/src\xmc_usbd.c **** {
 260:C:/Files/Projects/Git/XMCLib/src\xmc_usbd.c ****   dtxfsts_data_t freeSpace; 
 261:C:/Files/Projects/Git/XMCLib/src\xmc_usbd.c ****   volatile uint32_t *fifo;
 262:C:/Files/Projects/Git/XMCLib/src\xmc_usbd.c ****   uint32_t byte_count;
 263:C:/Files/Projects/Git/XMCLib/src\xmc_usbd.c ****   uint32_t word_count;
 264:C:/Files/Projects/Git/XMCLib/src\xmc_usbd.c ****   uint32_t result;
 265:C:/Files/Projects/Git/XMCLib/src\xmc_usbd.c ****   uint32_t i;
 266:C:/Files/Projects/Git/XMCLib/src\xmc_usbd.c ****   fifo = xmc_device.fifo[ep->address_u.address_st.number]; /* fifo */
 267:C:/Files/Projects/Git/XMCLib/src\xmc_usbd.c ****   freeSpace.d32 = xmc_device.endpoint_in_register[ep->address_u.address_st.number]->dtxfsts;
 268:C:/Files/Projects/Git/XMCLib/src\xmc_usbd.c ****   /* calculate the length and the amount of dwords to copy based on the fifo status */
 269:C:/Files/Projects/Git/XMCLib/src\xmc_usbd.c ****   byte_count = ep->xferLength - ep->xferCount;
 270:C:/Files/Projects/Git/XMCLib/src\xmc_usbd.c ****   if (!byte_count)
 271:C:/Files/Projects/Git/XMCLib/src\xmc_usbd.c ****   {
 272:C:/Files/Projects/Git/XMCLib/src\xmc_usbd.c ****     result = 0U;
 273:C:/Files/Projects/Git/XMCLib/src\xmc_usbd.c ****   }
 274:C:/Files/Projects/Git/XMCLib/src\xmc_usbd.c ****   else
 275:C:/Files/Projects/Git/XMCLib/src\xmc_usbd.c ****   {
 276:C:/Files/Projects/Git/XMCLib/src\xmc_usbd.c ****     /* add the unaligned bytes to the word count to compare with the fifo space */
 277:C:/Files/Projects/Git/XMCLib/src\xmc_usbd.c ****     word_count = ((uint32_t)byte_count + 3U) >> 2U;
 278:C:/Files/Projects/Git/XMCLib/src\xmc_usbd.c ****     if (word_count > (uint32_t)freeSpace.b.txfspcavail )
 279:C:/Files/Projects/Git/XMCLib/src\xmc_usbd.c ****     {
 280:C:/Files/Projects/Git/XMCLib/src\xmc_usbd.c ****       word_count = (uint32_t)freeSpace.b.txfspcavail;
 281:C:/Files/Projects/Git/XMCLib/src\xmc_usbd.c ****       byte_count = (uint32_t)word_count << (uint32_t)2U;
 282:C:/Files/Projects/Git/XMCLib/src\xmc_usbd.c ****     }
 283:C:/Files/Projects/Git/XMCLib/src\xmc_usbd.c **** 
 284:C:/Files/Projects/Git/XMCLib/src\xmc_usbd.c ****     /* copy data dword wise */
 285:C:/Files/Projects/Git/XMCLib/src\xmc_usbd.c ****     for (i = 0U; i < word_count;ep->xferBuffer+= 4U)
 286:C:/Files/Projects/Git/XMCLib/src\xmc_usbd.c ****     {
 287:C:/Files/Projects/Git/XMCLib/src\xmc_usbd.c ****       *fifo = *(uint32_t*)ep->xferBuffer;
 288:C:/Files/Projects/Git/XMCLib/src\xmc_usbd.c ****       i++;
 289:C:/Files/Projects/Git/XMCLib/src\xmc_usbd.c ****     }
 290:C:/Files/Projects/Git/XMCLib/src\xmc_usbd.c ****     result=byte_count;
 291:C:/Files/Projects/Git/XMCLib/src\xmc_usbd.c ****   }
 292:C:/Files/Projects/Git/XMCLib/src\xmc_usbd.c ****   return result;
 293:C:/Files/Projects/Git/XMCLib/src\xmc_usbd.c **** }
 294:C:/Files/Projects/Git/XMCLib/src\xmc_usbd.c **** 
 295:C:/Files/Projects/Git/XMCLib/src\xmc_usbd.c **** /**
 296:C:/Files/Projects/Git/XMCLib/src\xmc_usbd.c ****  * @brief Flush a tx fifo
 297:C:/Files/Projects/Git/XMCLib/src\xmc_usbd.c ****  *
 298:C:/Files/Projects/Git/XMCLib/src\xmc_usbd.c ****  * @param[in] fifo_num Fifo number to flush
 299:C:/Files/Projects/Git/XMCLib/src\xmc_usbd.c ****  *
 300:C:/Files/Projects/Git/XMCLib/src\xmc_usbd.c ****  * @note Use 0x10 as parameter to flush all tx fifos.
 301:C:/Files/Projects/Git/XMCLib/src\xmc_usbd.c ****  */
 302:C:/Files/Projects/Git/XMCLib/src\xmc_usbd.c **** static void XMC_USBD_lFlushTXFifo(const uint8_t fifo_num) 
 303:C:/Files/Projects/Git/XMCLib/src\xmc_usbd.c **** {
 149              	 .loc 1 303 0
 150              	 .cfi_startproc
 151              	 
 152              	 
 153              	 
 154              	.LVL18:
 155 0000 82B0     	 sub sp,sp,#8
 156              	.LCFI1:
 157              	 .cfi_def_cfa_offset 8
 304:C:/Files/Projects/Git/XMCLib/src\xmc_usbd.c ****   volatile grstctl_t data;  
 305:C:/Files/Projects/Git/XMCLib/src\xmc_usbd.c ****   uint32_t count;
 306:C:/Files/Projects/Git/XMCLib/src\xmc_usbd.c ****   data.d32 = 0U;
 158              	 .loc 1 306 0
 159 0002 0023     	 movs r3,#0
 160 0004 0193     	 str r3,[sp,#4]
 307:C:/Files/Projects/Git/XMCLib/src\xmc_usbd.c ****   /*flush fifo */
 308:C:/Files/Projects/Git/XMCLib/src\xmc_usbd.c ****   data.b.txfflsh = 1U;
 161              	 .loc 1 308 0
 162 0006 019B     	 ldr r3,[sp,#4]
 163 0008 43F02003 	 orr r3,r3,#32
 164 000c 0193     	 str r3,[sp,#4]
 309:C:/Files/Projects/Git/XMCLib/src\xmc_usbd.c ****   data.b.txfnum = fifo_num;
 165              	 .loc 1 309 0
 166 000e 00F01F00 	 and r0,r0,#31
 167              	.LVL19:
 168 0012 019B     	 ldr r3,[sp,#4]
 169 0014 23F4F863 	 bic r3,r3,#1984
 170 0018 43EA8013 	 orr r3,r3,r0,lsl#6
 171 001c 0193     	 str r3,[sp,#4]
 310:C:/Files/Projects/Git/XMCLib/src\xmc_usbd.c ****   xmc_device.global_register->grstctl = data.d32;
 172              	 .loc 1 310 0
 173 001e 0C4B     	 ldr r3,.L20
 174 0020 D3F8A031 	 ldr r3,[r3,#416]
 175 0024 019A     	 ldr r2,[sp,#4]
 176 0026 1A61     	 str r2,[r3,#16]
 177              	.LVL20:
 178 0028 4FF47A73 	 mov r3,#1000
 179              	.LVL21:
 180              	.L13:
 311:C:/Files/Projects/Git/XMCLib/src\xmc_usbd.c ****   for (count = 0U;count < 1000U; count++){}
 181              	 .loc 1 311 0 discriminator 3
 182 002c 013B     	 subs r3,r3,#1
 183              	.LVL22:
 184 002e FDD1     	 bne .L13
 312:C:/Files/Projects/Git/XMCLib/src\xmc_usbd.c ****   do
 313:C:/Files/Projects/Git/XMCLib/src\xmc_usbd.c ****   {
 314:C:/Files/Projects/Git/XMCLib/src\xmc_usbd.c ****    data.d32 = xmc_device.global_register->grstctl;
 185              	 .loc 1 314 0
 186 0030 074B     	 ldr r3,.L20
 187              	.LVL23:
 188 0032 D3F8A021 	 ldr r2,[r3,#416]
 189              	.L14:
 190              	 .loc 1 314 0 is_stmt 0 discriminator 1
 191 0036 1369     	 ldr r3,[r2,#16]
 192 0038 0193     	 str r3,[sp,#4]
 315:C:/Files/Projects/Git/XMCLib/src\xmc_usbd.c ****   } while (data.b.txfflsh);
 193              	 .loc 1 315 0 is_stmt 1 discriminator 1
 194 003a 019B     	 ldr r3,[sp,#4]
 195 003c 13F0200F 	 tst r3,#32
 196 0040 F9D1     	 bne .L14
 197 0042 40F2E933 	 movw r3,#1001
 198              	.L15:
 199              	.LVL24:
 316:C:/Files/Projects/Git/XMCLib/src\xmc_usbd.c ****     count = 0U;
 317:C:/Files/Projects/Git/XMCLib/src\xmc_usbd.c ****   while (count++ < 1000U)
 200              	 .loc 1 317 0 discriminator 1
 201 0046 013B     	 subs r3,r3,#1
 202              	.LVL25:
 203 0048 FDD1     	 bne .L15
 318:C:/Files/Projects/Git/XMCLib/src\xmc_usbd.c ****   {
 319:C:/Files/Projects/Git/XMCLib/src\xmc_usbd.c ****     /* wait 3 phy clocks */
 320:C:/Files/Projects/Git/XMCLib/src\xmc_usbd.c ****   }
 321:C:/Files/Projects/Git/XMCLib/src\xmc_usbd.c **** }
 204              	 .loc 1 321 0
 205 004a 02B0     	 add sp,sp,#8
 206              	.LCFI2:
 207              	 .cfi_def_cfa_offset 0
 208              	 
 209 004c 7047     	 bx lr
 210              	.L21:
 211 004e 00BF     	 .align 2
 212              	.L20:
 213 0050 00000000 	 .word .LANCHOR0
 214              	 .cfi_endproc
 215              	.LFE178:
 217              	 .section .text.XMC_USBD_lFlushRXFifo,"ax",%progbits
 218              	 .align 2
 219              	 .thumb
 220              	 .thumb_func
 222              	XMC_USBD_lFlushRXFifo:
 223              	.LFB179:
 322:C:/Files/Projects/Git/XMCLib/src\xmc_usbd.c **** 
 323:C:/Files/Projects/Git/XMCLib/src\xmc_usbd.c **** /**
 324:C:/Files/Projects/Git/XMCLib/src\xmc_usbd.c ****  * @brief Flush the rx fifo
 325:C:/Files/Projects/Git/XMCLib/src\xmc_usbd.c ****  */
 326:C:/Files/Projects/Git/XMCLib/src\xmc_usbd.c **** static void XMC_USBD_lFlushRXFifo(void) 
 327:C:/Files/Projects/Git/XMCLib/src\xmc_usbd.c **** {
 224              	 .loc 1 327 0
 225              	 .cfi_startproc
 226              	 
 227              	 
 228              	 
 229 0000 82B0     	 sub sp,sp,#8
 230              	.LCFI3:
 231              	 .cfi_def_cfa_offset 8
 328:C:/Files/Projects/Git/XMCLib/src\xmc_usbd.c ****   volatile grstctl_t data;  
 329:C:/Files/Projects/Git/XMCLib/src\xmc_usbd.c ****   uint32_t count;
 330:C:/Files/Projects/Git/XMCLib/src\xmc_usbd.c **** 	
 331:C:/Files/Projects/Git/XMCLib/src\xmc_usbd.c **** 	data.d32 = 0U;
 232              	 .loc 1 331 0
 233 0002 0023     	 movs r3,#0
 234 0004 0193     	 str r3,[sp,#4]
 332:C:/Files/Projects/Git/XMCLib/src\xmc_usbd.c ****   data.b.rxfflsh = 1U;
 235              	 .loc 1 332 0
 236 0006 019B     	 ldr r3,[sp,#4]
 237 0008 43F01003 	 orr r3,r3,#16
 238 000c 0193     	 str r3,[sp,#4]
 333:C:/Files/Projects/Git/XMCLib/src\xmc_usbd.c ****   /* flush FIFO */
 334:C:/Files/Projects/Git/XMCLib/src\xmc_usbd.c ****   xmc_device.global_register->grstctl = data.d32;
 239              	 .loc 1 334 0
 240 000e 0C4B     	 ldr r3,.L30
 241 0010 D3F8A021 	 ldr r2,[r3,#416]
 242 0014 0199     	 ldr r1,[sp,#4]
 243 0016 1161     	 str r1,[r2,#16]
 335:C:/Files/Projects/Git/XMCLib/src\xmc_usbd.c ****   do
 336:C:/Files/Projects/Git/XMCLib/src\xmc_usbd.c ****   {
 337:C:/Files/Projects/Git/XMCLib/src\xmc_usbd.c ****     for (count = 0U; count < 1000U; count++){}
 338:C:/Files/Projects/Git/XMCLib/src\xmc_usbd.c ****     data.d32 = xmc_device.global_register->grstctl;
 244              	 .loc 1 338 0
 245 0018 D3F8A011 	 ldr r1,[r3,#416]
 327:C:/Files/Projects/Git/XMCLib/src\xmc_usbd.c ****   volatile grstctl_t data;  
 246              	 .loc 1 327 0
 247 001c 4FF47A72 	 mov r2,#1000
 248              	.L24:
 249              	.LVL26:
 250 0020 1346     	 mov r3,r2
 251              	.LVL27:
 252              	.L23:
 337:C:/Files/Projects/Git/XMCLib/src\xmc_usbd.c ****     data.d32 = xmc_device.global_register->grstctl;
 253              	 .loc 1 337 0 discriminator 3
 254 0022 013B     	 subs r3,r3,#1
 255              	.LVL28:
 256 0024 FDD1     	 bne .L23
 257              	 .loc 1 338 0
 258 0026 0B69     	 ldr r3,[r1,#16]
 259              	.LVL29:
 260 0028 0193     	 str r3,[sp,#4]
 339:C:/Files/Projects/Git/XMCLib/src\xmc_usbd.c ****   } while (data.b.rxfflsh);
 261              	 .loc 1 339 0
 262 002a 019B     	 ldr r3,[sp,#4]
 263 002c 13F0100F 	 tst r3,#16
 264 0030 F6D1     	 bne .L24
 265 0032 40F2E933 	 movw r3,#1001
 266              	.L25:
 267              	.LVL30:
 340:C:/Files/Projects/Git/XMCLib/src\xmc_usbd.c ****   count = 0U;
 341:C:/Files/Projects/Git/XMCLib/src\xmc_usbd.c ****   while (count++ < 1000U)
 268              	 .loc 1 341 0 discriminator 1
 269 0036 013B     	 subs r3,r3,#1
 270              	.LVL31:
 271 0038 FDD1     	 bne .L25
 342:C:/Files/Projects/Git/XMCLib/src\xmc_usbd.c ****   {
 343:C:/Files/Projects/Git/XMCLib/src\xmc_usbd.c ****     /* wait 3 phy clocks */
 344:C:/Files/Projects/Git/XMCLib/src\xmc_usbd.c ****   }
 345:C:/Files/Projects/Git/XMCLib/src\xmc_usbd.c **** }
 272              	 .loc 1 345 0
 273 003a 02B0     	 add sp,sp,#8
 274              	.LCFI4:
 275              	 .cfi_def_cfa_offset 0
 276              	 
 277 003c 7047     	 bx lr
 278              	.L31:
 279 003e 00BF     	 .align 2
 280              	.L30:
 281 0040 00000000 	 .word .LANCHOR0
 282              	 .cfi_endproc
 283              	.LFE179:
 285              	 .section .text.XMC_USBD_lStartReadXfer,"ax",%progbits
 286              	 .align 2
 287              	 .thumb
 288              	 .thumb_func
 290              	XMC_USBD_lStartReadXfer:
 291              	.LFB182:
 346:C:/Files/Projects/Git/XMCLib/src\xmc_usbd.c **** 
 347:C:/Files/Projects/Git/XMCLib/src\xmc_usbd.c **** /*
 348:C:/Files/Projects/Git/XMCLib/src\xmc_usbd.c ****  * Support Functions
 349:C:/Files/Projects/Git/XMCLib/src\xmc_usbd.c ****  */
 350:C:/Files/Projects/Git/XMCLib/src\xmc_usbd.c **** 
 351:C:/Files/Projects/Git/XMCLib/src\xmc_usbd.c **** /**
 352:C:/Files/Projects/Git/XMCLib/src\xmc_usbd.c ****  * @brief Assign a free tx fifo
 353:C:/Files/Projects/Git/XMCLib/src\xmc_usbd.c ****  *
 354:C:/Files/Projects/Git/XMCLib/src\xmc_usbd.c ****  * A free tx fifo will be searched and the number will be returned.
 355:C:/Files/Projects/Git/XMCLib/src\xmc_usbd.c ****  *
 356:C:/Files/Projects/Git/XMCLib/src\xmc_usbd.c ****  * @return Fifo number for a free fifo
 357:C:/Files/Projects/Git/XMCLib/src\xmc_usbd.c ****  */
 358:C:/Files/Projects/Git/XMCLib/src\xmc_usbd.c **** static uint8_t XMC_USBD_lAssignTXFifo(void) 
 359:C:/Files/Projects/Git/XMCLib/src\xmc_usbd.c **** {
 360:C:/Files/Projects/Git/XMCLib/src\xmc_usbd.c ****   uint16_t mask = 1U;
 361:C:/Files/Projects/Git/XMCLib/src\xmc_usbd.c ****   uint8_t i = 0U;
 362:C:/Files/Projects/Git/XMCLib/src\xmc_usbd.c ****   uint8_t result = 0U;
 363:C:/Files/Projects/Git/XMCLib/src\xmc_usbd.c ****   while( (i < (uint8_t)XMC_USBD_NUM_TX_FIFOS)&&((xmc_device.txfifomsk & mask) != 0U))
 364:C:/Files/Projects/Git/XMCLib/src\xmc_usbd.c ****   {
 365:C:/Files/Projects/Git/XMCLib/src\xmc_usbd.c ****     mask = (uint16_t)(mask << 1U);
 366:C:/Files/Projects/Git/XMCLib/src\xmc_usbd.c ****     i++;
 367:C:/Files/Projects/Git/XMCLib/src\xmc_usbd.c ****   }
 368:C:/Files/Projects/Git/XMCLib/src\xmc_usbd.c ****   if ((xmc_device.txfifomsk & mask) == 0U)
 369:C:/Files/Projects/Git/XMCLib/src\xmc_usbd.c ****   {
 370:C:/Files/Projects/Git/XMCLib/src\xmc_usbd.c ****     xmc_device.txfifomsk |= mask;
 371:C:/Files/Projects/Git/XMCLib/src\xmc_usbd.c ****     result=i;
 372:C:/Files/Projects/Git/XMCLib/src\xmc_usbd.c ****   }
 373:C:/Files/Projects/Git/XMCLib/src\xmc_usbd.c ****   return result;
 374:C:/Files/Projects/Git/XMCLib/src\xmc_usbd.c **** }
 375:C:/Files/Projects/Git/XMCLib/src\xmc_usbd.c **** 
 376:C:/Files/Projects/Git/XMCLib/src\xmc_usbd.c **** /**
 377:C:/Files/Projects/Git/XMCLib/src\xmc_usbd.c ****  * @brief Free a tx fifo
 378:C:/Files/Projects/Git/XMCLib/src\xmc_usbd.c ****  *
 379:C:/Files/Projects/Git/XMCLib/src\xmc_usbd.c ****  * Mark an used tx fifo as free.
 380:C:/Files/Projects/Git/XMCLib/src\xmc_usbd.c ****  * @param[in] fifo_nr Fifo number to free
 381:C:/Files/Projects/Git/XMCLib/src\xmc_usbd.c ****  */
 382:C:/Files/Projects/Git/XMCLib/src\xmc_usbd.c **** static void XMC_USBD_lUnassignFifo(const uint8_t fifo_nr) 
 383:C:/Files/Projects/Git/XMCLib/src\xmc_usbd.c **** {
 384:C:/Files/Projects/Git/XMCLib/src\xmc_usbd.c ****   xmc_device.txfifomsk = (uint16_t)((uint32_t)xmc_device.txfifomsk & (uint32_t)(~((uint32_t)((uint3
 385:C:/Files/Projects/Git/XMCLib/src\xmc_usbd.c **** }
 386:C:/Files/Projects/Git/XMCLib/src\xmc_usbd.c **** 
 387:C:/Files/Projects/Git/XMCLib/src\xmc_usbd.c **** /**
 388:C:/Files/Projects/Git/XMCLib/src\xmc_usbd.c ****  * @brief Start a transfer for an out endpoint
 389:C:/Files/Projects/Git/XMCLib/src\xmc_usbd.c ****  *
 390:C:/Files/Projects/Git/XMCLib/src\xmc_usbd.c ****  * Based on the transfer values of the endpoint, the out endpoint registers will be programmed
 391:C:/Files/Projects/Git/XMCLib/src\xmc_usbd.c ****  * to start a new out transfer.
 392:C:/Files/Projects/Git/XMCLib/src\xmc_usbd.c ****  *
 393:C:/Files/Projects/Git/XMCLib/src\xmc_usbd.c ****  * @note No checking of the transfer values are done in this function. Be sure,
 394:C:/Files/Projects/Git/XMCLib/src\xmc_usbd.c ****  * that the transfer values are reasonable (e.g. buffer size is not exceeded).
 395:C:/Files/Projects/Git/XMCLib/src\xmc_usbd.c ****  *
 396:C:/Files/Projects/Git/XMCLib/src\xmc_usbd.c ****  * @param[in] ep Endpoint to start the transfer
 397:C:/Files/Projects/Git/XMCLib/src\xmc_usbd.c ****  */
 398:C:/Files/Projects/Git/XMCLib/src\xmc_usbd.c **** static void XMC_USBD_lStartReadXfer(XMC_USBD_EP_t *const ep) 
 399:C:/Files/Projects/Git/XMCLib/src\xmc_usbd.c **** {
 292              	 .loc 1 399 0
 293              	 .cfi_startproc
 294              	 
 295              	 
 296              	 
 297              	.LVL32:
 298 0000 30B4     	 push {r4,r5}
 299              	.LCFI5:
 300              	 .cfi_def_cfa_offset 8
 301              	 .cfi_offset 4,-8
 302              	 .cfi_offset 5,-4
 400:C:/Files/Projects/Git/XMCLib/src\xmc_usbd.c ****   deptsiz_data_t data;
 401:C:/Files/Projects/Git/XMCLib/src\xmc_usbd.c ****   depctl_data_t epctl;
 402:C:/Files/Projects/Git/XMCLib/src\xmc_usbd.c **** 	
 403:C:/Files/Projects/Git/XMCLib/src\xmc_usbd.c ****   data.d32 =  0U;
 303              	 .loc 1 403 0
 304 0002 0021     	 movs r1,#0
 305              	.LVL33:
 404:C:/Files/Projects/Git/XMCLib/src\xmc_usbd.c ****   if ((ep->xferTotal - ep->xferLength) > ep->maxTransferSize)
 306              	 .loc 1 404 0
 307 0004 046B     	 ldr r4,[r0,#48]
 308 0006 826A     	 ldr r2,[r0,#40]
 309 0008 8368     	 ldr r3,[r0,#8]
 310 000a C3F31203 	 ubfx r3,r3,#0,#19
 311 000e A51A     	 subs r5,r4,r2
 312 0010 9D42     	 cmp r5,r3
 405:C:/Files/Projects/Git/XMCLib/src\xmc_usbd.c ****   {
 406:C:/Files/Projects/Git/XMCLib/src\xmc_usbd.c ****     ep->xferLength += ep->maxTransferSize;
 313              	 .loc 1 406 0
 314 0012 86BF     	 itte hi
 315 0014 9B18     	 addhi r3,r3,r2
 316 0016 8362     	 strhi r3,[r0,#40]
 407:C:/Files/Projects/Git/XMCLib/src\xmc_usbd.c ****   }
 408:C:/Files/Projects/Git/XMCLib/src\xmc_usbd.c ****   else
 409:C:/Files/Projects/Git/XMCLib/src\xmc_usbd.c ****   {
 410:C:/Files/Projects/Git/XMCLib/src\xmc_usbd.c ****     ep->xferLength = ep->xferTotal;
 317              	 .loc 1 410 0
 318 0018 8462     	 strls r4,[r0,#40]
 411:C:/Files/Projects/Git/XMCLib/src\xmc_usbd.c ****   }
 412:C:/Files/Projects/Git/XMCLib/src\xmc_usbd.c ****   if (ep->address_u.address_st.number == 0U)
 319              	 .loc 1 412 0
 320 001a 0378     	 ldrb r3,[r0]
 321 001c 13F00F0F 	 tst r3,#15
 322 0020 07D1     	 bne .L35
 323              	.LVL34:
 324              	.LBB2:
 413:C:/Files/Projects/Git/XMCLib/src\xmc_usbd.c ****   {
 414:C:/Files/Projects/Git/XMCLib/src\xmc_usbd.c **** 	/* Setup the endpoint to receive 3 setup packages and one normal package.*/
 415:C:/Files/Projects/Git/XMCLib/src\xmc_usbd.c **** 	/* Cast the data pointer to use only one variable */
 416:C:/Files/Projects/Git/XMCLib/src\xmc_usbd.c ****     deptsiz0_data_t *ep0_data = (deptsiz0_data_t*)&data;
 417:C:/Files/Projects/Git/XMCLib/src\xmc_usbd.c ****     ep0_data->b.pktcnt = 0x1U;
 325              	 .loc 1 417 0
 326 0022 0123     	 movs r3,#1
 327 0024 63F3D441 	 bfi r1,r3,#19,#2
 328              	.LVL35:
 418:C:/Files/Projects/Git/XMCLib/src\xmc_usbd.c ****     ep0_data->b.supcnt = 0x3U;
 329              	 .loc 1 418 0
 330 0028 41F0C041 	 orr r1,r1,#1610612736
 331              	.LVL36:
 419:C:/Files/Projects/Git/XMCLib/src\xmc_usbd.c ****     ep0_data->b.xfersize = (uint8_t)ep->xferTotal;
 332              	 .loc 1 419 0
 333 002c 64F30601 	 bfi r1,r4,#0,#7
 334              	.LVL37:
 335              	.LBE2:
 336 0030 14E0     	 b .L36
 337              	.LVL38:
 338              	.L35:
 420:C:/Files/Projects/Git/XMCLib/src\xmc_usbd.c ****   }
 421:C:/Files/Projects/Git/XMCLib/src\xmc_usbd.c ****   else
 422:C:/Files/Projects/Git/XMCLib/src\xmc_usbd.c ****   {
 423:C:/Files/Projects/Git/XMCLib/src\xmc_usbd.c ****     /* If requested length is zero, just receive one zero length packet */
 424:C:/Files/Projects/Git/XMCLib/src\xmc_usbd.c ****     if (ep->xferLength == 0U)
 339              	 .loc 1 424 0
 340 0032 836A     	 ldr r3,[r0,#40]
 341 0034 2BB9     	 cbnz r3,.L37
 425:C:/Files/Projects/Git/XMCLib/src\xmc_usbd.c ****     {
 426:C:/Files/Projects/Git/XMCLib/src\xmc_usbd.c ****       data.b.xfersize = 0U;
 342              	 .loc 1 426 0
 343 0036 6FF31201 	 bfc r1,#0,#19
 344              	.LVL39:
 427:C:/Files/Projects/Git/XMCLib/src\xmc_usbd.c ****       data.b.pktcnt = 1U;
 345              	 .loc 1 427 0
 346 003a 0123     	 movs r3,#1
 347 003c 63F3DC41 	 bfi r1,r3,#19,#10
 348 0040 0CE0     	 b .L36
 349              	.LVL40:
 350              	.L37:
 428:C:/Files/Projects/Git/XMCLib/src\xmc_usbd.c ****     }
 429:C:/Files/Projects/Git/XMCLib/src\xmc_usbd.c ****     else
 430:C:/Files/Projects/Git/XMCLib/src\xmc_usbd.c ****     {
 431:C:/Files/Projects/Git/XMCLib/src\xmc_usbd.c ****       /* setup endpoint to recive a amount of packages by given size */
 432:C:/Files/Projects/Git/XMCLib/src\xmc_usbd.c ****       data.b.pktcnt = (uint16_t)(((ep->xferLength - ep->xferCount) + (ep->maxPacketSize -(uint32_t)
 351              	 .loc 1 432 0
 352 0042 C26A     	 ldr r2,[r0,#44]
 353 0044 9B1A     	 subs r3,r3,r2
 354 0046 4268     	 ldr r2,[r0,#4]
 355 0048 C2F3C624 	 ubfx r4,r2,#11,#7
 356 004c 1A19     	 adds r2,r3,r4
 357 004e 013A     	 subs r2,r2,#1
 358 0050 B2FBF4F2 	 udiv r2,r2,r4
 359 0054 62F3DC41 	 bfi r1,r2,#19,#10
 360              	.LVL41:
 433:C:/Files/Projects/Git/XMCLib/src\xmc_usbd.c ****       data.b.xfersize =(uint32_t)(ep->xferLength - ep->xferCount);
 361              	 .loc 1 433 0
 362 0058 63F31201 	 bfi r1,r3,#0,#19
 363              	.L36:
 434:C:/Files/Projects/Git/XMCLib/src\xmc_usbd.c ****     }
 435:C:/Files/Projects/Git/XMCLib/src\xmc_usbd.c ****   }
 436:C:/Files/Projects/Git/XMCLib/src\xmc_usbd.c ****   if(usbd_init->usbd_transfer_mode == XMC_USBD_USE_DMA)
 364              	 .loc 1 436 0
 365 005c 114B     	 ldr r3,.L40
 366 005e 1B68     	 ldr r3,[r3]
 367 0060 5B7B     	 ldrb r3,[r3,#13]
 368 0062 4BB9     	 cbnz r3,.L38
 437:C:/Files/Projects/Git/XMCLib/src\xmc_usbd.c ****   {
 438:C:/Files/Projects/Git/XMCLib/src\xmc_usbd.c ****     /* Programm dma address if needed */
 439:C:/Files/Projects/Git/XMCLib/src\xmc_usbd.c ****     xmc_device.endpoint_out_register[ep->address_u.address_st.number]->doepdma = (uint32_t)(ep->xfe
 369              	 .loc 1 439 0
 370 0064 0378     	 ldrb r3,[r0]
 371 0066 03F00F02 	 and r2,r3,#15
 372 006a 0F4B     	 ldr r3,.L40+4
 373 006c 03EB8203 	 add r3,r3,r2,lsl#2
 374 0070 D3F8C431 	 ldr r3,[r3,#452]
 375 0074 426A     	 ldr r2,[r0,#36]
 376 0076 5A61     	 str r2,[r3,#20]
 377              	.L38:
 440:C:/Files/Projects/Git/XMCLib/src\xmc_usbd.c ****   }
 441:C:/Files/Projects/Git/XMCLib/src\xmc_usbd.c ****   /* setup endpoint size and enable endpoint */
 442:C:/Files/Projects/Git/XMCLib/src\xmc_usbd.c ****   xmc_device.endpoint_out_register[ep->address_u.address_st.number]->doeptsiz = data.d32;
 378              	 .loc 1 442 0
 379 0078 0B4A     	 ldr r2,.L40+4
 380 007a 0378     	 ldrb r3,[r0]
 381 007c 03F00F03 	 and r3,r3,#15
 382 0080 02EB8303 	 add r3,r2,r3,lsl#2
 383 0084 D3F8C431 	 ldr r3,[r3,#452]
 384 0088 1961     	 str r1,[r3,#16]
 443:C:/Files/Projects/Git/XMCLib/src\xmc_usbd.c ****  
 444:C:/Files/Projects/Git/XMCLib/src\xmc_usbd.c ****   epctl.d32 = xmc_device.endpoint_out_register[ep->address_u.address_st.number]->doepctl;
 385              	 .loc 1 444 0
 386 008a 0378     	 ldrb r3,[r0]
 387 008c 03F00F03 	 and r3,r3,#15
 388 0090 02EB8302 	 add r2,r2,r3,lsl#2
 389 0094 D2F8C421 	 ldr r2,[r2,#452]
 390 0098 1368     	 ldr r3,[r2]
 445:C:/Files/Projects/Git/XMCLib/src\xmc_usbd.c ****   epctl.b.cnak = 1U;
 446:C:/Files/Projects/Git/XMCLib/src\xmc_usbd.c ****   epctl.b.epena = 1U;
 391              	 .loc 1 446 0
 392 009a 43F00443 	 orr r3,r3,#-2080374784
 393              	.LVL42:
 447:C:/Files/Projects/Git/XMCLib/src\xmc_usbd.c ****   xmc_device.endpoint_out_register[ep->address_u.address_st.number]->doepctl = epctl.d32;
 394              	 .loc 1 447 0
 395 009e 1360     	 str r3,[r2]
 448:C:/Files/Projects/Git/XMCLib/src\xmc_usbd.c **** }
 396              	 .loc 1 448 0
 397 00a0 30BC     	 pop {r4,r5}
 398              	.LCFI6:
 399              	 .cfi_restore 5
 400              	 .cfi_restore 4
 401              	 .cfi_def_cfa_offset 0
 402 00a2 7047     	 bx lr
 403              	.L41:
 404              	 .align 2
 405              	.L40:
 406 00a4 00000000 	 .word .LANCHOR1
 407 00a8 00000000 	 .word .LANCHOR0
 408              	 .cfi_endproc
 409              	.LFE182:
 411              	 .section .text.XMC_USBD_lStartWriteXfer,"ax",%progbits
 412              	 .align 2
 413              	 .thumb
 414              	 .thumb_func
 416              	XMC_USBD_lStartWriteXfer:
 417              	.LFB183:
 449:C:/Files/Projects/Git/XMCLib/src\xmc_usbd.c **** 
 450:C:/Files/Projects/Git/XMCLib/src\xmc_usbd.c **** /**
 451:C:/Files/Projects/Git/XMCLib/src\xmc_usbd.c ****  * @brief Start a new in transfer
 452:C:/Files/Projects/Git/XMCLib/src\xmc_usbd.c ****  *
 453:C:/Files/Projects/Git/XMCLib/src\xmc_usbd.c ****  * Based on the transfer values of the endpoint the in endpoint registers will be programmed
 454:C:/Files/Projects/Git/XMCLib/src\xmc_usbd.c ****  * to start a new in transfer
 455:C:/Files/Projects/Git/XMCLib/src\xmc_usbd.c ****  *
 456:C:/Files/Projects/Git/XMCLib/src\xmc_usbd.c ****  * @param[in] ep Endpoint to start the transfer
 457:C:/Files/Projects/Git/XMCLib/src\xmc_usbd.c ****  */
 458:C:/Files/Projects/Git/XMCLib/src\xmc_usbd.c **** static void XMC_USBD_lStartWriteXfer(XMC_USBD_EP_t *const ep) 
 459:C:/Files/Projects/Git/XMCLib/src\xmc_usbd.c **** {
 418              	 .loc 1 459 0
 419              	 .cfi_startproc
 420              	 
 421              	 
 422              	 
 423              	.LVL43:
 424 0000 70B4     	 push {r4,r5,r6}
 425              	.LCFI7:
 426              	 .cfi_def_cfa_offset 12
 427              	 .cfi_offset 4,-12
 428              	 .cfi_offset 5,-8
 429              	 .cfi_offset 6,-4
 460:C:/Files/Projects/Git/XMCLib/src\xmc_usbd.c ****   deptsiz_data_t size;
 461:C:/Files/Projects/Git/XMCLib/src\xmc_usbd.c ****   depctl_data_t ctl;
 462:C:/Files/Projects/Git/XMCLib/src\xmc_usbd.c **** 	
 463:C:/Files/Projects/Git/XMCLib/src\xmc_usbd.c ****   size.d32 = 0U;  
 430              	 .loc 1 463 0
 431 0002 0024     	 movs r4,#0
 432              	.LVL44:
 464:C:/Files/Projects/Git/XMCLib/src\xmc_usbd.c ****   ctl.d32 = xmc_device.endpoint_in_register[ep->address_u.address_st.number]->diepctl;
 433              	 .loc 1 464 0
 434 0004 0378     	 ldrb r3,[r0]
 435 0006 03F00F03 	 and r3,r3,#15
 436 000a 6A33     	 adds r3,r3,#106
 437 000c 304A     	 ldr r2,.L51
 438 000e 52F82330 	 ldr r3,[r2,r3,lsl#2]
 439 0012 1968     	 ldr r1,[r3]
 440              	.LVL45:
 465:C:/Files/Projects/Git/XMCLib/src\xmc_usbd.c **** 
 466:C:/Files/Projects/Git/XMCLib/src\xmc_usbd.c ****   if ((ep->xferTotal - ep->xferLength)  < ep->maxTransferSize)
 441              	 .loc 1 466 0
 442 0014 056B     	 ldr r5,[r0,#48]
 443 0016 826A     	 ldr r2,[r0,#40]
 444 0018 8368     	 ldr r3,[r0,#8]
 445 001a C3F31203 	 ubfx r3,r3,#0,#19
 446 001e AE1A     	 subs r6,r5,r2
 447 0020 9E42     	 cmp r6,r3
 467:C:/Files/Projects/Git/XMCLib/src\xmc_usbd.c ****   {
 468:C:/Files/Projects/Git/XMCLib/src\xmc_usbd.c ****     ep->xferLength = ep->xferTotal;
 448              	 .loc 1 468 0
 449 0022 32BF     	 itee cc
 450 0024 8562     	 strcc r5,[r0,#40]
 469:C:/Files/Projects/Git/XMCLib/src\xmc_usbd.c ****   }
 470:C:/Files/Projects/Git/XMCLib/src\xmc_usbd.c ****   else
 471:C:/Files/Projects/Git/XMCLib/src\xmc_usbd.c ****   {
 472:C:/Files/Projects/Git/XMCLib/src\xmc_usbd.c ****     ep->xferLength += ep->maxTransferSize;
 451              	 .loc 1 472 0
 452 0026 9B18     	 addcs r3,r3,r2
 453 0028 8362     	 strcs r3,[r0,#40]
 473:C:/Files/Projects/Git/XMCLib/src\xmc_usbd.c ****   }
 474:C:/Files/Projects/Git/XMCLib/src\xmc_usbd.c ****   if (ep->xferLength == 0U)
 454              	 .loc 1 474 0
 455 002a 836A     	 ldr r3,[r0,#40]
 456 002c 2BB9     	 cbnz r3,.L45
 475:C:/Files/Projects/Git/XMCLib/src\xmc_usbd.c ****   {
 476:C:/Files/Projects/Git/XMCLib/src\xmc_usbd.c ****     size.b.xfersize = 0U;
 457              	 .loc 1 476 0
 458 002e 6FF31204 	 bfc r4,#0,#19
 459              	.LVL46:
 477:C:/Files/Projects/Git/XMCLib/src\xmc_usbd.c ****     size.b.pktcnt = 1U;
 460              	 .loc 1 477 0
 461 0032 0123     	 movs r3,#1
 462 0034 63F3DC44 	 bfi r4,r3,#19,#10
 463 0038 36E0     	 b .L46
 464              	.LVL47:
 465              	.L45:
 478:C:/Files/Projects/Git/XMCLib/src\xmc_usbd.c ****   }
 479:C:/Files/Projects/Git/XMCLib/src\xmc_usbd.c ****   else
 480:C:/Files/Projects/Git/XMCLib/src\xmc_usbd.c ****   {
 481:C:/Files/Projects/Git/XMCLib/src\xmc_usbd.c ****     if (ep->address_u.address_st.number == 0U)
 466              	 .loc 1 481 0
 467 003a 0278     	 ldrb r2,[r0]
 468 003c 12F00F0F 	 tst r2,#15
 469 0040 07D1     	 bne .L47
 482:C:/Files/Projects/Git/XMCLib/src\xmc_usbd.c ****     {
 483:C:/Files/Projects/Git/XMCLib/src\xmc_usbd.c ****       size.b.pktcnt = 1U;
 470              	 .loc 1 483 0
 471 0042 0122     	 movs r2,#1
 472 0044 62F3DC44 	 bfi r4,r2,#19,#10
 473              	.LVL48:
 484:C:/Files/Projects/Git/XMCLib/src\xmc_usbd.c ****       /* ep->maxXferSize equals maxPacketSize */
 485:C:/Files/Projects/Git/XMCLib/src\xmc_usbd.c ****       size.b.xfersize = (uint32_t)(ep->xferLength - ep->xferCount);
 474              	 .loc 1 485 0
 475 0048 C26A     	 ldr r2,[r0,#44]
 476 004a 9B1A     	 subs r3,r3,r2
 477 004c 63F31204 	 bfi r4,r3,#0,#19
 478 0050 0FE0     	 b .L48
 479              	.LVL49:
 480              	.L47:
 486:C:/Files/Projects/Git/XMCLib/src\xmc_usbd.c ****     }
 487:C:/Files/Projects/Git/XMCLib/src\xmc_usbd.c ****     else
 488:C:/Files/Projects/Git/XMCLib/src\xmc_usbd.c ****     {
 489:C:/Files/Projects/Git/XMCLib/src\xmc_usbd.c ****       size.b.xfersize =(uint32_t)(ep->xferLength - ep->xferCount);
 481              	 .loc 1 489 0
 482 0052 C26A     	 ldr r2,[r0,#44]
 483 0054 9D1A     	 subs r5,r3,r2
 484 0056 65F31204 	 bfi r4,r5,#0,#19
 485              	.LVL50:
 490:C:/Files/Projects/Git/XMCLib/src\xmc_usbd.c ****       size.b.pktcnt = (uint16_t)(((uint16_t)(ep->xferLength - ep->xferCount) + (uint16_t)((uint16_t
 486              	 .loc 1 490 0
 487 005a 4568     	 ldr r5,[r0,#4]
 488 005c C5F3C625 	 ubfx r5,r5,#11,#7
 489 0060 9A1A     	 subs r2,r3,r2
 490 0062 6B1E     	 subs r3,r5,#1
 491 0064 9BB2     	 uxth r3,r3
 492 0066 13FA82F3 	 uxtah r3,r3,r2
 493 006a 93FBF5F3 	 sdiv r3,r3,r5
 494 006e 63F3DC44 	 bfi r4,r3,#19,#10
 495              	.L48:
 491:C:/Files/Projects/Git/XMCLib/src\xmc_usbd.c ****     		 ep->maxPacketSize);
 492:C:/Files/Projects/Git/XMCLib/src\xmc_usbd.c ****     }
 493:C:/Files/Projects/Git/XMCLib/src\xmc_usbd.c ****     if(usbd_init->usbd_transfer_mode == XMC_USBD_USE_DMA)
 496              	 .loc 1 493 0
 497 0072 184B     	 ldr r3,.L51+4
 498 0074 1B68     	 ldr r3,[r3]
 499 0076 5A7B     	 ldrb r2,[r3,#13]
 500 0078 42B9     	 cbnz r2,.L49
 494:C:/Files/Projects/Git/XMCLib/src\xmc_usbd.c ****     {
 495:C:/Files/Projects/Git/XMCLib/src\xmc_usbd.c ****       /* Program dma*/
 496:C:/Files/Projects/Git/XMCLib/src\xmc_usbd.c ****       xmc_device.endpoint_in_register[ep->address_u.address_st.number]->diepdma = (uint32_t)ep->xfe
 501              	 .loc 1 496 0
 502 007a 0278     	 ldrb r2,[r0]
 503 007c 02F00F02 	 and r2,r2,#15
 504 0080 6A32     	 adds r2,r2,#106
 505 0082 134D     	 ldr r5,.L51
 506 0084 55F82220 	 ldr r2,[r5,r2,lsl#2]
 507 0088 456A     	 ldr r5,[r0,#36]
 508 008a 5561     	 str r5,[r2,#20]
 509              	.L49:
 497:C:/Files/Projects/Git/XMCLib/src\xmc_usbd.c ****     }
 498:C:/Files/Projects/Git/XMCLib/src\xmc_usbd.c ****     if(usbd_init->usbd_transfer_mode == XMC_USBD_USE_FIFO)
 510              	 .loc 1 498 0
 511 008c 5B7B     	 ldrb r3,[r3,#13]
 512 008e 012B     	 cmp r3,#1
 513 0090 0AD1     	 bne .L46
 499:C:/Files/Projects/Git/XMCLib/src\xmc_usbd.c ****     {
 500:C:/Files/Projects/Git/XMCLib/src\xmc_usbd.c ****       /* enable fifo empty interrupt */
 501:C:/Files/Projects/Git/XMCLib/src\xmc_usbd.c **** 			xmc_device.device_register->dtknqr4_fifoemptymsk |= (uint32_t)((uint32_t)1U << (uint8_t)ep->addr
 514              	 .loc 1 501 0
 515 0092 0F4B     	 ldr r3,.L51
 516 0094 D3F8A461 	 ldr r6,[r3,#420]
 517 0098 726B     	 ldr r2,[r6,#52]
 518 009a 0578     	 ldrb r5,[r0]
 519 009c 05F00F05 	 and r5,r5,#15
 520 00a0 0123     	 movs r3,#1
 521 00a2 AB40     	 lsls r3,r3,r5
 522 00a4 1343     	 orrs r3,r3,r2
 523 00a6 7363     	 str r3,[r6,#52]
 524              	.L46:
 502:C:/Files/Projects/Git/XMCLib/src\xmc_usbd.c ****     }
 503:C:/Files/Projects/Git/XMCLib/src\xmc_usbd.c ****   }
 504:C:/Files/Projects/Git/XMCLib/src\xmc_usbd.c **** 
 505:C:/Files/Projects/Git/XMCLib/src\xmc_usbd.c ****   /* Program size of transfer and enable endpoint */
 506:C:/Files/Projects/Git/XMCLib/src\xmc_usbd.c ****   xmc_device.endpoint_in_register[ep->address_u.address_st.number]->dieptsiz = size.d32;
 525              	 .loc 1 506 0
 526 00a8 094A     	 ldr r2,.L51
 527 00aa 0378     	 ldrb r3,[r0]
 528 00ac 03F00F03 	 and r3,r3,#15
 529 00b0 6A33     	 adds r3,r3,#106
 530 00b2 52F82330 	 ldr r3,[r2,r3,lsl#2]
 531 00b6 1C61     	 str r4,[r3,#16]
 507:C:/Files/Projects/Git/XMCLib/src\xmc_usbd.c ****   ctl.b.epena = 1U;
 508:C:/Files/Projects/Git/XMCLib/src\xmc_usbd.c ****   ctl.b.cnak = 1U;
 532              	 .loc 1 508 0
 533 00b8 41F00441 	 orr r1,r1,#-2080374784
 534              	.LVL51:
 509:C:/Files/Projects/Git/XMCLib/src\xmc_usbd.c ****   xmc_device.endpoint_in_register[ep->address_u.address_st.number]->diepctl = ctl.d32;
 535              	 .loc 1 509 0
 536 00bc 0378     	 ldrb r3,[r0]
 537 00be 03F00F03 	 and r3,r3,#15
 538 00c2 6A33     	 adds r3,r3,#106
 539 00c4 52F82330 	 ldr r3,[r2,r3,lsl#2]
 540              	.LVL52:
 541 00c8 1960     	 str r1,[r3]
 510:C:/Files/Projects/Git/XMCLib/src\xmc_usbd.c **** }
 542              	 .loc 1 510 0
 543 00ca 70BC     	 pop {r4,r5,r6}
 544              	.LCFI8:
 545              	 .cfi_restore 6
 546              	 .cfi_restore 5
 547              	 .cfi_restore 4
 548              	 .cfi_def_cfa_offset 0
 549              	.LVL53:
 550 00cc 7047     	 bx lr
 551              	.L52:
 552 00ce 00BF     	 .align 2
 553              	.L51:
 554 00d0 00000000 	 .word .LANCHOR0
 555 00d4 00000000 	 .word .LANCHOR1
 556              	 .cfi_endproc
 557              	.LFE183:
 559              	 .section .text.XMC_USBD_GetCapabilities,"ax",%progbits
 560              	 .align 2
 561              	 .global XMC_USBD_GetCapabilities
 562              	 .thumb
 563              	 .thumb_func
 565              	XMC_USBD_GetCapabilities:
 566              	.LFB199:
 511:C:/Files/Projects/Git/XMCLib/src\xmc_usbd.c **** 
 512:C:/Files/Projects/Git/XMCLib/src\xmc_usbd.c **** 
 513:C:/Files/Projects/Git/XMCLib/src\xmc_usbd.c **** /**
 514:C:/Files/Projects/Git/XMCLib/src\xmc_usbd.c ****  * @brief Handles the USBD reset interrupt
 515:C:/Files/Projects/Git/XMCLib/src\xmc_usbd.c ****  *
 516:C:/Files/Projects/Git/XMCLib/src\xmc_usbd.c ****  * When ever the host sets the bus into reset condition the usb otg_core generates
 517:C:/Files/Projects/Git/XMCLib/src\xmc_usbd.c ****  * an interrupt, which is handled by this function. It resets the complete otg_core
 518:C:/Files/Projects/Git/XMCLib/src\xmc_usbd.c ****  * into the default state.
 519:C:/Files/Projects/Git/XMCLib/src\xmc_usbd.c ****  */
 520:C:/Files/Projects/Git/XMCLib/src\xmc_usbd.c **** static void XMC_USBD_lHandleUSBReset(const XMC_USBD_t *const obj) 
 521:C:/Files/Projects/Git/XMCLib/src\xmc_usbd.c **** {
 522:C:/Files/Projects/Git/XMCLib/src\xmc_usbd.c ****   uint32_t i;
 523:C:/Files/Projects/Git/XMCLib/src\xmc_usbd.c ****   depctl_data_t epctl;
 524:C:/Files/Projects/Git/XMCLib/src\xmc_usbd.c ****   dctl_data_t dctl;
 525:C:/Files/Projects/Git/XMCLib/src\xmc_usbd.c ****   fifosize_data_t gnptxfsiz;
 526:C:/Files/Projects/Git/XMCLib/src\xmc_usbd.c ****   daint_data_t daint;
 527:C:/Files/Projects/Git/XMCLib/src\xmc_usbd.c ****   dcfg_data_t dcfg;
 528:C:/Files/Projects/Git/XMCLib/src\xmc_usbd.c **** 	
 529:C:/Files/Projects/Git/XMCLib/src\xmc_usbd.c ****   /* Clear the Remote Wakeup Signaling */
 530:C:/Files/Projects/Git/XMCLib/src\xmc_usbd.c ****   dctl.d32 = xmc_device.device_register->dctl;
 531:C:/Files/Projects/Git/XMCLib/src\xmc_usbd.c ****   dctl.b.rmtwkupsig = 1U;
 532:C:/Files/Projects/Git/XMCLib/src\xmc_usbd.c ****   xmc_device.device_register->dctl = dctl.d32;
 533:C:/Files/Projects/Git/XMCLib/src\xmc_usbd.c **** 
 534:C:/Files/Projects/Git/XMCLib/src\xmc_usbd.c ****   /* enable naks for all eps */
 535:C:/Files/Projects/Git/XMCLib/src\xmc_usbd.c ****   for (i = 0U;i < (uint8_t)XMC_USBD_NUM_EPS;i++)
 536:C:/Files/Projects/Git/XMCLib/src\xmc_usbd.c ****   {
 537:C:/Files/Projects/Git/XMCLib/src\xmc_usbd.c ****     epctl.d32 = xmc_device.endpoint_out_register[i]->doepctl;
 538:C:/Files/Projects/Git/XMCLib/src\xmc_usbd.c **** 		epctl.b.snak = 1U;
 539:C:/Files/Projects/Git/XMCLib/src\xmc_usbd.c **** 		epctl.b.stall = 0U;
 540:C:/Files/Projects/Git/XMCLib/src\xmc_usbd.c **** 		xmc_device.endpoint_out_register[i]->doepctl = epctl.d32;
 541:C:/Files/Projects/Git/XMCLib/src\xmc_usbd.c ****   }
 542:C:/Files/Projects/Git/XMCLib/src\xmc_usbd.c **** 
 543:C:/Files/Projects/Git/XMCLib/src\xmc_usbd.c ****   /* Configure fifos */
 544:C:/Files/Projects/Git/XMCLib/src\xmc_usbd.c ****   /* Calculate the size of the rx fifo */
 545:C:/Files/Projects/Git/XMCLib/src\xmc_usbd.c ****   xmc_device.global_register->grxfsiz = 64U;
 546:C:/Files/Projects/Git/XMCLib/src\xmc_usbd.c ****   /* Calculate the size of the tx fifo for ep 0 */  
 547:C:/Files/Projects/Git/XMCLib/src\xmc_usbd.c ****   gnptxfsiz.d32 = 0U;
 548:C:/Files/Projects/Git/XMCLib/src\xmc_usbd.c ****   gnptxfsiz.b.depth = 16U;
 549:C:/Files/Projects/Git/XMCLib/src\xmc_usbd.c ****   gnptxfsiz.b.startaddr = 64U;
 550:C:/Files/Projects/Git/XMCLib/src\xmc_usbd.c ****   xmc_device.global_register->gnptxfsiz = gnptxfsiz.d32;
 551:C:/Files/Projects/Git/XMCLib/src\xmc_usbd.c ****   /* calculate the size for the rest */
 552:C:/Files/Projects/Git/XMCLib/src\xmc_usbd.c ****   for (i = 1U;i < (uint8_t)XMC_USBD_NUM_TX_FIFOS;i++)
 553:C:/Files/Projects/Git/XMCLib/src\xmc_usbd.c ****   {
 554:C:/Files/Projects/Git/XMCLib/src\xmc_usbd.c ****     xmc_device.global_register->dtxfsiz[i- 1U] = (uint32_t)(((256U + (i*(64U)))/4U) | ((uint32_t)16
 555:C:/Files/Projects/Git/XMCLib/src\xmc_usbd.c ****   }
 556:C:/Files/Projects/Git/XMCLib/src\xmc_usbd.c **** 
 557:C:/Files/Projects/Git/XMCLib/src\xmc_usbd.c ****   /* flush the fifos for proper operation */
 558:C:/Files/Projects/Git/XMCLib/src\xmc_usbd.c ****   XMC_USBD_lFlushTXFifo(0x10U); /* 0x10 == all fifos, see doc */
 559:C:/Files/Projects/Git/XMCLib/src\xmc_usbd.c ****   XMC_USBD_lFlushTXFifo(0x0U);
 560:C:/Files/Projects/Git/XMCLib/src\xmc_usbd.c ****   XMC_USBD_lFlushRXFifo();
 561:C:/Files/Projects/Git/XMCLib/src\xmc_usbd.c ****   /* Flush learning queue not needed due to fifo config */
 562:C:/Files/Projects/Git/XMCLib/src\xmc_usbd.c ****   /* enable ep0 interrupts */  
 563:C:/Files/Projects/Git/XMCLib/src\xmc_usbd.c ****   daint.d32 = 0U;
 564:C:/Files/Projects/Git/XMCLib/src\xmc_usbd.c ****   daint.b.inep0 = 1U;
 565:C:/Files/Projects/Git/XMCLib/src\xmc_usbd.c ****   daint.b.outep0 = 1U;
 566:C:/Files/Projects/Git/XMCLib/src\xmc_usbd.c ****   xmc_device.device_register->daintmsk = daint.d32;
 567:C:/Files/Projects/Git/XMCLib/src\xmc_usbd.c **** 
 568:C:/Files/Projects/Git/XMCLib/src\xmc_usbd.c ****   /* enable endpoint interrupts */
 569:C:/Files/Projects/Git/XMCLib/src\xmc_usbd.c ****   /* out ep interrupts */
 570:C:/Files/Projects/Git/XMCLib/src\xmc_usbd.c ****   XMC_USBD_EnableEventOUTEP(((uint32_t)XMC_USBD_EVENT_OUT_EP_TX_COMPLET | (uint32_t)XMC_USBD_EVENT_
 571:C:/Files/Projects/Git/XMCLib/src\xmc_usbd.c **** 		  	  	  	  	  	  (uint32_t)XMC_USBD_EVENT_OUT_EP_SETUP | (uint32_t)XMC_USBD_EVENT_OUT_EP_AHB_ERRO
 572:C:/Files/Projects/Git/XMCLib/src\xmc_usbd.c **** 
 573:C:/Files/Projects/Git/XMCLib/src\xmc_usbd.c ****   /*in ep interrupts */
 574:C:/Files/Projects/Git/XMCLib/src\xmc_usbd.c ****   XMC_USBD_EnableEventINEP(((uint32_t)XMC_USBD_EVENT_IN_EP_TX_COMPLET | (uint32_t)XMC_USBD_EVENT_IN
 575:C:/Files/Projects/Git/XMCLib/src\xmc_usbd.c **** 		  (uint32_t)XMC_USBD_EVENT_IN_EP_AHB_ERROR | (uint32_t)XMC_USBD_EVENT_IN_EP_TIMEOUT));
 576:C:/Files/Projects/Git/XMCLib/src\xmc_usbd.c **** 
 577:C:/Files/Projects/Git/XMCLib/src\xmc_usbd.c **** 
 578:C:/Files/Projects/Git/XMCLib/src\xmc_usbd.c ****   /* Clear device Address */  
 579:C:/Files/Projects/Git/XMCLib/src\xmc_usbd.c ****   dcfg.d32 = xmc_device.device_register->dcfg;
 580:C:/Files/Projects/Git/XMCLib/src\xmc_usbd.c ****   dcfg.b.devaddr = 0U;
 581:C:/Files/Projects/Git/XMCLib/src\xmc_usbd.c ****   xmc_device.device_register->dcfg = dcfg.d32;
 582:C:/Files/Projects/Git/XMCLib/src\xmc_usbd.c **** 
 583:C:/Files/Projects/Git/XMCLib/src\xmc_usbd.c ****   if(obj->usbd_transfer_mode == XMC_USBD_USE_FIFO)
 584:C:/Files/Projects/Git/XMCLib/src\xmc_usbd.c ****   {
 585:C:/Files/Projects/Git/XMCLib/src\xmc_usbd.c ****     /* Clear Empty interrupt */
 586:C:/Files/Projects/Git/XMCLib/src\xmc_usbd.c ****     xmc_device.device_register->dtknqr4_fifoemptymsk = 0U;
 587:C:/Files/Projects/Git/XMCLib/src\xmc_usbd.c ****   }
 588:C:/Files/Projects/Git/XMCLib/src\xmc_usbd.c **** 
 589:C:/Files/Projects/Git/XMCLib/src\xmc_usbd.c ****   xmc_device.ep[0U].outInUse = 0U;
 590:C:/Files/Projects/Git/XMCLib/src\xmc_usbd.c ****   xmc_device.ep[0U].inInUse = 0U;
 591:C:/Files/Projects/Git/XMCLib/src\xmc_usbd.c **** 
 592:C:/Files/Projects/Git/XMCLib/src\xmc_usbd.c ****   xmc_device.DeviceEvent_cb(XMC_USBD_EVENT_RESET);
 593:C:/Files/Projects/Git/XMCLib/src\xmc_usbd.c **** 
 594:C:/Files/Projects/Git/XMCLib/src\xmc_usbd.c ****   /* clear reset intr */
 595:C:/Files/Projects/Git/XMCLib/src\xmc_usbd.c ****   XMC_USBD_ClearEvent(XMC_USBD_EVENT_RESET);
 596:C:/Files/Projects/Git/XMCLib/src\xmc_usbd.c **** }
 597:C:/Files/Projects/Git/XMCLib/src\xmc_usbd.c **** 
 598:C:/Files/Projects/Git/XMCLib/src\xmc_usbd.c **** /**
 599:C:/Files/Projects/Git/XMCLib/src\xmc_usbd.c **** * @brief Handle OTG Interrupt
 600:C:/Files/Projects/Git/XMCLib/src\xmc_usbd.c **** *
 601:C:/Files/Projects/Git/XMCLib/src\xmc_usbd.c **** * It detects especially connect and disconnect events.
 602:C:/Files/Projects/Git/XMCLib/src\xmc_usbd.c **** */
 603:C:/Files/Projects/Git/XMCLib/src\xmc_usbd.c **** static void XMC_USBD_lHandleOTGInt(void) 
 604:C:/Files/Projects/Git/XMCLib/src\xmc_usbd.c **** {
 605:C:/Files/Projects/Git/XMCLib/src\xmc_usbd.c ****   gotgint_data_t data;
 606:C:/Files/Projects/Git/XMCLib/src\xmc_usbd.c ****   data.d32 = xmc_device.global_register->gotgint;
 607:C:/Files/Projects/Git/XMCLib/src\xmc_usbd.c ****   if (data.b.sesenddet)
 608:C:/Files/Projects/Git/XMCLib/src\xmc_usbd.c ****   {
 609:C:/Files/Projects/Git/XMCLib/src\xmc_usbd.c **** 		xmc_device.IsPowered = 0U;
 610:C:/Files/Projects/Git/XMCLib/src\xmc_usbd.c **** 		xmc_device.DeviceEvent_cb(XMC_USBD_EVENT_POWER_OFF);
 611:C:/Files/Projects/Git/XMCLib/src\xmc_usbd.c ****   }
 612:C:/Files/Projects/Git/XMCLib/src\xmc_usbd.c ****   XMC_USBD_lClearEventOTG(data.d32);
 613:C:/Files/Projects/Git/XMCLib/src\xmc_usbd.c **** 
 614:C:/Files/Projects/Git/XMCLib/src\xmc_usbd.c **** }
 615:C:/Files/Projects/Git/XMCLib/src\xmc_usbd.c **** 
 616:C:/Files/Projects/Git/XMCLib/src\xmc_usbd.c **** /**
 617:C:/Files/Projects/Git/XMCLib/src\xmc_usbd.c ****  * @brief Interrupt handler for device enumeration done.
 618:C:/Files/Projects/Git/XMCLib/src\xmc_usbd.c ****  *
 619:C:/Files/Projects/Git/XMCLib/src\xmc_usbd.c ****  * Handles the enumeration done from dwc_otg, when the host has enumerated the device.
 620:C:/Files/Projects/Git/XMCLib/src\xmc_usbd.c ****  */
 621:C:/Files/Projects/Git/XMCLib/src\xmc_usbd.c **** static void XMC_USBD_lHandleEnumDone(void) 
 622:C:/Files/Projects/Git/XMCLib/src\xmc_usbd.c **** {
 623:C:/Files/Projects/Git/XMCLib/src\xmc_usbd.c ****   /* Normaly we need to check dctl
 624:C:/Files/Projects/Git/XMCLib/src\xmc_usbd.c ****    * We are always fullspeed, so max it up. */
 625:C:/Files/Projects/Git/XMCLib/src\xmc_usbd.c ****   depctl_data_t epctl;
 626:C:/Files/Projects/Git/XMCLib/src\xmc_usbd.c ****   gusbcfg_data_t gusbcfg;
 627:C:/Files/Projects/Git/XMCLib/src\xmc_usbd.c **** 	
 628:C:/Files/Projects/Git/XMCLib/src\xmc_usbd.c ****   epctl.d32=xmc_device.endpoint_in_register[0U]->diepctl;
 629:C:/Files/Projects/Git/XMCLib/src\xmc_usbd.c ****   epctl.b.mps = 0x00U; /* 64 Byte, this is also automatically set for out ep */
 630:C:/Files/Projects/Git/XMCLib/src\xmc_usbd.c ****   xmc_device.endpoint_in_register[0U]->diepctl = epctl.d32;
 631:C:/Files/Projects/Git/XMCLib/src\xmc_usbd.c **** 
 632:C:/Files/Projects/Git/XMCLib/src\xmc_usbd.c ****   /* update device connected flag */
 633:C:/Files/Projects/Git/XMCLib/src\xmc_usbd.c ****   xmc_device.IsConnected = 1U;
 634:C:/Files/Projects/Git/XMCLib/src\xmc_usbd.c ****   xmc_device.IsPowered = 1U;
 635:C:/Files/Projects/Git/XMCLib/src\xmc_usbd.c **** 
 636:C:/Files/Projects/Git/XMCLib/src\xmc_usbd.c ****   xmc_device.DeviceEvent_cb(XMC_USBD_EVENT_CONNECT);
 637:C:/Files/Projects/Git/XMCLib/src\xmc_usbd.c **** 
 638:C:/Files/Projects/Git/XMCLib/src\xmc_usbd.c ****   /* Set Trim */  
 639:C:/Files/Projects/Git/XMCLib/src\xmc_usbd.c ****   gusbcfg.d32 = xmc_device.global_register->gusbcfg;
 640:C:/Files/Projects/Git/XMCLib/src\xmc_usbd.c ****   gusbcfg.b.usbtrdtim = 9U; /* default value for LS/FS */
 641:C:/Files/Projects/Git/XMCLib/src\xmc_usbd.c ****   xmc_device.global_register->gusbcfg = gusbcfg.d32;
 642:C:/Files/Projects/Git/XMCLib/src\xmc_usbd.c **** 
 643:C:/Files/Projects/Git/XMCLib/src\xmc_usbd.c ****   /* clear interrupt */
 644:C:/Files/Projects/Git/XMCLib/src\xmc_usbd.c ****   XMC_USBD_ClearEvent(XMC_USBD_EVENT_ENUMDONE);
 645:C:/Files/Projects/Git/XMCLib/src\xmc_usbd.c **** }
 646:C:/Files/Projects/Git/XMCLib/src\xmc_usbd.c **** 
 647:C:/Files/Projects/Git/XMCLib/src\xmc_usbd.c **** 
 648:C:/Files/Projects/Git/XMCLib/src\xmc_usbd.c **** /**
 649:C:/Files/Projects/Git/XMCLib/src\xmc_usbd.c ****  * @brief Handles all interrupts for all out endpoints
 650:C:/Files/Projects/Git/XMCLib/src\xmc_usbd.c ****  *
 651:C:/Files/Projects/Git/XMCLib/src\xmc_usbd.c ****  * The interrupt handler first checks, which endpoint has caused the interrupt and then
 652:C:/Files/Projects/Git/XMCLib/src\xmc_usbd.c ****  * determines, which interrupt should be handled.
 653:C:/Files/Projects/Git/XMCLib/src\xmc_usbd.c ****  */
 654:C:/Files/Projects/Git/XMCLib/src\xmc_usbd.c **** static void XMC_USBD_lHandleOEPInt(const XMC_USBD_t *const obj) 
 655:C:/Files/Projects/Git/XMCLib/src\xmc_usbd.c **** {
 656:C:/Files/Projects/Git/XMCLib/src\xmc_usbd.c ****   daint_data_t daint;
 657:C:/Files/Projects/Git/XMCLib/src\xmc_usbd.c ****   daint_data_t daintmsk;
 658:C:/Files/Projects/Git/XMCLib/src\xmc_usbd.c ****   doepmsk_data_t doepmsk;
 659:C:/Files/Projects/Git/XMCLib/src\xmc_usbd.c ****   doepint_data_t doepint;
 660:C:/Files/Projects/Git/XMCLib/src\xmc_usbd.c ****   deptsiz_data_t doeptsiz;
 661:C:/Files/Projects/Git/XMCLib/src\xmc_usbd.c ****   XMC_USBD_EP_t *ep;
 662:C:/Files/Projects/Git/XMCLib/src\xmc_usbd.c ****   uint16_t temp;
 663:C:/Files/Projects/Git/XMCLib/src\xmc_usbd.c ****   uint16_t temp1;
 664:C:/Files/Projects/Git/XMCLib/src\xmc_usbd.c ****   uint16_t mask;
 665:C:/Files/Projects/Git/XMCLib/src\xmc_usbd.c ****   uint8_t ep_num;
 666:C:/Files/Projects/Git/XMCLib/src\xmc_usbd.c **** 	
 667:C:/Files/Projects/Git/XMCLib/src\xmc_usbd.c ****   daint.d32 = xmc_device.device_register->daint;
 668:C:/Files/Projects/Git/XMCLib/src\xmc_usbd.c ****   
 669:C:/Files/Projects/Git/XMCLib/src\xmc_usbd.c ****   daintmsk.d32 = xmc_device.device_register->daintmsk;
 670:C:/Files/Projects/Git/XMCLib/src\xmc_usbd.c ****   
 671:C:/Files/Projects/Git/XMCLib/src\xmc_usbd.c ****   doepmsk.d32 = xmc_device.device_register->doepmsk;  
 672:C:/Files/Projects/Git/XMCLib/src\xmc_usbd.c ****   
 673:C:/Files/Projects/Git/XMCLib/src\xmc_usbd.c ****   mask = daint.ep.out & daintmsk.ep.out;
 674:C:/Files/Projects/Git/XMCLib/src\xmc_usbd.c ****   ep_num = 0U;
 675:C:/Files/Projects/Git/XMCLib/src\xmc_usbd.c ****   doeptsiz.d32 = 0U;
 676:C:/Files/Projects/Git/XMCLib/src\xmc_usbd.c ****  
 677:C:/Files/Projects/Git/XMCLib/src\xmc_usbd.c ****   while ((uint16_t)mask >> ep_num)
 678:C:/Files/Projects/Git/XMCLib/src\xmc_usbd.c ****   {
 679:C:/Files/Projects/Git/XMCLib/src\xmc_usbd.c ****     temp1 = (mask >> (uint16_t)ep_num);
 680:C:/Files/Projects/Git/XMCLib/src\xmc_usbd.c ****     temp = temp1 & 0x1U;
 681:C:/Files/Projects/Git/XMCLib/src\xmc_usbd.c ****     if (temp)
 682:C:/Files/Projects/Git/XMCLib/src\xmc_usbd.c ****     {
 683:C:/Files/Projects/Git/XMCLib/src\xmc_usbd.c ****       /* load register data for endpoint */
 684:C:/Files/Projects/Git/XMCLib/src\xmc_usbd.c ****       ep = &xmc_device.ep[ep_num];
 685:C:/Files/Projects/Git/XMCLib/src\xmc_usbd.c ****       doepint.d32 = xmc_device.endpoint_out_register[ep_num]->doepint & doepmsk.d32;
 686:C:/Files/Projects/Git/XMCLib/src\xmc_usbd.c ****       if(obj->usbd_transfer_mode == XMC_USBD_USE_DMA)
 687:C:/Files/Projects/Git/XMCLib/src\xmc_usbd.c ****       {
 688:C:/Files/Projects/Git/XMCLib/src\xmc_usbd.c ****         doeptsiz.d32 = xmc_device.endpoint_out_register[ep_num]->doeptsiz;
 689:C:/Files/Projects/Git/XMCLib/src\xmc_usbd.c ****       }
 690:C:/Files/Projects/Git/XMCLib/src\xmc_usbd.c **** 	  /* Setup Phase Complete */
 691:C:/Files/Projects/Git/XMCLib/src\xmc_usbd.c ****       if (doepint.b.setup)
 692:C:/Files/Projects/Git/XMCLib/src\xmc_usbd.c ****       {
 693:C:/Files/Projects/Git/XMCLib/src\xmc_usbd.c ****         /* ep0 not stalled any more */
 694:C:/Files/Projects/Git/XMCLib/src\xmc_usbd.c ****         ep->isStalled = 0U;
 695:C:/Files/Projects/Git/XMCLib/src\xmc_usbd.c ****         if(obj->usbd_transfer_mode == XMC_USBD_USE_DMA)
 696:C:/Files/Projects/Git/XMCLib/src\xmc_usbd.c ****         {
 697:C:/Files/Projects/Git/XMCLib/src\xmc_usbd.c ****           /* calculate size for setup packet */
 698:C:/Files/Projects/Git/XMCLib/src\xmc_usbd.c **** 		  ep->outBytesAvailable = (uint32_t)(((uint32_t)XMC_USBD_SETUP_COUNT -
 699:C:/Files/Projects/Git/XMCLib/src\xmc_usbd.c **** 		  (uint32_t)((deptsiz0_data_t*)&doeptsiz)->b.supcnt)*(uint32_t)XMC_USBD_SETUP_SIZE);
 700:C:/Files/Projects/Git/XMCLib/src\xmc_usbd.c ****         }
 701:C:/Files/Projects/Git/XMCLib/src\xmc_usbd.c **** 		if(obj->usbd_transfer_mode == XMC_USBD_USE_FIFO)
 702:C:/Files/Projects/Git/XMCLib/src\xmc_usbd.c **** 		{
 703:C:/Files/Projects/Git/XMCLib/src\xmc_usbd.c **** 			ep->outBytesAvailable += ep->xferCount;
 704:C:/Files/Projects/Git/XMCLib/src\xmc_usbd.c **** 		}
 705:C:/Files/Projects/Git/XMCLib/src\xmc_usbd.c **** 		ep->outInUse = 0U;
 706:C:/Files/Projects/Git/XMCLib/src\xmc_usbd.c **** 		xmc_device.EndpointEvent_cb(0U,XMC_USBD_EP_EVENT_SETUP); /* signal endpoint event */
 707:C:/Files/Projects/Git/XMCLib/src\xmc_usbd.c **** 				/* clear the interrupt */
 708:C:/Files/Projects/Git/XMCLib/src\xmc_usbd.c **** 		XMC_USBD_ClearEventOUTEP((uint32_t)XMC_USBD_EVENT_OUT_EP_SETUP,ep_num);
 709:C:/Files/Projects/Git/XMCLib/src\xmc_usbd.c ****       }
 710:C:/Files/Projects/Git/XMCLib/src\xmc_usbd.c ****       if (doepint.b.xfercompl)
 711:C:/Files/Projects/Git/XMCLib/src\xmc_usbd.c ****       {
 712:C:/Files/Projects/Git/XMCLib/src\xmc_usbd.c ****         if(obj->usbd_transfer_mode == XMC_USBD_USE_DMA)
 713:C:/Files/Projects/Git/XMCLib/src\xmc_usbd.c ****         {
 714:C:/Files/Projects/Git/XMCLib/src\xmc_usbd.c ****           uint32_t bytes = (ep->xferLength - ep->xferCount) - doeptsiz.b.xfersize;
 715:C:/Files/Projects/Git/XMCLib/src\xmc_usbd.c ****           ep->xferCount += bytes;
 716:C:/Files/Projects/Git/XMCLib/src\xmc_usbd.c ****           ep->xferBuffer += bytes;
 717:C:/Files/Projects/Git/XMCLib/src\xmc_usbd.c **** 				}
 718:C:/Files/Projects/Git/XMCLib/src\xmc_usbd.c ****         if (ep->xferTotal == ep->xferLength)
 719:C:/Files/Projects/Git/XMCLib/src\xmc_usbd.c ****         {
 720:C:/Files/Projects/Git/XMCLib/src\xmc_usbd.c ****           ep->outBytesAvailable = ep->xferCount;
 721:C:/Files/Projects/Git/XMCLib/src\xmc_usbd.c ****           ep->outInUse = 0U;
 722:C:/Files/Projects/Git/XMCLib/src\xmc_usbd.c ****           xmc_device.EndpointEvent_cb(ep_num,XMC_USBD_EP_EVENT_OUT);
 723:C:/Files/Projects/Git/XMCLib/src\xmc_usbd.c ****         }
 724:C:/Files/Projects/Git/XMCLib/src\xmc_usbd.c ****         else
 725:C:/Files/Projects/Git/XMCLib/src\xmc_usbd.c ****         {
 726:C:/Files/Projects/Git/XMCLib/src\xmc_usbd.c ****           XMC_USBD_lStartReadXfer(ep);
 727:C:/Files/Projects/Git/XMCLib/src\xmc_usbd.c ****         }
 728:C:/Files/Projects/Git/XMCLib/src\xmc_usbd.c **** 
 729:C:/Files/Projects/Git/XMCLib/src\xmc_usbd.c ****       }
 730:C:/Files/Projects/Git/XMCLib/src\xmc_usbd.c **** 
 731:C:/Files/Projects/Git/XMCLib/src\xmc_usbd.c ****       XMC_USBD_ClearEventOUTEP(doepint.d32,ep_num);
 732:C:/Files/Projects/Git/XMCLib/src\xmc_usbd.c ****     }
 733:C:/Files/Projects/Git/XMCLib/src\xmc_usbd.c ****     ep_num++;
 734:C:/Files/Projects/Git/XMCLib/src\xmc_usbd.c ****   }
 735:C:/Files/Projects/Git/XMCLib/src\xmc_usbd.c **** 
 736:C:/Files/Projects/Git/XMCLib/src\xmc_usbd.c ****   /* clear interrupt */
 737:C:/Files/Projects/Git/XMCLib/src\xmc_usbd.c ****   XMC_USBD_ClearEvent(XMC_USBD_EVENT_OUTEP);
 738:C:/Files/Projects/Git/XMCLib/src\xmc_usbd.c **** }
 739:C:/Files/Projects/Git/XMCLib/src\xmc_usbd.c **** 
 740:C:/Files/Projects/Git/XMCLib/src\xmc_usbd.c **** /**
 741:C:/Files/Projects/Git/XMCLib/src\xmc_usbd.c ****  * @brief Handles all interrupts for all in endpoints
 742:C:/Files/Projects/Git/XMCLib/src\xmc_usbd.c ****  *
 743:C:/Files/Projects/Git/XMCLib/src\xmc_usbd.c ****  * The interrupt handler first checks, which endpoint has caused the interrupt and then
 744:C:/Files/Projects/Git/XMCLib/src\xmc_usbd.c ****  * determines, which interrupt should be handled.
 745:C:/Files/Projects/Git/XMCLib/src\xmc_usbd.c ****  */
 746:C:/Files/Projects/Git/XMCLib/src\xmc_usbd.c **** static void XMC_USBD_lHandleIEPInt(const XMC_USBD_t *const obj) 
 747:C:/Files/Projects/Git/XMCLib/src\xmc_usbd.c **** {
 748:C:/Files/Projects/Git/XMCLib/src\xmc_usbd.c ****   XMC_USBD_EP_t *ep;
 749:C:/Files/Projects/Git/XMCLib/src\xmc_usbd.c ****   daint_data_t daint;
 750:C:/Files/Projects/Git/XMCLib/src\xmc_usbd.c ****   diepmsk_data_t diepmsk;
 751:C:/Files/Projects/Git/XMCLib/src\xmc_usbd.c ****   diepint_data_t diepint;
 752:C:/Files/Projects/Git/XMCLib/src\xmc_usbd.c ****   deptsiz_data_t dieptsiz;
 753:C:/Files/Projects/Git/XMCLib/src\xmc_usbd.c ****   uint16_t temp;
 754:C:/Files/Projects/Git/XMCLib/src\xmc_usbd.c ****   uint16_t temp1;
 755:C:/Files/Projects/Git/XMCLib/src\xmc_usbd.c ****   uint16_t mask;
 756:C:/Files/Projects/Git/XMCLib/src\xmc_usbd.c ****   uint8_t ep_num;
 757:C:/Files/Projects/Git/XMCLib/src\xmc_usbd.c ****   uint32_t inepint;
 758:C:/Files/Projects/Git/XMCLib/src\xmc_usbd.c **** 	
 759:C:/Files/Projects/Git/XMCLib/src\xmc_usbd.c ****   daint.d32 = xmc_device.device_register->daint;
 760:C:/Files/Projects/Git/XMCLib/src\xmc_usbd.c ****   
 761:C:/Files/Projects/Git/XMCLib/src\xmc_usbd.c ****   diepmsk.d32 = xmc_device.device_register->diepmsk;
 762:C:/Files/Projects/Git/XMCLib/src\xmc_usbd.c ****   
 763:C:/Files/Projects/Git/XMCLib/src\xmc_usbd.c ****   dieptsiz.d32 = 0U;
 764:C:/Files/Projects/Git/XMCLib/src\xmc_usbd.c ****   mask = daint.ep.in;
 765:C:/Files/Projects/Git/XMCLib/src\xmc_usbd.c ****   ep_num = 0U;
 766:C:/Files/Projects/Git/XMCLib/src\xmc_usbd.c ****   
 767:C:/Files/Projects/Git/XMCLib/src\xmc_usbd.c ****   while ((uint16_t)mask >> ep_num)
 768:C:/Files/Projects/Git/XMCLib/src\xmc_usbd.c ****   {
 769:C:/Files/Projects/Git/XMCLib/src\xmc_usbd.c ****     temp1 = ((uint16_t)mask >> (uint16_t)ep_num);
 770:C:/Files/Projects/Git/XMCLib/src\xmc_usbd.c ****     temp = (uint16_t)temp1 & (uint16_t)0x1U;
 771:C:/Files/Projects/Git/XMCLib/src\xmc_usbd.c ****     if ((uint16_t)temp)
 772:C:/Files/Projects/Git/XMCLib/src\xmc_usbd.c ****     {
 773:C:/Files/Projects/Git/XMCLib/src\xmc_usbd.c ****       ep = &xmc_device.ep[ep_num];
 774:C:/Files/Projects/Git/XMCLib/src\xmc_usbd.c **** 			inepint = (uint32_t)xmc_device.endpoint_in_register[ep_num]->diepint;
 775:C:/Files/Projects/Git/XMCLib/src\xmc_usbd.c ****       diepint.d32 = inepint &
 776:C:/Files/Projects/Git/XMCLib/src\xmc_usbd.c ****       ((((uint32_t)((uint32_t)xmc_device.device_register->dtknqr4_fifoemptymsk >> ep->address_u.add
 777:C:/Files/Projects/Git/XMCLib/src\xmc_usbd.c ****                      0x1U) << 7U) | (uint32_t)diepmsk.d32);
 778:C:/Files/Projects/Git/XMCLib/src\xmc_usbd.c ****       if(obj->usbd_transfer_mode == XMC_USBD_USE_DMA)
 779:C:/Files/Projects/Git/XMCLib/src\xmc_usbd.c ****       {
 780:C:/Files/Projects/Git/XMCLib/src\xmc_usbd.c ****         dieptsiz.d32 = xmc_device.endpoint_in_register[ep_num]->dieptsiz;
 781:C:/Files/Projects/Git/XMCLib/src\xmc_usbd.c ****       }
 782:C:/Files/Projects/Git/XMCLib/src\xmc_usbd.c ****       if(obj->usbd_transfer_mode == XMC_USBD_USE_FIFO)
 783:C:/Files/Projects/Git/XMCLib/src\xmc_usbd.c ****       {
 784:C:/Files/Projects/Git/XMCLib/src\xmc_usbd.c ****         if (diepint.b.emptyintr)
 785:C:/Files/Projects/Git/XMCLib/src\xmc_usbd.c ****         {
 786:C:/Files/Projects/Git/XMCLib/src\xmc_usbd.c ****           uint32_t bytes;
 787:C:/Files/Projects/Git/XMCLib/src\xmc_usbd.c ****           bytes = XMC_USBD_lWriteFifo(ep);
 788:C:/Files/Projects/Git/XMCLib/src\xmc_usbd.c ****           ep->xferCount += bytes;
 789:C:/Files/Projects/Git/XMCLib/src\xmc_usbd.c ****           ep->xferBuffer += bytes;
 790:C:/Files/Projects/Git/XMCLib/src\xmc_usbd.c ****         }
 791:C:/Files/Projects/Git/XMCLib/src\xmc_usbd.c ****       }
 792:C:/Files/Projects/Git/XMCLib/src\xmc_usbd.c ****       if (diepint.b.xfercompl)
 793:C:/Files/Projects/Git/XMCLib/src\xmc_usbd.c ****       {
 794:C:/Files/Projects/Git/XMCLib/src\xmc_usbd.c ****         if(obj->usbd_transfer_mode == XMC_USBD_USE_DMA)
 795:C:/Files/Projects/Git/XMCLib/src\xmc_usbd.c ****         {
 796:C:/Files/Projects/Git/XMCLib/src\xmc_usbd.c ****           /* update xfer values */
 797:C:/Files/Projects/Git/XMCLib/src\xmc_usbd.c ****           if ((dieptsiz.b.pktcnt == 0U) && (dieptsiz.b.xfersize == 0U))
 798:C:/Files/Projects/Git/XMCLib/src\xmc_usbd.c ****           {
 799:C:/Files/Projects/Git/XMCLib/src\xmc_usbd.c ****             uint32_t Bytes = ep->xferLength - ep->xferCount;
 800:C:/Files/Projects/Git/XMCLib/src\xmc_usbd.c ****             ep->xferCount += Bytes;
 801:C:/Files/Projects/Git/XMCLib/src\xmc_usbd.c ****             ep->xferBuffer += Bytes;
 802:C:/Files/Projects/Git/XMCLib/src\xmc_usbd.c ****           }
 803:C:/Files/Projects/Git/XMCLib/src\xmc_usbd.c ****         }
 804:C:/Files/Projects/Git/XMCLib/src\xmc_usbd.c ****         if (ep->xferTotal==ep->xferLength)
 805:C:/Files/Projects/Git/XMCLib/src\xmc_usbd.c ****         {
 806:C:/Files/Projects/Git/XMCLib/src\xmc_usbd.c ****           ep->inInUse = 0U;
 807:C:/Files/Projects/Git/XMCLib/src\xmc_usbd.c ****           if(obj->usbd_transfer_mode == XMC_USBD_USE_FIFO)
 808:C:/Files/Projects/Git/XMCLib/src\xmc_usbd.c ****           {
 809:C:/Files/Projects/Git/XMCLib/src\xmc_usbd.c ****             /* mask fifo empty interrupt */
 810:C:/Files/Projects/Git/XMCLib/src\xmc_usbd.c ****             xmc_device.device_register->dtknqr4_fifoemptymsk =
 811:C:/Files/Projects/Git/XMCLib/src\xmc_usbd.c ****             (uint32_t)(xmc_device.device_register->dtknqr4_fifoemptymsk & ~(((uint32_t)1U << ep_num
 812:C:/Files/Projects/Git/XMCLib/src\xmc_usbd.c ****           }
 813:C:/Files/Projects/Git/XMCLib/src\xmc_usbd.c ****           xmc_device.EndpointEvent_cb(0x80U | ep_num,XMC_USBD_EP_EVENT_IN);
 814:C:/Files/Projects/Git/XMCLib/src\xmc_usbd.c ****         }
 815:C:/Files/Projects/Git/XMCLib/src\xmc_usbd.c ****         else
 816:C:/Files/Projects/Git/XMCLib/src\xmc_usbd.c ****         {
 817:C:/Files/Projects/Git/XMCLib/src\xmc_usbd.c ****           /* start next step of transfer */
 818:C:/Files/Projects/Git/XMCLib/src\xmc_usbd.c ****           XMC_USBD_lStartWriteXfer(ep);
 819:C:/Files/Projects/Git/XMCLib/src\xmc_usbd.c ****         }
 820:C:/Files/Projects/Git/XMCLib/src\xmc_usbd.c **** 
 821:C:/Files/Projects/Git/XMCLib/src\xmc_usbd.c ****       }
 822:C:/Files/Projects/Git/XMCLib/src\xmc_usbd.c **** 
 823:C:/Files/Projects/Git/XMCLib/src\xmc_usbd.c ****       XMC_USBD_ClearEventINEP((uint32_t)diepint.d32,ep_num);
 824:C:/Files/Projects/Git/XMCLib/src\xmc_usbd.c ****     }
 825:C:/Files/Projects/Git/XMCLib/src\xmc_usbd.c ****     ep_num++;
 826:C:/Files/Projects/Git/XMCLib/src\xmc_usbd.c ****   }
 827:C:/Files/Projects/Git/XMCLib/src\xmc_usbd.c ****   XMC_USBD_ClearEvent(XMC_USBD_EVENT_INEP);
 828:C:/Files/Projects/Git/XMCLib/src\xmc_usbd.c **** }
 829:C:/Files/Projects/Git/XMCLib/src\xmc_usbd.c **** 
 830:C:/Files/Projects/Git/XMCLib/src\xmc_usbd.c **** /**
 831:C:/Files/Projects/Git/XMCLib/src\xmc_usbd.c ****  * @brief RX Fifo interrupt handler
 832:C:/Files/Projects/Git/XMCLib/src\xmc_usbd.c ****  *
 833:C:/Files/Projects/Git/XMCLib/src\xmc_usbd.c ****  * This function handles the interrupt, when the rx fifo is not empty anymore.
 834:C:/Files/Projects/Git/XMCLib/src\xmc_usbd.c ****  */
 835:C:/Files/Projects/Git/XMCLib/src\xmc_usbd.c **** static void XMC_USBD_lHandleRxFLvl(void) 
 836:C:/Files/Projects/Git/XMCLib/src\xmc_usbd.c **** {
 837:C:/Files/Projects/Git/XMCLib/src\xmc_usbd.c ****   device_grxsts_data_t data;	
 838:C:/Files/Projects/Git/XMCLib/src\xmc_usbd.c ****   data.d32 = xmc_device.global_register->grxstsp;
 839:C:/Files/Projects/Git/XMCLib/src\xmc_usbd.c **** 
 840:C:/Files/Projects/Git/XMCLib/src\xmc_usbd.c ****   switch (data.b.pktsts)
 841:C:/Files/Projects/Git/XMCLib/src\xmc_usbd.c **** 	{
 842:C:/Files/Projects/Git/XMCLib/src\xmc_usbd.c ****     case XMC_USBD_GRXSTS_PKTSTS_GOUTNAK:
 843:C:/Files/Projects/Git/XMCLib/src\xmc_usbd.c ****       break;
 844:C:/Files/Projects/Git/XMCLib/src\xmc_usbd.c ****     case XMC_USBD_GRXSTS_PKTSTS_OUTCMPL:
 845:C:/Files/Projects/Git/XMCLib/src\xmc_usbd.c ****       break;
 846:C:/Files/Projects/Git/XMCLib/src\xmc_usbd.c ****     case XMC_USBD_GRXSTS_PKTSTS_OUTDATA:
 847:C:/Files/Projects/Git/XMCLib/src\xmc_usbd.c ****       XMC_USBD_lReadFifo((uint32_t)data.b.epnum,(uint32_t)data.b.bcnt);
 848:C:/Files/Projects/Git/XMCLib/src\xmc_usbd.c ****       break;
 849:C:/Files/Projects/Git/XMCLib/src\xmc_usbd.c ****     case XMC_USBD_GRXSTS_PKTSTS_SETUP:
 850:C:/Files/Projects/Git/XMCLib/src\xmc_usbd.c ****       XMC_USBD_lReadFifo((uint32_t)data.b.epnum,(uint32_t)data.b.bcnt);
 851:C:/Files/Projects/Git/XMCLib/src\xmc_usbd.c ****       break;
 852:C:/Files/Projects/Git/XMCLib/src\xmc_usbd.c ****     case XMC_USBD_GRXSTS_PKTSTS_SETUPCMPL:
 853:C:/Files/Projects/Git/XMCLib/src\xmc_usbd.c ****       break;
 854:C:/Files/Projects/Git/XMCLib/src\xmc_usbd.c ****     default:
 855:C:/Files/Projects/Git/XMCLib/src\xmc_usbd.c ****       break;
 856:C:/Files/Projects/Git/XMCLib/src\xmc_usbd.c **** 	}
 857:C:/Files/Projects/Git/XMCLib/src\xmc_usbd.c ****   /* no need to clear */
 858:C:/Files/Projects/Git/XMCLib/src\xmc_usbd.c **** }
 859:C:/Files/Projects/Git/XMCLib/src\xmc_usbd.c **** 
 860:C:/Files/Projects/Git/XMCLib/src\xmc_usbd.c **** /**
 861:C:/Files/Projects/Git/XMCLib/src\xmc_usbd.c ****  * @brief Global interrupt handler
 862:C:/Files/Projects/Git/XMCLib/src\xmc_usbd.c ****  *
 863:C:/Files/Projects/Git/XMCLib/src\xmc_usbd.c ****  * The handler first checks, which global interrupt has caused the interrupt
 864:C:/Files/Projects/Git/XMCLib/src\xmc_usbd.c ****  * and then dispatches interrupt to the corresponding sub-handler.
 865:C:/Files/Projects/Git/XMCLib/src\xmc_usbd.c ****  */
 866:C:/Files/Projects/Git/XMCLib/src\xmc_usbd.c **** void XMC_USBD_IRQHandler(const XMC_USBD_t *const obj) 
 867:C:/Files/Projects/Git/XMCLib/src\xmc_usbd.c **** {
 868:C:/Files/Projects/Git/XMCLib/src\xmc_usbd.c ****   gintmsk_data_t gintmsk;
 869:C:/Files/Projects/Git/XMCLib/src\xmc_usbd.c ****   gintsts_data_t data;
 870:C:/Files/Projects/Git/XMCLib/src\xmc_usbd.c **** 	
 871:C:/Files/Projects/Git/XMCLib/src\xmc_usbd.c ****   gintmsk.d32 = xmc_device.global_register->gintmsk;
 872:C:/Files/Projects/Git/XMCLib/src\xmc_usbd.c ****   data.d32 = xmc_device.global_register->gintsts & gintmsk.d32;
 873:C:/Files/Projects/Git/XMCLib/src\xmc_usbd.c **** 	
 874:C:/Files/Projects/Git/XMCLib/src\xmc_usbd.c ****   if (data.b.sofintr)
 875:C:/Files/Projects/Git/XMCLib/src\xmc_usbd.c ****   {
 876:C:/Files/Projects/Git/XMCLib/src\xmc_usbd.c ****     xmc_device.DeviceEvent_cb(XMC_USBD_EVENT_SOF);
 877:C:/Files/Projects/Git/XMCLib/src\xmc_usbd.c ****     XMC_USBD_ClearEvent(XMC_USBD_EVENT_SOF);
 878:C:/Files/Projects/Git/XMCLib/src\xmc_usbd.c ****   }
 879:C:/Files/Projects/Git/XMCLib/src\xmc_usbd.c ****   if(obj->usbd_transfer_mode == XMC_USBD_USE_FIFO)
 880:C:/Files/Projects/Git/XMCLib/src\xmc_usbd.c ****   {
 881:C:/Files/Projects/Git/XMCLib/src\xmc_usbd.c ****     if (data.b.rxstsqlvl)
 882:C:/Files/Projects/Git/XMCLib/src\xmc_usbd.c ****     {
 883:C:/Files/Projects/Git/XMCLib/src\xmc_usbd.c ****       /* Masked that interrupt so its only done once */
 884:C:/Files/Projects/Git/XMCLib/src\xmc_usbd.c ****       gintmsk.b.rxstsqlvl = 0U;
 885:C:/Files/Projects/Git/XMCLib/src\xmc_usbd.c ****       xmc_device.global_register->gintmsk = gintmsk.d32;
 886:C:/Files/Projects/Git/XMCLib/src\xmc_usbd.c ****       XMC_USBD_lHandleRxFLvl(); /* handle the interrupt */
 887:C:/Files/Projects/Git/XMCLib/src\xmc_usbd.c ****       gintmsk.b.rxstsqlvl = 1U;
 888:C:/Files/Projects/Git/XMCLib/src\xmc_usbd.c ****       xmc_device.global_register->gintmsk = gintmsk.d32;
 889:C:/Files/Projects/Git/XMCLib/src\xmc_usbd.c ****     }
 890:C:/Files/Projects/Git/XMCLib/src\xmc_usbd.c ****   }
 891:C:/Files/Projects/Git/XMCLib/src\xmc_usbd.c ****   if (data.b.erlysuspend)
 892:C:/Files/Projects/Git/XMCLib/src\xmc_usbd.c ****   {
 893:C:/Files/Projects/Git/XMCLib/src\xmc_usbd.c ****     XMC_USBD_ClearEvent(XMC_USBD_EVENT_EARLYSUSPEND);
 894:C:/Files/Projects/Git/XMCLib/src\xmc_usbd.c ****   }
 895:C:/Files/Projects/Git/XMCLib/src\xmc_usbd.c ****   if (data.b.usbsuspend)
 896:C:/Files/Projects/Git/XMCLib/src\xmc_usbd.c ****   {
 897:C:/Files/Projects/Git/XMCLib/src\xmc_usbd.c ****     xmc_device.DeviceEvent_cb(XMC_USBD_EVENT_SUSPEND);
 898:C:/Files/Projects/Git/XMCLib/src\xmc_usbd.c ****     XMC_USBD_ClearEvent(XMC_USBD_EVENT_SUSPEND);
 899:C:/Files/Projects/Git/XMCLib/src\xmc_usbd.c ****   }
 900:C:/Files/Projects/Git/XMCLib/src\xmc_usbd.c ****   if (data.b.wkupintr)
 901:C:/Files/Projects/Git/XMCLib/src\xmc_usbd.c ****   {
 902:C:/Files/Projects/Git/XMCLib/src\xmc_usbd.c ****     xmc_device.DeviceEvent_cb(XMC_USBD_EVENT_REMOTE_WAKEUP);
 903:C:/Files/Projects/Git/XMCLib/src\xmc_usbd.c ****     XMC_USBD_ClearEvent(XMC_USBD_EVENT_REMOTE_WAKEUP);
 904:C:/Files/Projects/Git/XMCLib/src\xmc_usbd.c ****   }
 905:C:/Files/Projects/Git/XMCLib/src\xmc_usbd.c ****   if (data.b.sessreqintr)
 906:C:/Files/Projects/Git/XMCLib/src\xmc_usbd.c ****   {
 907:C:/Files/Projects/Git/XMCLib/src\xmc_usbd.c ****     xmc_device.IsPowered = 1U;
 908:C:/Files/Projects/Git/XMCLib/src\xmc_usbd.c ****     xmc_device.DeviceEvent_cb(XMC_USBD_EVENT_POWER_ON);
 909:C:/Files/Projects/Git/XMCLib/src\xmc_usbd.c ****     XMC_USBD_ClearEvent(XMC_USBD_EVENT_POWER_ON);
 910:C:/Files/Projects/Git/XMCLib/src\xmc_usbd.c ****   }
 911:C:/Files/Projects/Git/XMCLib/src\xmc_usbd.c ****   if (data.b.usbreset)
 912:C:/Files/Projects/Git/XMCLib/src\xmc_usbd.c ****   {
 913:C:/Files/Projects/Git/XMCLib/src\xmc_usbd.c ****     XMC_USBD_lHandleUSBReset(obj);
 914:C:/Files/Projects/Git/XMCLib/src\xmc_usbd.c ****   }
 915:C:/Files/Projects/Git/XMCLib/src\xmc_usbd.c ****   if (data.b.enumdone)
 916:C:/Files/Projects/Git/XMCLib/src\xmc_usbd.c ****   {
 917:C:/Files/Projects/Git/XMCLib/src\xmc_usbd.c ****     XMC_USBD_lHandleEnumDone();
 918:C:/Files/Projects/Git/XMCLib/src\xmc_usbd.c ****   }
 919:C:/Files/Projects/Git/XMCLib/src\xmc_usbd.c ****   if (data.b.inepint)
 920:C:/Files/Projects/Git/XMCLib/src\xmc_usbd.c ****   {
 921:C:/Files/Projects/Git/XMCLib/src\xmc_usbd.c ****     XMC_USBD_lHandleIEPInt(obj);
 922:C:/Files/Projects/Git/XMCLib/src\xmc_usbd.c ****   }
 923:C:/Files/Projects/Git/XMCLib/src\xmc_usbd.c ****   if (data.b.outepintr)
 924:C:/Files/Projects/Git/XMCLib/src\xmc_usbd.c ****   {
 925:C:/Files/Projects/Git/XMCLib/src\xmc_usbd.c **** 		XMC_USBD_lHandleOEPInt(obj);
 926:C:/Files/Projects/Git/XMCLib/src\xmc_usbd.c ****   }
 927:C:/Files/Projects/Git/XMCLib/src\xmc_usbd.c **** 	if (data.b.otgintr)
 928:C:/Files/Projects/Git/XMCLib/src\xmc_usbd.c ****   {
 929:C:/Files/Projects/Git/XMCLib/src\xmc_usbd.c **** 	  XMC_USBD_lHandleOTGInt();
 930:C:/Files/Projects/Git/XMCLib/src\xmc_usbd.c ****   }
 931:C:/Files/Projects/Git/XMCLib/src\xmc_usbd.c **** 
 932:C:/Files/Projects/Git/XMCLib/src\xmc_usbd.c **** }
 933:C:/Files/Projects/Git/XMCLib/src\xmc_usbd.c **** 
 934:C:/Files/Projects/Git/XMCLib/src\xmc_usbd.c **** 
 935:C:/Files/Projects/Git/XMCLib/src\xmc_usbd.c **** /*******************************************************************************
 936:C:/Files/Projects/Git/XMCLib/src\xmc_usbd.c ****  * API IMPLEMENTATION
 937:C:/Files/Projects/Git/XMCLib/src\xmc_usbd.c ****  *******************************************************************************/
 938:C:/Files/Projects/Git/XMCLib/src\xmc_usbd.c **** /**
 939:C:/Files/Projects/Git/XMCLib/src\xmc_usbd.c ****  * Enables the USB0 module
 940:C:/Files/Projects/Git/XMCLib/src\xmc_usbd.c ****  **/
 941:C:/Files/Projects/Git/XMCLib/src\xmc_usbd.c **** void XMC_USBD_Enable(void) 
 942:C:/Files/Projects/Git/XMCLib/src\xmc_usbd.c **** {
 943:C:/Files/Projects/Git/XMCLib/src\xmc_usbd.c **** #if defined(CLOCK_GATING_SUPPORTED)
 944:C:/Files/Projects/Git/XMCLib/src\xmc_usbd.c ****   XMC_SCU_CLOCK_UngatePeripheralClock(XMC_SCU_PERIPHERAL_CLOCK_USB0);
 945:C:/Files/Projects/Git/XMCLib/src\xmc_usbd.c **** #endif
 946:C:/Files/Projects/Git/XMCLib/src\xmc_usbd.c ****   /* Reset and power up */
 947:C:/Files/Projects/Git/XMCLib/src\xmc_usbd.c ****   XMC_SCU_RESET_DeassertPeripheralReset(XMC_SCU_PERIPHERAL_RESET_USB0);
 948:C:/Files/Projects/Git/XMCLib/src\xmc_usbd.c ****   XMC_SCU_POWER_EnableUsb();
 949:C:/Files/Projects/Git/XMCLib/src\xmc_usbd.c **** }
 950:C:/Files/Projects/Git/XMCLib/src\xmc_usbd.c **** 
 951:C:/Files/Projects/Git/XMCLib/src\xmc_usbd.c **** /**
 952:C:/Files/Projects/Git/XMCLib/src\xmc_usbd.c ****  * Disables the USB0 module
 953:C:/Files/Projects/Git/XMCLib/src\xmc_usbd.c ****  **/
 954:C:/Files/Projects/Git/XMCLib/src\xmc_usbd.c **** void XMC_USBD_Disable(void) 
 955:C:/Files/Projects/Git/XMCLib/src\xmc_usbd.c **** {
 956:C:/Files/Projects/Git/XMCLib/src\xmc_usbd.c ****   /* Clear Reset and power up */
 957:C:/Files/Projects/Git/XMCLib/src\xmc_usbd.c ****   XMC_SCU_RESET_AssertPeripheralReset(XMC_SCU_PERIPHERAL_RESET_USB0);
 958:C:/Files/Projects/Git/XMCLib/src\xmc_usbd.c **** #if defined(CLOCK_GATING_SUPPORTED)
 959:C:/Files/Projects/Git/XMCLib/src\xmc_usbd.c ****   XMC_SCU_CLOCK_GatePeripheralClock(XMC_SCU_PERIPHERAL_CLOCK_USB0);
 960:C:/Files/Projects/Git/XMCLib/src\xmc_usbd.c **** #endif
 961:C:/Files/Projects/Git/XMCLib/src\xmc_usbd.c ****   XMC_SCU_POWER_DisableUsb();
 962:C:/Files/Projects/Git/XMCLib/src\xmc_usbd.c **** }
 963:C:/Files/Projects/Git/XMCLib/src\xmc_usbd.c **** 
 964:C:/Files/Projects/Git/XMCLib/src\xmc_usbd.c **** /**
 965:C:/Files/Projects/Git/XMCLib/src\xmc_usbd.c ****  * Clear the USB device event
 966:C:/Files/Projects/Git/XMCLib/src\xmc_usbd.c ****  **/
 967:C:/Files/Projects/Git/XMCLib/src\xmc_usbd.c **** void XMC_USBD_ClearEvent(const XMC_USBD_EVENT_t event) 
 968:C:/Files/Projects/Git/XMCLib/src\xmc_usbd.c **** {
 969:C:/Files/Projects/Git/XMCLib/src\xmc_usbd.c ****   gintsts_data_t clear;
 970:C:/Files/Projects/Git/XMCLib/src\xmc_usbd.c ****   clear.d32 = 0U;
 971:C:/Files/Projects/Git/XMCLib/src\xmc_usbd.c ****   switch(event)
 972:C:/Files/Projects/Git/XMCLib/src\xmc_usbd.c ****   {
 973:C:/Files/Projects/Git/XMCLib/src\xmc_usbd.c ****     case (XMC_USBD_EVENT_POWER_ON):
 974:C:/Files/Projects/Git/XMCLib/src\xmc_usbd.c **** 	  clear.b.sessreqintr = 1U;
 975:C:/Files/Projects/Git/XMCLib/src\xmc_usbd.c **** 	  break;
 976:C:/Files/Projects/Git/XMCLib/src\xmc_usbd.c ****     case (XMC_USBD_EVENT_RESET):
 977:C:/Files/Projects/Git/XMCLib/src\xmc_usbd.c **** 	  clear.b.usbreset = 1U;
 978:C:/Files/Projects/Git/XMCLib/src\xmc_usbd.c **** 	  break;
 979:C:/Files/Projects/Git/XMCLib/src\xmc_usbd.c ****     case (XMC_USBD_EVENT_SUSPEND):
 980:C:/Files/Projects/Git/XMCLib/src\xmc_usbd.c **** 	  clear.b.usbsuspend = 1U;
 981:C:/Files/Projects/Git/XMCLib/src\xmc_usbd.c **** 	  break;
 982:C:/Files/Projects/Git/XMCLib/src\xmc_usbd.c ****     case (XMC_USBD_EVENT_RESUME):
 983:C:/Files/Projects/Git/XMCLib/src\xmc_usbd.c **** 	  clear.b.wkupintr = 1U;
 984:C:/Files/Projects/Git/XMCLib/src\xmc_usbd.c **** 	  break;
 985:C:/Files/Projects/Git/XMCLib/src\xmc_usbd.c ****     case (XMC_USBD_EVENT_REMOTE_WAKEUP):
 986:C:/Files/Projects/Git/XMCLib/src\xmc_usbd.c **** 	  clear.b.wkupintr = 1U;
 987:C:/Files/Projects/Git/XMCLib/src\xmc_usbd.c **** 	  break;
 988:C:/Files/Projects/Git/XMCLib/src\xmc_usbd.c ****     case (XMC_USBD_EVENT_SOF):
 989:C:/Files/Projects/Git/XMCLib/src\xmc_usbd.c **** 	  clear.b.sofintr = 1U;
 990:C:/Files/Projects/Git/XMCLib/src\xmc_usbd.c **** 	  break;
 991:C:/Files/Projects/Git/XMCLib/src\xmc_usbd.c ****     case (XMC_USBD_EVENT_EARLYSUSPEND):
 992:C:/Files/Projects/Git/XMCLib/src\xmc_usbd.c **** 	  clear.b.erlysuspend = 1U;
 993:C:/Files/Projects/Git/XMCLib/src\xmc_usbd.c **** 	  break;
 994:C:/Files/Projects/Git/XMCLib/src\xmc_usbd.c ****     case (XMC_USBD_EVENT_ENUMDONE):
 995:C:/Files/Projects/Git/XMCLib/src\xmc_usbd.c **** 	  clear.b.enumdone = 1U;
 996:C:/Files/Projects/Git/XMCLib/src\xmc_usbd.c **** 	  break;
 997:C:/Files/Projects/Git/XMCLib/src\xmc_usbd.c ****     case (XMC_USBD_EVENT_OUTEP):
 998:C:/Files/Projects/Git/XMCLib/src\xmc_usbd.c **** 	  clear.b.outepintr = 1U;
 999:C:/Files/Projects/Git/XMCLib/src\xmc_usbd.c **** 	  break;
1000:C:/Files/Projects/Git/XMCLib/src\xmc_usbd.c **** 		default:
1001:C:/Files/Projects/Git/XMCLib/src\xmc_usbd.c **** 		break;
1002:C:/Files/Projects/Git/XMCLib/src\xmc_usbd.c **** 	}
1003:C:/Files/Projects/Git/XMCLib/src\xmc_usbd.c **** 	xmc_device.global_register->gintsts = clear.d32;
1004:C:/Files/Projects/Git/XMCLib/src\xmc_usbd.c **** }
1005:C:/Files/Projects/Git/XMCLib/src\xmc_usbd.c **** 
1006:C:/Files/Projects/Git/XMCLib/src\xmc_usbd.c **** /**
1007:C:/Files/Projects/Git/XMCLib/src\xmc_usbd.c ****  * Clear the USB OTG events
1008:C:/Files/Projects/Git/XMCLib/src\xmc_usbd.c ****  **/
1009:C:/Files/Projects/Git/XMCLib/src\xmc_usbd.c **** static void XMC_USBD_lClearEventOTG(uint32_t event)
1010:C:/Files/Projects/Git/XMCLib/src\xmc_usbd.c **** {
1011:C:/Files/Projects/Git/XMCLib/src\xmc_usbd.c ****   gotgint_data_t clear = { .d32 = 0U};
1012:C:/Files/Projects/Git/XMCLib/src\xmc_usbd.c ****   clear.d32 = event;
1013:C:/Files/Projects/Git/XMCLib/src\xmc_usbd.c ****   xmc_device.global_register->gotgint = clear.d32;
1014:C:/Files/Projects/Git/XMCLib/src\xmc_usbd.c **** }
1015:C:/Files/Projects/Git/XMCLib/src\xmc_usbd.c **** 
1016:C:/Files/Projects/Git/XMCLib/src\xmc_usbd.c **** /**
1017:C:/Files/Projects/Git/XMCLib/src\xmc_usbd.c ****  * Clear the USB IN EP events
1018:C:/Files/Projects/Git/XMCLib/src\xmc_usbd.c ****  **/
1019:C:/Files/Projects/Git/XMCLib/src\xmc_usbd.c **** void XMC_USBD_ClearEventINEP(uint32_t event,const uint8_t ep_num)
1020:C:/Files/Projects/Git/XMCLib/src\xmc_usbd.c **** {
1021:C:/Files/Projects/Git/XMCLib/src\xmc_usbd.c ****   diepint_data_t clear;
1022:C:/Files/Projects/Git/XMCLib/src\xmc_usbd.c ****   clear.d32 = event;
1023:C:/Files/Projects/Git/XMCLib/src\xmc_usbd.c ****   xmc_device.endpoint_in_register[ep_num]->diepint = clear.d32;
1024:C:/Files/Projects/Git/XMCLib/src\xmc_usbd.c **** }
1025:C:/Files/Projects/Git/XMCLib/src\xmc_usbd.c **** 
1026:C:/Files/Projects/Git/XMCLib/src\xmc_usbd.c **** /**
1027:C:/Files/Projects/Git/XMCLib/src\xmc_usbd.c ****  * Clear the USB OUT EP events
1028:C:/Files/Projects/Git/XMCLib/src\xmc_usbd.c ****  **/
1029:C:/Files/Projects/Git/XMCLib/src\xmc_usbd.c **** void XMC_USBD_ClearEventOUTEP(uint32_t event,const uint8_t ep_num)
1030:C:/Files/Projects/Git/XMCLib/src\xmc_usbd.c **** {
1031:C:/Files/Projects/Git/XMCLib/src\xmc_usbd.c ****   doepint_data_t clear;
1032:C:/Files/Projects/Git/XMCLib/src\xmc_usbd.c ****   clear.d32 = event;
1033:C:/Files/Projects/Git/XMCLib/src\xmc_usbd.c ****   xmc_device.endpoint_out_register[ep_num]->doepint = clear.d32;
1034:C:/Files/Projects/Git/XMCLib/src\xmc_usbd.c **** }
1035:C:/Files/Projects/Git/XMCLib/src\xmc_usbd.c **** 
1036:C:/Files/Projects/Git/XMCLib/src\xmc_usbd.c **** /**
1037:C:/Files/Projects/Git/XMCLib/src\xmc_usbd.c ****  * Enable the USB OUT EP events
1038:C:/Files/Projects/Git/XMCLib/src\xmc_usbd.c ****  **/
1039:C:/Files/Projects/Git/XMCLib/src\xmc_usbd.c **** void XMC_USBD_EnableEventOUTEP(uint32_t event)
1040:C:/Files/Projects/Git/XMCLib/src\xmc_usbd.c **** {
1041:C:/Files/Projects/Git/XMCLib/src\xmc_usbd.c **** 	doepint_data_t doepint;
1042:C:/Files/Projects/Git/XMCLib/src\xmc_usbd.c **** 	doepint.d32 = event;
1043:C:/Files/Projects/Git/XMCLib/src\xmc_usbd.c **** 	xmc_device.device_register->doepmsk |= doepint.d32;
1044:C:/Files/Projects/Git/XMCLib/src\xmc_usbd.c **** }
1045:C:/Files/Projects/Git/XMCLib/src\xmc_usbd.c **** 
1046:C:/Files/Projects/Git/XMCLib/src\xmc_usbd.c **** /**
1047:C:/Files/Projects/Git/XMCLib/src\xmc_usbd.c ****  * Enable the USB IN EP events
1048:C:/Files/Projects/Git/XMCLib/src\xmc_usbd.c ****  **/
1049:C:/Files/Projects/Git/XMCLib/src\xmc_usbd.c **** void XMC_USBD_EnableEventINEP(uint32_t event)
1050:C:/Files/Projects/Git/XMCLib/src\xmc_usbd.c **** {
1051:C:/Files/Projects/Git/XMCLib/src\xmc_usbd.c **** 	diepint_data_t diepint;
1052:C:/Files/Projects/Git/XMCLib/src\xmc_usbd.c **** 	diepint.d32 = event;
1053:C:/Files/Projects/Git/XMCLib/src\xmc_usbd.c **** 	xmc_device.device_register->diepmsk |= diepint.d32;
1054:C:/Files/Projects/Git/XMCLib/src\xmc_usbd.c **** }
1055:C:/Files/Projects/Git/XMCLib/src\xmc_usbd.c **** 
1056:C:/Files/Projects/Git/XMCLib/src\xmc_usbd.c **** /**
1057:C:/Files/Projects/Git/XMCLib/src\xmc_usbd.c ****  * Gets the USB device capabilities
1058:C:/Files/Projects/Git/XMCLib/src\xmc_usbd.c ****  **/
1059:C:/Files/Projects/Git/XMCLib/src\xmc_usbd.c **** XMC_USBD_CAPABILITIES_t XMC_USBD_GetCapabilities()
1060:C:/Files/Projects/Git/XMCLib/src\xmc_usbd.c **** {
 567              	 .loc 1 1060 0
 568              	 .cfi_startproc
 569              	 
 570              	 
 571              	 
 572              	.LVL54:
1061:C:/Files/Projects/Git/XMCLib/src\xmc_usbd.c ****   XMC_USBD_CAPABILITIES_t cap={0U};
1062:C:/Files/Projects/Git/XMCLib/src\xmc_usbd.c ****   cap.event_connect = 1U;
1063:C:/Files/Projects/Git/XMCLib/src\xmc_usbd.c ****   cap.event_disconnect = 1U;
1064:C:/Files/Projects/Git/XMCLib/src\xmc_usbd.c **** #if UC_SERIES == 45
1065:C:/Files/Projects/Git/XMCLib/src\xmc_usbd.c ****   cap.event_power_off = 1U;
1066:C:/Files/Projects/Git/XMCLib/src\xmc_usbd.c ****   cap.event_power_on = 1U;
1067:C:/Files/Projects/Git/XMCLib/src\xmc_usbd.c **** #else
1068:C:/Files/Projects/Git/XMCLib/src\xmc_usbd.c ****   cap.event_power_off = 0U;
1069:C:/Files/Projects/Git/XMCLib/src\xmc_usbd.c ****   cap.event_power_on = 0U;
1070:C:/Files/Projects/Git/XMCLib/src\xmc_usbd.c **** #endif
1071:C:/Files/Projects/Git/XMCLib/src\xmc_usbd.c ****   cap.event_high_speed = 0U;
1072:C:/Files/Projects/Git/XMCLib/src\xmc_usbd.c ****   cap.event_remote_wakeup = 1U;
1073:C:/Files/Projects/Git/XMCLib/src\xmc_usbd.c ****   cap.event_reset = 1U;
1074:C:/Files/Projects/Git/XMCLib/src\xmc_usbd.c ****   cap.event_resume = 1U;
1075:C:/Files/Projects/Git/XMCLib/src\xmc_usbd.c ****   cap.event_suspend = 1U;
1076:C:/Files/Projects/Git/XMCLib/src\xmc_usbd.c ****   cap.reserved = 0U;
1077:C:/Files/Projects/Git/XMCLib/src\xmc_usbd.c ****   return cap;
 573              	 .loc 1 1077 0
 574 0000 1F20     	 movs r0,#31
 575 0002 6FF34510 	 bfc r0,#5,#1
 576 0006 40F4E070 	 orr r0,r0,#448
1078:C:/Files/Projects/Git/XMCLib/src\xmc_usbd.c **** }
 577              	 .loc 1 1078 0
 578 000a C0F30800 	 ubfx r0,r0,#0,#9
 579 000e 7047     	 bx lr
 580              	 .cfi_endproc
 581              	.LFE199:
 583              	 .section .text.XMC_USBD_DeviceConnect,"ax",%progbits
 584              	 .align 2
 585              	 .global XMC_USBD_DeviceConnect
 586              	 .thumb
 587              	 .thumb_func
 589              	XMC_USBD_DeviceConnect:
 590              	.LFB202:
1079:C:/Files/Projects/Git/XMCLib/src\xmc_usbd.c **** 
1080:C:/Files/Projects/Git/XMCLib/src\xmc_usbd.c **** /**
1081:C:/Files/Projects/Git/XMCLib/src\xmc_usbd.c ****  * Initializes the USB device
1082:C:/Files/Projects/Git/XMCLib/src\xmc_usbd.c ****  **/
1083:C:/Files/Projects/Git/XMCLib/src\xmc_usbd.c **** XMC_USBD_STATUS_t XMC_USBD_Init(XMC_USBD_t *obj)
1084:C:/Files/Projects/Git/XMCLib/src\xmc_usbd.c **** {
1085:C:/Files/Projects/Git/XMCLib/src\xmc_usbd.c ****   uint8_t *XMC_USBD_BASE_ADDRESS;
1086:C:/Files/Projects/Git/XMCLib/src\xmc_usbd.c ****   uint32_t i;
1087:C:/Files/Projects/Git/XMCLib/src\xmc_usbd.c ****   gahbcfg_data_t gahbcfg;
1088:C:/Files/Projects/Git/XMCLib/src\xmc_usbd.c ****   gusbcfg_data_t gusbcfg;
1089:C:/Files/Projects/Git/XMCLib/src\xmc_usbd.c ****   dcfg_data_t dcfg;
1090:C:/Files/Projects/Git/XMCLib/src\xmc_usbd.c ****   dctl_data_t dctl;
1091:C:/Files/Projects/Git/XMCLib/src\xmc_usbd.c ****   gintmsk_data_t gintmsk;
1092:C:/Files/Projects/Git/XMCLib/src\xmc_usbd.c **** 
1093:C:/Files/Projects/Git/XMCLib/src\xmc_usbd.c ****   XMC_ASSERT("XMC_USBD_Init: obj.usbd_max_num_eps not of type XMC_USBD_MAX_NUM_EPS_t",
1094:C:/Files/Projects/Git/XMCLib/src\xmc_usbd.c ****  		      XMC_USBD_CHECK_INPUT_MAX_NUM_EPS(obj->usbd_max_num_eps))
1095:C:/Files/Projects/Git/XMCLib/src\xmc_usbd.c ****   
1096:C:/Files/Projects/Git/XMCLib/src\xmc_usbd.c ****   XMC_USBD_Enable();
1097:C:/Files/Projects/Git/XMCLib/src\xmc_usbd.c ****   
1098:C:/Files/Projects/Git/XMCLib/src\xmc_usbd.c ****   usbd_init = obj;
1099:C:/Files/Projects/Git/XMCLib/src\xmc_usbd.c **** 
1100:C:/Files/Projects/Git/XMCLib/src\xmc_usbd.c ****   /* Filling out buffer size */
1101:C:/Files/Projects/Git/XMCLib/src\xmc_usbd.c ****   for(i = 0U;i < (uint32_t)XMC_USBD_NUM_EPS;i++)
1102:C:/Files/Projects/Git/XMCLib/src\xmc_usbd.c ****   {
1103:C:/Files/Projects/Git/XMCLib/src\xmc_usbd.c **** 	  XMC_USBD_EP_OUT_BUFFERSIZE[i] = XMC_USBD_EP0_BUFFER_SIZE;
1104:C:/Files/Projects/Git/XMCLib/src\xmc_usbd.c **** 	  XMC_USBD_EP_IN_BUFFERSIZE[i] 	= XMC_USBD_EP0_BUFFER_SIZE;
1105:C:/Files/Projects/Git/XMCLib/src\xmc_usbd.c ****   }
1106:C:/Files/Projects/Git/XMCLib/src\xmc_usbd.c **** 
1107:C:/Files/Projects/Git/XMCLib/src\xmc_usbd.c ****   /* clear device status */
1108:C:/Files/Projects/Git/XMCLib/src\xmc_usbd.c ****   memset((void*)&xmc_device,0x0U,sizeof(XMC_USBD_DEVICE_t));
1109:C:/Files/Projects/Git/XMCLib/src\xmc_usbd.c **** 
1110:C:/Files/Projects/Git/XMCLib/src\xmc_usbd.c ****   /* assign callbacks */
1111:C:/Files/Projects/Git/XMCLib/src\xmc_usbd.c ****   xmc_device.DeviceEvent_cb = obj->cb_xmc_device_event;
1112:C:/Files/Projects/Git/XMCLib/src\xmc_usbd.c ****   xmc_device.EndpointEvent_cb = obj->cb_endpoint_event;
1113:C:/Files/Projects/Git/XMCLib/src\xmc_usbd.c ****   XMC_USBD_BASE_ADDRESS = (uint8_t *)(obj->usbd);
1114:C:/Files/Projects/Git/XMCLib/src\xmc_usbd.c ****   /* assign register address */
1115:C:/Files/Projects/Git/XMCLib/src\xmc_usbd.c ****   xmc_device.global_register = (dwc_otg_core_global_regs_t*)(obj->usbd);
1116:C:/Files/Projects/Git/XMCLib/src\xmc_usbd.c ****   xmc_device.device_register = ((dwc_otg_device_global_regs_t*)(XMC_USBD_BASE_ADDRESS + DWC_DEV_GLO
1117:C:/Files/Projects/Git/XMCLib/src\xmc_usbd.c ****   for (i = 0U;i < (uint32_t)XMC_USBD_NUM_EPS;i++)
1118:C:/Files/Projects/Git/XMCLib/src\xmc_usbd.c ****   {
1119:C:/Files/Projects/Git/XMCLib/src\xmc_usbd.c ****     xmc_device.endpoint_in_register[i] = (dwc_otg_dev_in_ep_regs_t*)(XMC_USBD_BASE_ADDRESS + DWC_DE
1120:C:/Files/Projects/Git/XMCLib/src\xmc_usbd.c ****     ((uint32_t)DWC_EP_REG_OFFSET*i));
1121:C:/Files/Projects/Git/XMCLib/src\xmc_usbd.c ****   }
1122:C:/Files/Projects/Git/XMCLib/src\xmc_usbd.c ****   for (i = 0U;i < (uint32_t)XMC_USBD_NUM_EPS;i++)
1123:C:/Files/Projects/Git/XMCLib/src\xmc_usbd.c ****   {
1124:C:/Files/Projects/Git/XMCLib/src\xmc_usbd.c ****     xmc_device.endpoint_out_register[i] = (dwc_otg_dev_out_ep_regs_t*)(XMC_USBD_BASE_ADDRESS +
1125:C:/Files/Projects/Git/XMCLib/src\xmc_usbd.c ****     									  DWC_DEV_OUT_EP_REG_OFFSET +
1126:C:/Files/Projects/Git/XMCLib/src\xmc_usbd.c ****     									  ((uint32_t)DWC_EP_REG_OFFSET*i));
1127:C:/Files/Projects/Git/XMCLib/src\xmc_usbd.c ****   }
1128:C:/Files/Projects/Git/XMCLib/src\xmc_usbd.c ****   for (i = 0U;i < (uint32_t)XMC_USBD_NUM_TX_FIFOS;i++)
1129:C:/Files/Projects/Git/XMCLib/src\xmc_usbd.c ****   {
1130:C:/Files/Projects/Git/XMCLib/src\xmc_usbd.c ****     xmc_device.fifo[i] = (uint32_t*)(XMC_USBD_BASE_ADDRESS +
1131:C:/Files/Projects/Git/XMCLib/src\xmc_usbd.c ****     						XMC_USBD_TX_FIFO_REG_OFFSET +
1132:C:/Files/Projects/Git/XMCLib/src\xmc_usbd.c ****     						(i * XMC_USBD_TX_FIFO_OFFSET));
1133:C:/Files/Projects/Git/XMCLib/src\xmc_usbd.c ****   }
1134:C:/Files/Projects/Git/XMCLib/src\xmc_usbd.c ****   /* obj data structure for endpoint 0 */
1135:C:/Files/Projects/Git/XMCLib/src\xmc_usbd.c ****   /* Done by driver core */
1136:C:/Files/Projects/Git/XMCLib/src\xmc_usbd.c ****   /* configure ahb details */  
1137:C:/Files/Projects/Git/XMCLib/src\xmc_usbd.c ****   gahbcfg.d32 = xmc_device.global_register->gahbcfg;
1138:C:/Files/Projects/Git/XMCLib/src\xmc_usbd.c ****   gahbcfg.b.glblintrmsk = 1U; /* enable interrupts ( global mask ) */
1139:C:/Files/Projects/Git/XMCLib/src\xmc_usbd.c ****   gahbcfg.b.nptxfemplvl_txfemplvl = 1U;
1140:C:/Files/Projects/Git/XMCLib/src\xmc_usbd.c ****   if(obj->usbd_transfer_mode == XMC_USBD_USE_DMA)
1141:C:/Files/Projects/Git/XMCLib/src\xmc_usbd.c ****   {
1142:C:/Files/Projects/Git/XMCLib/src\xmc_usbd.c ****     /* Enable dma if needed */
1143:C:/Files/Projects/Git/XMCLib/src\xmc_usbd.c ****     gahbcfg.b.dmaenable = 1U; /* enable dma if needed */
1144:C:/Files/Projects/Git/XMCLib/src\xmc_usbd.c ****   }
1145:C:/Files/Projects/Git/XMCLib/src\xmc_usbd.c ****   else
1146:C:/Files/Projects/Git/XMCLib/src\xmc_usbd.c ****   {
1147:C:/Files/Projects/Git/XMCLib/src\xmc_usbd.c ****     gahbcfg.b.dmaenable = 0U;
1148:C:/Files/Projects/Git/XMCLib/src\xmc_usbd.c ****   }
1149:C:/Files/Projects/Git/XMCLib/src\xmc_usbd.c ****   xmc_device.global_register->gahbcfg = gahbcfg.d32;
1150:C:/Files/Projects/Git/XMCLib/src\xmc_usbd.c ****   /* configure usb details */  
1151:C:/Files/Projects/Git/XMCLib/src\xmc_usbd.c ****   gusbcfg.d32= xmc_device.global_register->gusbcfg;
1152:C:/Files/Projects/Git/XMCLib/src\xmc_usbd.c ****   gusbcfg.b.force_dev_mode = 1U; /* force us into device mode */
1153:C:/Files/Projects/Git/XMCLib/src\xmc_usbd.c ****   gusbcfg.b.srpcap = 1U; /* enable session request protocoll */
1154:C:/Files/Projects/Git/XMCLib/src\xmc_usbd.c ****   xmc_device.global_register->gusbcfg = gusbcfg.d32;
1155:C:/Files/Projects/Git/XMCLib/src\xmc_usbd.c **** 
1156:C:/Files/Projects/Git/XMCLib/src\xmc_usbd.c ****   /* Device init */
1157:C:/Files/Projects/Git/XMCLib/src\xmc_usbd.c ****   /* configure device speed */  
1158:C:/Files/Projects/Git/XMCLib/src\xmc_usbd.c ****   dcfg.d32 = xmc_device.device_register->dcfg;
1159:C:/Files/Projects/Git/XMCLib/src\xmc_usbd.c ****   dcfg.b.devspd = XMC_USBD_DCFG_DEVSPD_FS;
1160:C:/Files/Projects/Git/XMCLib/src\xmc_usbd.c ****   dcfg.b.descdma = 0U;
1161:C:/Files/Projects/Git/XMCLib/src\xmc_usbd.c ****   xmc_device.device_register->dcfg = dcfg.d32;
1162:C:/Files/Projects/Git/XMCLib/src\xmc_usbd.c ****   /* configure device functions */  
1163:C:/Files/Projects/Git/XMCLib/src\xmc_usbd.c ****   dctl.d32 = xmc_device.device_register->dctl;
1164:C:/Files/Projects/Git/XMCLib/src\xmc_usbd.c ****   dctl.b.sftdiscon = 1U; /* disconnect the device until its connected by the user */
1165:C:/Files/Projects/Git/XMCLib/src\xmc_usbd.c ****   /* all other config is done by default register value */
1166:C:/Files/Projects/Git/XMCLib/src\xmc_usbd.c ****   xmc_device.device_register->dctl = dctl.d32;
1167:C:/Files/Projects/Git/XMCLib/src\xmc_usbd.c ****   /* flush the fifos for proper operation */
1168:C:/Files/Projects/Git/XMCLib/src\xmc_usbd.c ****   XMC_USBD_lFlushTXFifo((uint8_t)0x10U); /* 0x10 == all fifos, see doc */
1169:C:/Files/Projects/Git/XMCLib/src\xmc_usbd.c ****   XMC_USBD_lFlushRXFifo();
1170:C:/Files/Projects/Git/XMCLib/src\xmc_usbd.c ****   /* Enable Global Interrupts */
1171:C:/Files/Projects/Git/XMCLib/src\xmc_usbd.c ****   /* clear interrupt status bits prior to unmasking */
1172:C:/Files/Projects/Git/XMCLib/src\xmc_usbd.c ****   xmc_device.global_register->gintmsk = 0U; /* disable all interrupts */
1173:C:/Files/Projects/Git/XMCLib/src\xmc_usbd.c ****   xmc_device.global_register->gintsts = 0xFFFFFFFFU; /* clear all interrupts */
1174:C:/Files/Projects/Git/XMCLib/src\xmc_usbd.c ****  
1175:C:/Files/Projects/Git/XMCLib/src\xmc_usbd.c ****   gintmsk.d32 = 0U;
1176:C:/Files/Projects/Git/XMCLib/src\xmc_usbd.c ****   /* enable common interrupts */
1177:C:/Files/Projects/Git/XMCLib/src\xmc_usbd.c ****   gintmsk.b.modemismatch = 1U;
1178:C:/Files/Projects/Git/XMCLib/src\xmc_usbd.c ****   gintmsk.b.otgintr = 1U;
1179:C:/Files/Projects/Git/XMCLib/src\xmc_usbd.c ****   gintmsk.b.sessreqintr = 1U;
1180:C:/Files/Projects/Git/XMCLib/src\xmc_usbd.c ****   /* enable device interrupts */
1181:C:/Files/Projects/Git/XMCLib/src\xmc_usbd.c ****   gintmsk.b.usbreset = 1U;
1182:C:/Files/Projects/Git/XMCLib/src\xmc_usbd.c ****   gintmsk.b.enumdone = 1U;
1183:C:/Files/Projects/Git/XMCLib/src\xmc_usbd.c ****   gintmsk.b.erlysuspend = 1U;
1184:C:/Files/Projects/Git/XMCLib/src\xmc_usbd.c ****   gintmsk.b.usbsuspend = 1U;
1185:C:/Files/Projects/Git/XMCLib/src\xmc_usbd.c ****   gintmsk.b.wkupintr = 1U;
1186:C:/Files/Projects/Git/XMCLib/src\xmc_usbd.c ****   gintmsk.b.sofintr = 1U;
1187:C:/Files/Projects/Git/XMCLib/src\xmc_usbd.c ****   if(obj->usbd_transfer_mode == XMC_USBD_USE_FIFO)
1188:C:/Files/Projects/Git/XMCLib/src\xmc_usbd.c ****   {
1189:C:/Files/Projects/Git/XMCLib/src\xmc_usbd.c ****     gintmsk.b.rxstsqlvl = 1U;
1190:C:/Files/Projects/Git/XMCLib/src\xmc_usbd.c ****   }
1191:C:/Files/Projects/Git/XMCLib/src\xmc_usbd.c ****   gintmsk.b.outepintr = 1U;
1192:C:/Files/Projects/Git/XMCLib/src\xmc_usbd.c ****   gintmsk.b.inepintr = 1U;
1193:C:/Files/Projects/Git/XMCLib/src\xmc_usbd.c ****   xmc_device.global_register->gintmsk = gintmsk.d32;
1194:C:/Files/Projects/Git/XMCLib/src\xmc_usbd.c ****   return XMC_USBD_STATUS_OK;
1195:C:/Files/Projects/Git/XMCLib/src\xmc_usbd.c **** }
1196:C:/Files/Projects/Git/XMCLib/src\xmc_usbd.c **** 
1197:C:/Files/Projects/Git/XMCLib/src\xmc_usbd.c **** /**
1198:C:/Files/Projects/Git/XMCLib/src\xmc_usbd.c ****  * Uninitializes the USB device
1199:C:/Files/Projects/Git/XMCLib/src\xmc_usbd.c ****  **/
1200:C:/Files/Projects/Git/XMCLib/src\xmc_usbd.c **** XMC_USBD_STATUS_t XMC_USBD_Uninitialize() 
1201:C:/Files/Projects/Git/XMCLib/src\xmc_usbd.c **** {
1202:C:/Files/Projects/Git/XMCLib/src\xmc_usbd.c ****   /* Disconnect the device */
1203:C:/Files/Projects/Git/XMCLib/src\xmc_usbd.c ****   dctl_data_t dctl;
1204:C:/Files/Projects/Git/XMCLib/src\xmc_usbd.c **** 	dctl.d32 = xmc_device.device_register->dctl;
1205:C:/Files/Projects/Git/XMCLib/src\xmc_usbd.c ****   dctl.b.sftdiscon = 1U;
1206:C:/Files/Projects/Git/XMCLib/src\xmc_usbd.c ****   xmc_device.device_register->dctl = dctl.d32;
1207:C:/Files/Projects/Git/XMCLib/src\xmc_usbd.c ****   /* clean up */
1208:C:/Files/Projects/Git/XMCLib/src\xmc_usbd.c ****   memset((void*)&xmc_device,0U,sizeof(xmc_device));
1209:C:/Files/Projects/Git/XMCLib/src\xmc_usbd.c ****   return XMC_USBD_STATUS_OK;
1210:C:/Files/Projects/Git/XMCLib/src\xmc_usbd.c **** }
1211:C:/Files/Projects/Git/XMCLib/src\xmc_usbd.c **** 
1212:C:/Files/Projects/Git/XMCLib/src\xmc_usbd.c **** /**
1213:C:/Files/Projects/Git/XMCLib/src\xmc_usbd.c ****  * Connects the USB device to host
1214:C:/Files/Projects/Git/XMCLib/src\xmc_usbd.c ****  **/
1215:C:/Files/Projects/Git/XMCLib/src\xmc_usbd.c **** XMC_USBD_STATUS_t XMC_USBD_DeviceConnect() 
1216:C:/Files/Projects/Git/XMCLib/src\xmc_usbd.c **** {
 591              	 .loc 1 1216 0
 592              	 .cfi_startproc
 593              	 
 594              	 
 595              	 
1217:C:/Files/Projects/Git/XMCLib/src\xmc_usbd.c ****   /* Just disable softdisconnect */
1218:C:/Files/Projects/Git/XMCLib/src\xmc_usbd.c ****   dctl_data_t dctl;
1219:C:/Files/Projects/Git/XMCLib/src\xmc_usbd.c **** 	dctl.d32 = xmc_device.device_register->dctl;
 596              	 .loc 1 1219 0
 597 0000 044B     	 ldr r3,.L55
 598 0002 D3F8A421 	 ldr r2,[r3,#420]
 599 0006 5368     	 ldr r3,[r2,#4]
1220:C:/Files/Projects/Git/XMCLib/src\xmc_usbd.c ****   dctl.b.sftdiscon = 0U;
 600              	 .loc 1 1220 0
 601 0008 6FF34103 	 bfc r3,#1,#1
 602              	.LVL55:
1221:C:/Files/Projects/Git/XMCLib/src\xmc_usbd.c ****   xmc_device.device_register->dctl = dctl.d32;
 603              	 .loc 1 1221 0
 604 000c 5360     	 str r3,[r2,#4]
1222:C:/Files/Projects/Git/XMCLib/src\xmc_usbd.c ****   return XMC_USBD_STATUS_OK;
1223:C:/Files/Projects/Git/XMCLib/src\xmc_usbd.c **** }
 605              	 .loc 1 1223 0
 606 000e 0020     	 movs r0,#0
 607 0010 7047     	 bx lr
 608              	.L56:
 609 0012 00BF     	 .align 2
 610              	.L55:
 611 0014 00000000 	 .word .LANCHOR0
 612              	 .cfi_endproc
 613              	.LFE202:
 615              	 .section .text.XMC_USBD_DeviceDisconnect,"ax",%progbits
 616              	 .align 2
 617              	 .global XMC_USBD_DeviceDisconnect
 618              	 .thumb
 619              	 .thumb_func
 621              	XMC_USBD_DeviceDisconnect:
 622              	.LFB203:
1224:C:/Files/Projects/Git/XMCLib/src\xmc_usbd.c **** 
1225:C:/Files/Projects/Git/XMCLib/src\xmc_usbd.c **** /**
1226:C:/Files/Projects/Git/XMCLib/src\xmc_usbd.c ****  * Disconnects the USB device from host
1227:C:/Files/Projects/Git/XMCLib/src\xmc_usbd.c ****  **/
1228:C:/Files/Projects/Git/XMCLib/src\xmc_usbd.c **** XMC_USBD_STATUS_t XMC_USBD_DeviceDisconnect() 
1229:C:/Files/Projects/Git/XMCLib/src\xmc_usbd.c **** {
 623              	 .loc 1 1229 0
 624              	 .cfi_startproc
 625              	 
 626              	 
 627              	 
1230:C:/Files/Projects/Git/XMCLib/src\xmc_usbd.c ****   dctl_data_t dctl;
1231:C:/Files/Projects/Git/XMCLib/src\xmc_usbd.c **** 	dctl.d32 = xmc_device.device_register->dctl;
 628              	 .loc 1 1231 0
 629 0000 044B     	 ldr r3,.L58
 630 0002 D3F8A421 	 ldr r2,[r3,#420]
 631 0006 5368     	 ldr r3,[r2,#4]
1232:C:/Files/Projects/Git/XMCLib/src\xmc_usbd.c ****   dctl.b.sftdiscon = 1U;
 632              	 .loc 1 1232 0
 633 0008 43F00203 	 orr r3,r3,#2
 634              	.LVL56:
1233:C:/Files/Projects/Git/XMCLib/src\xmc_usbd.c ****   xmc_device.device_register->dctl = dctl.d32;
 635              	 .loc 1 1233 0
 636 000c 5360     	 str r3,[r2,#4]
1234:C:/Files/Projects/Git/XMCLib/src\xmc_usbd.c ****   return XMC_USBD_STATUS_OK;
1235:C:/Files/Projects/Git/XMCLib/src\xmc_usbd.c **** }
 637              	 .loc 1 1235 0
 638 000e 0020     	 movs r0,#0
 639 0010 7047     	 bx lr
 640              	.L59:
 641 0012 00BF     	 .align 2
 642              	.L58:
 643 0014 00000000 	 .word .LANCHOR0
 644              	 .cfi_endproc
 645              	.LFE203:
 647              	 .section .text.XMC_USBD_EndpointReadStart,"ax",%progbits
 648              	 .align 2
 649              	 .global XMC_USBD_EndpointReadStart
 650              	 .thumb
 651              	 .thumb_func
 653              	XMC_USBD_EndpointReadStart:
 654              	.LFB205:
1236:C:/Files/Projects/Git/XMCLib/src\xmc_usbd.c **** 
1237:C:/Files/Projects/Git/XMCLib/src\xmc_usbd.c **** /**
1238:C:/Files/Projects/Git/XMCLib/src\xmc_usbd.c ****  * Gets the USB device state.
1239:C:/Files/Projects/Git/XMCLib/src\xmc_usbd.c ****  **/
1240:C:/Files/Projects/Git/XMCLib/src\xmc_usbd.c **** XMC_USBD_STATE_t XMC_USBD_DeviceGetState(const XMC_USBD_t *const obj) 
1241:C:/Files/Projects/Git/XMCLib/src\xmc_usbd.c **** {
1242:C:/Files/Projects/Git/XMCLib/src\xmc_usbd.c ****   XMC_USBD_STATE_t state={0U};
1243:C:/Files/Projects/Git/XMCLib/src\xmc_usbd.c ****   state.speed = XMC_USBD_SPEED_FULL;
1244:C:/Files/Projects/Git/XMCLib/src\xmc_usbd.c ****   state.connected = xmc_device.IsConnected;
1245:C:/Files/Projects/Git/XMCLib/src\xmc_usbd.c ****   state.active = XMC_USBD_lDeviceActive(obj);
1246:C:/Files/Projects/Git/XMCLib/src\xmc_usbd.c ****   state.powered = xmc_device.IsPowered;
1247:C:/Files/Projects/Git/XMCLib/src\xmc_usbd.c ****   return state;
1248:C:/Files/Projects/Git/XMCLib/src\xmc_usbd.c **** }
1249:C:/Files/Projects/Git/XMCLib/src\xmc_usbd.c **** 
1250:C:/Files/Projects/Git/XMCLib/src\xmc_usbd.c **** /**
1251:C:/Files/Projects/Git/XMCLib/src\xmc_usbd.c ****  * Prepares the endpoint to read next OUT packet
1252:C:/Files/Projects/Git/XMCLib/src\xmc_usbd.c ****  **/
1253:C:/Files/Projects/Git/XMCLib/src\xmc_usbd.c **** XMC_USBD_STATUS_t XMC_USBD_EndpointReadStart(const uint8_t ep_addr, uint32_t size) 
1254:C:/Files/Projects/Git/XMCLib/src\xmc_usbd.c **** {
 655              	 .loc 1 1254 0
 656              	 .cfi_startproc
 657              	 
 658              	 
 659              	.LVL57:
1255:C:/Files/Projects/Git/XMCLib/src\xmc_usbd.c ****   XMC_USBD_EP_t *ep = &xmc_device.ep[ep_addr & (uint8_t)XMC_USBD_EP_NUM_MASK];
 660              	 .loc 1 1255 0
 661 0000 00F00F00 	 and r0,r0,#15
 662              	.LVL58:
1256:C:/Files/Projects/Git/XMCLib/src\xmc_usbd.c ****   XMC_USBD_STATUS_t result;
1257:C:/Files/Projects/Git/XMCLib/src\xmc_usbd.c **** 	
1258:C:/Files/Projects/Git/XMCLib/src\xmc_usbd.c ****   if (ep->outInUse || !ep->isConfigured)
 663              	 .loc 1 1258 0
 664 0004 3423     	 movs r3,#52
 665 0006 134A     	 ldr r2,.L66
 666 0008 03FB0023 	 mla r3,r3,r0,r2
 667 000c 5B68     	 ldr r3,[r3,#4]
 668 000e 13F0100F 	 tst r3,#16
 669 0012 1AD1     	 bne .L62
 670              	 .loc 1 1258 0 is_stmt 0 discriminator 1
 671 0014 3423     	 movs r3,#52
 672 0016 03FB0023 	 mla r3,r3,r0,r2
 673 001a 1B79     	 ldrb r3,[r3,#4]
 674 001c 13F0040F 	 tst r3,#4
 675 0020 15D0     	 beq .L63
1254:C:/Files/Projects/Git/XMCLib/src\xmc_usbd.c ****   XMC_USBD_EP_t *ep = &xmc_device.ep[ep_addr & (uint8_t)XMC_USBD_EP_NUM_MASK];
 676              	 .loc 1 1254 0 is_stmt 1
 677 0022 10B5     	 push {r4,lr}
 678              	.LCFI9:
 679              	 .cfi_def_cfa_offset 8
 680              	 .cfi_offset 4,-8
 681              	 .cfi_offset 14,-4
1259:C:/Files/Projects/Git/XMCLib/src\xmc_usbd.c ****   {
1260:C:/Files/Projects/Git/XMCLib/src\xmc_usbd.c ****     result = XMC_USBD_STATUS_ERROR;
1261:C:/Files/Projects/Git/XMCLib/src\xmc_usbd.c ****   }
1262:C:/Files/Projects/Git/XMCLib/src\xmc_usbd.c ****   else
1263:C:/Files/Projects/Git/XMCLib/src\xmc_usbd.c ****   {
1264:C:/Files/Projects/Git/XMCLib/src\xmc_usbd.c ****     /* short the length to buffer size if needed */
1265:C:/Files/Projects/Git/XMCLib/src\xmc_usbd.c ****     if (size > ep->outBufferSize)
 682              	 .loc 1 1265 0
 683 0024 3422     	 movs r2,#52
 684 0026 0B4B     	 ldr r3,.L66
 685 0028 02FB0030 	 mla r0,r2,r0,r3
 686              	.LVL59:
 687 002c 4369     	 ldr r3,[r0,#20]
 688              	.LVL60:
 689 002e 9942     	 cmp r1,r3
 690 0030 28BF     	 it cs
 691 0032 1946     	 movcs r1,r3
 692              	.LVL61:
1266:C:/Files/Projects/Git/XMCLib/src\xmc_usbd.c ****     {
1267:C:/Files/Projects/Git/XMCLib/src\xmc_usbd.c ****       size = ep->outBufferSize;
1268:C:/Files/Projects/Git/XMCLib/src\xmc_usbd.c ****     }
1269:C:/Files/Projects/Git/XMCLib/src\xmc_usbd.c ****     /* set ep values */
1270:C:/Files/Projects/Git/XMCLib/src\xmc_usbd.c ****     ep->xferTotal = size;
 693              	 .loc 1 1270 0
 694 0034 0163     	 str r1,[r0,#48]
1271:C:/Files/Projects/Git/XMCLib/src\xmc_usbd.c ****     ep->xferCount = 0U;
 695              	 .loc 1 1271 0
 696 0036 0024     	 movs r4,#0
 697 0038 C462     	 str r4,[r0,#44]
1272:C:/Files/Projects/Git/XMCLib/src\xmc_usbd.c ****     ep->xferLength = 0U;
 698              	 .loc 1 1272 0
 699 003a 8462     	 str r4,[r0,#40]
1273:C:/Files/Projects/Git/XMCLib/src\xmc_usbd.c ****     ep->xferBuffer = ep->outBuffer;
 700              	 .loc 1 1273 0
 701 003c C368     	 ldr r3,[r0,#12]
 702              	.LVL62:
 703 003e 4362     	 str r3,[r0,#36]
1274:C:/Files/Projects/Git/XMCLib/src\xmc_usbd.c ****     ep->outBytesAvailable = 0U;
 704              	 .loc 1 1274 0
 705 0040 0461     	 str r4,[r0,#16]
1275:C:/Files/Projects/Git/XMCLib/src\xmc_usbd.c ****     XMC_USBD_lStartReadXfer(ep);
 706              	 .loc 1 1275 0
 707 0042 FFF7FEFF 	 bl XMC_USBD_lStartReadXfer
 708              	.LVL63:
1276:C:/Files/Projects/Git/XMCLib/src\xmc_usbd.c ****     result= XMC_USBD_STATUS_OK;
 709              	 .loc 1 1276 0
 710 0046 2046     	 mov r0,r4
 711 0048 10BD     	 pop {r4,pc}
 712              	.LVL64:
 713              	.L62:
 714              	.LCFI10:
 715              	 .cfi_def_cfa_offset 0
 716              	 .cfi_restore 4
 717              	 .cfi_restore 14
1260:C:/Files/Projects/Git/XMCLib/src\xmc_usbd.c ****   }
 718              	 .loc 1 1260 0
 719 004a 0120     	 movs r0,#1
 720              	.LVL65:
 721 004c 7047     	 bx lr
 722              	.LVL66:
 723              	.L63:
 724 004e 0120     	 movs r0,#1
 725              	.LVL67:
 726 0050 7047     	 bx lr
 727              	.L67:
 728 0052 00BF     	 .align 2
 729              	.L66:
 730 0054 00000000 	 .word .LANCHOR0
 731              	 .cfi_endproc
 732              	.LFE205:
 734              	 .section .text.XMC_USBD_DeviceSetAddress,"ax",%progbits
 735              	 .align 2
 736              	 .global XMC_USBD_DeviceSetAddress
 737              	 .thumb
 738              	 .thumb_func
 740              	XMC_USBD_DeviceSetAddress:
 741              	.LFB208:
1277:C:/Files/Projects/Git/XMCLib/src\xmc_usbd.c ****   }
1278:C:/Files/Projects/Git/XMCLib/src\xmc_usbd.c ****   return result;
1279:C:/Files/Projects/Git/XMCLib/src\xmc_usbd.c **** }
1280:C:/Files/Projects/Git/XMCLib/src\xmc_usbd.c **** 
1281:C:/Files/Projects/Git/XMCLib/src\xmc_usbd.c **** /**
1282:C:/Files/Projects/Git/XMCLib/src\xmc_usbd.c ****  * Reads the number of bytes from the USB OUT endpoint
1283:C:/Files/Projects/Git/XMCLib/src\xmc_usbd.c ****  **/
1284:C:/Files/Projects/Git/XMCLib/src\xmc_usbd.c **** int32_t XMC_USBD_EndpointRead(const uint8_t ep_num,uint8_t * buffer,uint32_t length) 
1285:C:/Files/Projects/Git/XMCLib/src\xmc_usbd.c **** {
1286:C:/Files/Projects/Git/XMCLib/src\xmc_usbd.c ****   XMC_USBD_EP_t *ep = &xmc_device.ep[ep_num];
1287:C:/Files/Projects/Git/XMCLib/src\xmc_usbd.c ****   if (length > ep->outBytesAvailable)
1288:C:/Files/Projects/Git/XMCLib/src\xmc_usbd.c ****   {
1289:C:/Files/Projects/Git/XMCLib/src\xmc_usbd.c ****     length = ep->outBytesAvailable;
1290:C:/Files/Projects/Git/XMCLib/src\xmc_usbd.c ****   }
1291:C:/Files/Projects/Git/XMCLib/src\xmc_usbd.c ****   memcpy(buffer,&ep->outBuffer[ep->outOffset],length);
1292:C:/Files/Projects/Git/XMCLib/src\xmc_usbd.c ****   ep->outBytesAvailable -= length;
1293:C:/Files/Projects/Git/XMCLib/src\xmc_usbd.c ****   if (ep->outBytesAvailable)
1294:C:/Files/Projects/Git/XMCLib/src\xmc_usbd.c ****   {
1295:C:/Files/Projects/Git/XMCLib/src\xmc_usbd.c ****     ep->outOffset += length;
1296:C:/Files/Projects/Git/XMCLib/src\xmc_usbd.c ****   }
1297:C:/Files/Projects/Git/XMCLib/src\xmc_usbd.c ****   else
1298:C:/Files/Projects/Git/XMCLib/src\xmc_usbd.c ****   {
1299:C:/Files/Projects/Git/XMCLib/src\xmc_usbd.c ****     ep->outOffset = 0U;
1300:C:/Files/Projects/Git/XMCLib/src\xmc_usbd.c ****   }
1301:C:/Files/Projects/Git/XMCLib/src\xmc_usbd.c ****   return (int32_t)length;
1302:C:/Files/Projects/Git/XMCLib/src\xmc_usbd.c **** }
1303:C:/Files/Projects/Git/XMCLib/src\xmc_usbd.c **** 
1304:C:/Files/Projects/Git/XMCLib/src\xmc_usbd.c **** /**
1305:C:/Files/Projects/Git/XMCLib/src\xmc_usbd.c ****  * Writes number of bytes in to the USB IN endpoint.
1306:C:/Files/Projects/Git/XMCLib/src\xmc_usbd.c ****  **/
1307:C:/Files/Projects/Git/XMCLib/src\xmc_usbd.c **** int32_t XMC_USBD_EndpointWrite(const uint8_t ep_num,const uint8_t * buffer,uint32_t length) 
1308:C:/Files/Projects/Git/XMCLib/src\xmc_usbd.c **** {
1309:C:/Files/Projects/Git/XMCLib/src\xmc_usbd.c ****   XMC_USBD_EP_t * ep = &xmc_device.ep[ep_num & (uint8_t)XMC_USBD_EP_NUM_MASK];
1310:C:/Files/Projects/Git/XMCLib/src\xmc_usbd.c ****   int32_t result;
1311:C:/Files/Projects/Git/XMCLib/src\xmc_usbd.c ****   if (!ep->isConfigured)
1312:C:/Files/Projects/Git/XMCLib/src\xmc_usbd.c ****   {
1313:C:/Files/Projects/Git/XMCLib/src\xmc_usbd.c ****     result = (int32_t)XMC_USBD_STATUS_ERROR;
1314:C:/Files/Projects/Git/XMCLib/src\xmc_usbd.c ****   }
1315:C:/Files/Projects/Git/XMCLib/src\xmc_usbd.c ****   else if (ep->inInUse == 1U)
1316:C:/Files/Projects/Git/XMCLib/src\xmc_usbd.c ****   {
1317:C:/Files/Projects/Git/XMCLib/src\xmc_usbd.c ****     result=(int32_t)0;
1318:C:/Files/Projects/Git/XMCLib/src\xmc_usbd.c ****   }
1319:C:/Files/Projects/Git/XMCLib/src\xmc_usbd.c ****   else
1320:C:/Files/Projects/Git/XMCLib/src\xmc_usbd.c ****   {
1321:C:/Files/Projects/Git/XMCLib/src\xmc_usbd.c ****     if (length > ep->inBufferSize)
1322:C:/Files/Projects/Git/XMCLib/src\xmc_usbd.c ****     {
1323:C:/Files/Projects/Git/XMCLib/src\xmc_usbd.c ****       length = ep->inBufferSize;
1324:C:/Files/Projects/Git/XMCLib/src\xmc_usbd.c ****     }
1325:C:/Files/Projects/Git/XMCLib/src\xmc_usbd.c ****     /* copy data into input buffer for DMA and FIFO mode */
1326:C:/Files/Projects/Git/XMCLib/src\xmc_usbd.c **** 		memcpy(ep->inBuffer,(const void *)buffer,length);
1327:C:/Files/Projects/Git/XMCLib/src\xmc_usbd.c **** 		ep->xferBuffer = ep->inBuffer;
1328:C:/Files/Projects/Git/XMCLib/src\xmc_usbd.c ****     ep->xferTotal = length;
1329:C:/Files/Projects/Git/XMCLib/src\xmc_usbd.c ****     /* set transfer values */
1330:C:/Files/Projects/Git/XMCLib/src\xmc_usbd.c ****     ep->xferLength = 0U;
1331:C:/Files/Projects/Git/XMCLib/src\xmc_usbd.c ****     ep->xferCount = 0U;
1332:C:/Files/Projects/Git/XMCLib/src\xmc_usbd.c ****     ep->inInUse = 1U;
1333:C:/Files/Projects/Git/XMCLib/src\xmc_usbd.c ****     /* start the transfer */
1334:C:/Files/Projects/Git/XMCLib/src\xmc_usbd.c ****     XMC_USBD_lStartWriteXfer(ep);
1335:C:/Files/Projects/Git/XMCLib/src\xmc_usbd.c ****     result=(int32_t)ep->xferTotal;
1336:C:/Files/Projects/Git/XMCLib/src\xmc_usbd.c ****   }
1337:C:/Files/Projects/Git/XMCLib/src\xmc_usbd.c ****   return result;
1338:C:/Files/Projects/Git/XMCLib/src\xmc_usbd.c **** }
1339:C:/Files/Projects/Git/XMCLib/src\xmc_usbd.c **** 
1340:C:/Files/Projects/Git/XMCLib/src\xmc_usbd.c **** /**
1341:C:/Files/Projects/Git/XMCLib/src\xmc_usbd.c ****  * Sets the USB device address.
1342:C:/Files/Projects/Git/XMCLib/src\xmc_usbd.c ****  **/
1343:C:/Files/Projects/Git/XMCLib/src\xmc_usbd.c **** XMC_USBD_STATUS_t XMC_USBD_DeviceSetAddress(const uint8_t address,const XMC_USBD_SET_ADDRESS_STAGE_
1344:C:/Files/Projects/Git/XMCLib/src\xmc_usbd.c **** {
 742              	 .loc 1 1344 0
 743              	 .cfi_startproc
 744              	 
 745              	 
 746              	 
 747              	.LVL68:
1345:C:/Files/Projects/Git/XMCLib/src\xmc_usbd.c ****   dcfg_data_t data;
1346:C:/Files/Projects/Git/XMCLib/src\xmc_usbd.c ****   data.d32 = xmc_device.device_register->dcfg;
 748              	 .loc 1 1346 0
 749 0000 044B     	 ldr r3,.L70
 750 0002 D3F8A431 	 ldr r3,[r3,#420]
 751 0006 1A68     	 ldr r2,[r3]
 752              	.LVL69:
1347:C:/Files/Projects/Git/XMCLib/src\xmc_usbd.c ****   if (stage == XMC_USBD_SET_ADDRESS_STAGE_SETUP)
 753              	 .loc 1 1347 0
 754 0008 11B9     	 cbnz r1,.L69
1348:C:/Files/Projects/Git/XMCLib/src\xmc_usbd.c ****   {
1349:C:/Files/Projects/Git/XMCLib/src\xmc_usbd.c ****     data.b.devaddr = address;
 755              	 .loc 1 1349 0
 756 000a 60F30A12 	 bfi r2,r0,#4,#7
1350:C:/Files/Projects/Git/XMCLib/src\xmc_usbd.c ****     xmc_device.device_register->dcfg = data.d32;
 757              	 .loc 1 1350 0
 758 000e 1A60     	 str r2,[r3]
 759              	.L69:
1351:C:/Files/Projects/Git/XMCLib/src\xmc_usbd.c ****   }
1352:C:/Files/Projects/Git/XMCLib/src\xmc_usbd.c **** 	return XMC_USBD_STATUS_OK;
1353:C:/Files/Projects/Git/XMCLib/src\xmc_usbd.c **** }
 760              	 .loc 1 1353 0
 761 0010 0020     	 movs r0,#0
 762              	.LVL70:
 763 0012 7047     	 bx lr
 764              	.L71:
 765              	 .align 2
 766              	.L70:
 767 0014 00000000 	 .word .LANCHOR0
 768              	 .cfi_endproc
 769              	.LFE208:
 771              	 .section .text.XMC_USBD_EndpointStall,"ax",%progbits
 772              	 .align 2
 773              	 .global XMC_USBD_EndpointStall
 774              	 .thumb
 775              	 .thumb_func
 777              	XMC_USBD_EndpointStall:
 778              	.LFB209:
1354:C:/Files/Projects/Git/XMCLib/src\xmc_usbd.c **** 
1355:C:/Files/Projects/Git/XMCLib/src\xmc_usbd.c **** /**
1356:C:/Files/Projects/Git/XMCLib/src\xmc_usbd.c ****  * Set/clear stall on the selected endpoint.
1357:C:/Files/Projects/Git/XMCLib/src\xmc_usbd.c ****  **/
1358:C:/Files/Projects/Git/XMCLib/src\xmc_usbd.c **** XMC_USBD_STATUS_t XMC_USBD_EndpointStall(const uint8_t ep_addr, const bool stall) 
1359:C:/Files/Projects/Git/XMCLib/src\xmc_usbd.c **** {
 779              	 .loc 1 1359 0
 780              	 .cfi_startproc
 781              	 
 782              	 
 783              	 
 784              	.LVL71:
1360:C:/Files/Projects/Git/XMCLib/src\xmc_usbd.c ****   depctl_data_t data;
1361:C:/Files/Projects/Git/XMCLib/src\xmc_usbd.c ****   XMC_USBD_EP_t *ep = &xmc_device.ep[(ep_addr & (uint8_t)XMC_USBD_EP_NUM_MASK)];
 785              	 .loc 1 1361 0
 786 0000 00F00F02 	 and r2,r0,#15
 787              	.LVL72:
1362:C:/Files/Projects/Git/XMCLib/src\xmc_usbd.c ****   if (stall)
 788              	 .loc 1 1362 0
 789 0004 49B3     	 cbz r1,.L73
1363:C:/Files/Projects/Git/XMCLib/src\xmc_usbd.c ****   {
1364:C:/Files/Projects/Git/XMCLib/src\xmc_usbd.c ****     if (ep_addr & (uint8_t)XMC_USBD_ENDPOINT_DIRECTION_MASK)
 790              	 .loc 1 1364 0
 791 0006 10F0800F 	 tst r0,#128
 792 000a 0ED0     	 beq .L74
1365:C:/Files/Projects/Git/XMCLib/src\xmc_usbd.c ****     {
1366:C:/Files/Projects/Git/XMCLib/src\xmc_usbd.c ****       /*set stall bit */
1367:C:/Files/Projects/Git/XMCLib/src\xmc_usbd.c ****       data.d32 = xmc_device.endpoint_in_register[ep->address_u.address_st.number]->diepctl;
 793              	 .loc 1 1367 0
 794 000c 2A49     	 ldr r1,.L79
 795              	.LVL73:
 796 000e 3423     	 movs r3,#52
 797 0010 03FB02F3 	 mul r3,r3,r2
 798 0014 CB5C     	 ldrb r3,[r1,r3]
 799 0016 03F00F03 	 and r3,r3,#15
 800 001a 6A33     	 adds r3,r3,#106
 801 001c 51F82310 	 ldr r1,[r1,r3,lsl#2]
 802 0020 0B68     	 ldr r3,[r1]
1368:C:/Files/Projects/Git/XMCLib/src\xmc_usbd.c ****       data.b.stall = 1U;
 803              	 .loc 1 1368 0
 804 0022 43F40013 	 orr r3,r3,#2097152
 805              	.LVL74:
1369:C:/Files/Projects/Git/XMCLib/src\xmc_usbd.c ****       xmc_device.endpoint_in_register[ep->address_u.address_st.number]->diepctl = data.d32;
 806              	 .loc 1 1369 0
 807 0026 0B60     	 str r3,[r1]
 808 0028 0EE0     	 b .L75
 809              	.LVL75:
 810              	.L74:
1370:C:/Files/Projects/Git/XMCLib/src\xmc_usbd.c ****     }
1371:C:/Files/Projects/Git/XMCLib/src\xmc_usbd.c ****     else
1372:C:/Files/Projects/Git/XMCLib/src\xmc_usbd.c ****     {
1373:C:/Files/Projects/Git/XMCLib/src\xmc_usbd.c ****       /*set stall bit */
1374:C:/Files/Projects/Git/XMCLib/src\xmc_usbd.c ****       data.d32 = xmc_device.endpoint_out_register[ep->address_u.address_st.number]->doepctl;
 811              	 .loc 1 1374 0
 812 002a 234B     	 ldr r3,.L79
 813 002c 3421     	 movs r1,#52
 814              	.LVL76:
 815 002e 01FB02F1 	 mul r1,r1,r2
 816 0032 595C     	 ldrb r1,[r3,r1]
 817 0034 01F00F01 	 and r1,r1,#15
 818 0038 03EB8103 	 add r3,r3,r1,lsl#2
 819 003c D3F8C411 	 ldr r1,[r3,#452]
 820 0040 0B68     	 ldr r3,[r1]
1375:C:/Files/Projects/Git/XMCLib/src\xmc_usbd.c ****       data.b.stall = 1U;
 821              	 .loc 1 1375 0
 822 0042 43F40013 	 orr r3,r3,#2097152
 823              	.LVL77:
1376:C:/Files/Projects/Git/XMCLib/src\xmc_usbd.c ****       xmc_device.endpoint_out_register[ep->address_u.address_st.number]->doepctl = data.d32;
 824              	 .loc 1 1376 0
 825 0046 0B60     	 str r3,[r1]
 826              	.L75:
1377:C:/Files/Projects/Git/XMCLib/src\xmc_usbd.c ****     }
1378:C:/Files/Projects/Git/XMCLib/src\xmc_usbd.c ****     ep->isStalled = 1U;
 827              	 .loc 1 1378 0
 828 0048 3423     	 movs r3,#52
 829              	.LVL78:
 830 004a 1B49     	 ldr r1,.L79
 831 004c 03FB0212 	 mla r2,r3,r2,r1
 832              	.LVL79:
 833 0050 1379     	 ldrb r3,[r2,#4]
 834 0052 43F02003 	 orr r3,r3,#32
 835 0056 1371     	 strb r3,[r2,#4]
 836 0058 2CE0     	 b .L76
 837              	.LVL80:
 838              	.L73:
1379:C:/Files/Projects/Git/XMCLib/src\xmc_usbd.c ****   }
1380:C:/Files/Projects/Git/XMCLib/src\xmc_usbd.c ****   else
1381:C:/Files/Projects/Git/XMCLib/src\xmc_usbd.c ****   {
1382:C:/Files/Projects/Git/XMCLib/src\xmc_usbd.c ****     /* just clear stall bit */
1383:C:/Files/Projects/Git/XMCLib/src\xmc_usbd.c **** 		if (ep_addr & (uint8_t)XMC_USBD_ENDPOINT_DIRECTION_MASK)
 839              	 .loc 1 1383 0
 840 005a 10F0800F 	 tst r0,#128
 841 005e 10D0     	 beq .L77
1384:C:/Files/Projects/Git/XMCLib/src\xmc_usbd.c **** 		{
1385:C:/Files/Projects/Git/XMCLib/src\xmc_usbd.c **** 			data.d32 = xmc_device.endpoint_in_register[ep->address_u.address_st.number]->diepctl;
 842              	 .loc 1 1385 0
 843 0060 1549     	 ldr r1,.L79
 844              	.LVL81:
 845 0062 3423     	 movs r3,#52
 846 0064 03FB02F3 	 mul r3,r3,r2
 847 0068 CB5C     	 ldrb r3,[r1,r3]
 848 006a 03F00F03 	 and r3,r3,#15
 849 006e 6A33     	 adds r3,r3,#106
 850 0070 51F82310 	 ldr r1,[r1,r3,lsl#2]
 851 0074 0B68     	 ldr r3,[r1]
1386:C:/Files/Projects/Git/XMCLib/src\xmc_usbd.c **** 			data.b.stall = 0U;
 852              	 .loc 1 1386 0
 853 0076 23F08153 	 bic r3,r3,#270532608
 854              	.LVL82:
1387:C:/Files/Projects/Git/XMCLib/src\xmc_usbd.c **** 			data.b.setd0pid = 1U; /* reset pid to 0 */
 855              	 .loc 1 1387 0
 856 007a 43F08053 	 orr r3,r3,#268435456
 857              	.LVL83:
1388:C:/Files/Projects/Git/XMCLib/src\xmc_usbd.c **** 			xmc_device.endpoint_in_register[ep->address_u.address_st.number]->diepctl = data.d32;
 858              	 .loc 1 1388 0
 859 007e 0B60     	 str r3,[r1]
 860 0080 10E0     	 b .L78
 861              	.LVL84:
 862              	.L77:
1389:C:/Files/Projects/Git/XMCLib/src\xmc_usbd.c **** 		}
1390:C:/Files/Projects/Git/XMCLib/src\xmc_usbd.c **** 		else
1391:C:/Files/Projects/Git/XMCLib/src\xmc_usbd.c **** 		{
1392:C:/Files/Projects/Git/XMCLib/src\xmc_usbd.c **** 			data.d32 = xmc_device.endpoint_out_register[ep->address_u.address_st.number]->doepctl;
 863              	 .loc 1 1392 0
 864 0082 0D4B     	 ldr r3,.L79
 865 0084 3421     	 movs r1,#52
 866              	.LVL85:
 867 0086 01FB02F1 	 mul r1,r1,r2
 868 008a 595C     	 ldrb r1,[r3,r1]
 869 008c 01F00F01 	 and r1,r1,#15
 870 0090 03EB8103 	 add r3,r3,r1,lsl#2
 871 0094 D3F8C411 	 ldr r1,[r3,#452]
 872 0098 0B68     	 ldr r3,[r1]
1393:C:/Files/Projects/Git/XMCLib/src\xmc_usbd.c **** 			data.b.stall = 0U;
 873              	 .loc 1 1393 0
 874 009a 23F08153 	 bic r3,r3,#270532608
 875              	.LVL86:
1394:C:/Files/Projects/Git/XMCLib/src\xmc_usbd.c **** 			data.b.setd0pid = 1U; /* reset pid to 0 */
 876              	 .loc 1 1394 0
 877 009e 43F08053 	 orr r3,r3,#268435456
 878              	.LVL87:
1395:C:/Files/Projects/Git/XMCLib/src\xmc_usbd.c **** 			xmc_device.endpoint_out_register[ep->address_u.address_st.number]->doepctl = data.d32;
 879              	 .loc 1 1395 0
 880 00a2 0B60     	 str r3,[r1]
 881              	.L78:
1396:C:/Files/Projects/Git/XMCLib/src\xmc_usbd.c **** 		}
1397:C:/Files/Projects/Git/XMCLib/src\xmc_usbd.c **** 		ep->isStalled = 0U;
 882              	 .loc 1 1397 0
 883 00a4 3421     	 movs r1,#52
 884 00a6 044B     	 ldr r3,.L79
 885              	.LVL88:
 886 00a8 01FB0232 	 mla r2,r1,r2,r3
 887              	.LVL89:
 888 00ac 1379     	 ldrb r3,[r2,#4]
 889 00ae 6FF34513 	 bfc r3,#5,#1
 890 00b2 1371     	 strb r3,[r2,#4]
 891              	.L76:
1398:C:/Files/Projects/Git/XMCLib/src\xmc_usbd.c **** 	}
1399:C:/Files/Projects/Git/XMCLib/src\xmc_usbd.c **** 	return XMC_USBD_STATUS_OK;
1400:C:/Files/Projects/Git/XMCLib/src\xmc_usbd.c **** }
 892              	 .loc 1 1400 0
 893 00b4 0020     	 movs r0,#0
 894              	.LVL90:
 895 00b6 7047     	 bx lr
 896              	.L80:
 897              	 .align 2
 898              	.L79:
 899 00b8 00000000 	 .word .LANCHOR0
 900              	 .cfi_endproc
 901              	.LFE209:
 903              	 .section .text.XMC_USBD_EndpointAbort,"ax",%progbits
 904              	 .align 2
 905              	 .global XMC_USBD_EndpointAbort
 906              	 .thumb
 907              	 .thumb_func
 909              	XMC_USBD_EndpointAbort:
 910              	.LFB210:
1401:C:/Files/Projects/Git/XMCLib/src\xmc_usbd.c **** 
1402:C:/Files/Projects/Git/XMCLib/src\xmc_usbd.c **** /**
1403:C:/Files/Projects/Git/XMCLib/src\xmc_usbd.c ****  * Aborts the data transfer on the selected endpoint
1404:C:/Files/Projects/Git/XMCLib/src\xmc_usbd.c ****  **/
1405:C:/Files/Projects/Git/XMCLib/src\xmc_usbd.c **** XMC_USBD_STATUS_t XMC_USBD_EndpointAbort(const uint8_t ep_addr) {
 911              	 .loc 1 1405 0
 912              	 .cfi_startproc
 913              	 
 914              	 
 915              	 
 916              	.LVL91:
 917 0000 10B4     	 push {r4}
 918              	.LCFI11:
 919              	 .cfi_def_cfa_offset 4
 920              	 .cfi_offset 4,-4
1406:C:/Files/Projects/Git/XMCLib/src\xmc_usbd.c ****   XMC_USBD_EP_t *ep = &xmc_device.ep[ep_addr & (uint8_t)XMC_USBD_ENDPOINT_NUMBER_MASK];
 921              	 .loc 1 1406 0
 922 0002 00F00F00 	 and r0,r0,#15
 923              	.LVL92:
1407:C:/Files/Projects/Git/XMCLib/src\xmc_usbd.c ****   if (ep->address_u.address_st.direction)
 924              	 .loc 1 1407 0
 925 0006 3423     	 movs r3,#52
 926 0008 03FB00F3 	 mul r3,r3,r0
 927 000c 154A     	 ldr r2,.L85
 928 000e D35C     	 ldrb r3,[r2,r3]
 929 0010 13F0800F 	 tst r3,#128
 930 0014 0CD0     	 beq .L82
1408:C:/Files/Projects/Git/XMCLib/src\xmc_usbd.c ****   {
1409:C:/Files/Projects/Git/XMCLib/src\xmc_usbd.c ****     ep->inInUse = 0U;
 931              	 .loc 1 1409 0
 932 0016 1146     	 mov r1,r2
 933 0018 3423     	 movs r3,#52
 934 001a 03FB00F3 	 mul r3,r3,r0
 935 001e D418     	 adds r4,r2,r3
 936 0020 6268     	 ldr r2,[r4,#4]
 937 0022 22F00802 	 bic r2,r2,#8
 938 0026 6260     	 str r2,[r4,#4]
1410:C:/Files/Projects/Git/XMCLib/src\xmc_usbd.c ****   }
1411:C:/Files/Projects/Git/XMCLib/src\xmc_usbd.c ****   if (!ep->address_u.address_st.direction)
 939              	 .loc 1 1411 0
 940 0028 CB5C     	 ldrb r3,[r1,r3]
 941 002a 13F0800F 	 tst r3,#128
 942 002e 07D1     	 bne .L83
 943              	.L82:
1412:C:/Files/Projects/Git/XMCLib/src\xmc_usbd.c ****   {
1413:C:/Files/Projects/Git/XMCLib/src\xmc_usbd.c ****     ep->outInUse = 0U;
 944              	 .loc 1 1413 0
 945 0030 3423     	 movs r3,#52
 946 0032 0C4A     	 ldr r2,.L85
 947 0034 03FB0023 	 mla r3,r3,r0,r2
 948 0038 5A68     	 ldr r2,[r3,#4]
 949 003a 22F01002 	 bic r2,r2,#16
 950 003e 5A60     	 str r2,[r3,#4]
 951              	.L83:
1414:C:/Files/Projects/Git/XMCLib/src\xmc_usbd.c ****   }
1415:C:/Files/Projects/Git/XMCLib/src\xmc_usbd.c ****   ep->isStalled = 0U;
 952              	 .loc 1 1415 0
 953 0040 3422     	 movs r2,#52
 954 0042 084B     	 ldr r3,.L85
 955 0044 02FB0033 	 mla r3,r2,r0,r3
 956 0048 1A79     	 ldrb r2,[r3,#4]
 957 004a 6FF34512 	 bfc r2,#5,#1
 958 004e 1A71     	 strb r2,[r3,#4]
1416:C:/Files/Projects/Git/XMCLib/src\xmc_usbd.c ****   ep->outBytesAvailable = 0U;
 959              	 .loc 1 1416 0
 960 0050 0020     	 movs r0,#0
 961              	.LVL93:
 962 0052 1861     	 str r0,[r3,#16]
1417:C:/Files/Projects/Git/XMCLib/src\xmc_usbd.c ****   ep->outOffset = 0U;
 963              	 .loc 1 1417 0
 964 0054 9861     	 str r0,[r3,#24]
1418:C:/Files/Projects/Git/XMCLib/src\xmc_usbd.c ****   ep->xferLength = 0U;
 965              	 .loc 1 1418 0
 966 0056 9862     	 str r0,[r3,#40]
1419:C:/Files/Projects/Git/XMCLib/src\xmc_usbd.c ****   ep->xferCount = 0U;
 967              	 .loc 1 1419 0
 968 0058 D862     	 str r0,[r3,#44]
1420:C:/Files/Projects/Git/XMCLib/src\xmc_usbd.c ****   ep->xferTotal = 0U;
 969              	 .loc 1 1420 0
 970 005a 1863     	 str r0,[r3,#48]
1421:C:/Files/Projects/Git/XMCLib/src\xmc_usbd.c **** 
1422:C:/Files/Projects/Git/XMCLib/src\xmc_usbd.c ****   return XMC_USBD_STATUS_OK;
1423:C:/Files/Projects/Git/XMCLib/src\xmc_usbd.c **** }
 971              	 .loc 1 1423 0
 972 005c 5DF8044B 	 ldr r4,[sp],#4
 973              	.LCFI12:
 974              	 .cfi_restore 4
 975              	 .cfi_def_cfa_offset 0
 976 0060 7047     	 bx lr
 977              	.L86:
 978 0062 00BF     	 .align 2
 979              	.L85:
 980 0064 00000000 	 .word .LANCHOR0
 981              	 .cfi_endproc
 982              	.LFE210:
 984              	 .section .text.XMC_USBD_EndpointUnconfigure,"ax",%progbits
 985              	 .align 2
 986              	 .global XMC_USBD_EndpointUnconfigure
 987              	 .thumb
 988              	 .thumb_func
 990              	XMC_USBD_EndpointUnconfigure:
 991              	.LFB212:
1424:C:/Files/Projects/Git/XMCLib/src\xmc_usbd.c **** 
1425:C:/Files/Projects/Git/XMCLib/src\xmc_usbd.c **** /**
1426:C:/Files/Projects/Git/XMCLib/src\xmc_usbd.c ****  * Configures the given endpoint
1427:C:/Files/Projects/Git/XMCLib/src\xmc_usbd.c ****  **/
1428:C:/Files/Projects/Git/XMCLib/src\xmc_usbd.c **** XMC_USBD_STATUS_t XMC_USBD_EndpointConfigure(const uint8_t ep_addr,
1429:C:/Files/Projects/Git/XMCLib/src\xmc_usbd.c **** 		                                     const XMC_USBD_ENDPOINT_TYPE_t ep_type,
1430:C:/Files/Projects/Git/XMCLib/src\xmc_usbd.c **** 		                                     const uint16_t ep_max_packet_size) 
1431:C:/Files/Projects/Git/XMCLib/src\xmc_usbd.c **** {
1432:C:/Files/Projects/Git/XMCLib/src\xmc_usbd.c ****   daint_data_t daintmsk;
1433:C:/Files/Projects/Git/XMCLib/src\xmc_usbd.c ****   XMC_USBD_EP_t *ep;
1434:C:/Files/Projects/Git/XMCLib/src\xmc_usbd.c ****   daintmsk.d32 = xmc_device.device_register->daintmsk;  
1435:C:/Files/Projects/Git/XMCLib/src\xmc_usbd.c ****   ep =&xmc_device.ep[ep_addr & (uint32_t)XMC_USBD_ENDPOINT_NUMBER_MASK];
1436:C:/Files/Projects/Git/XMCLib/src\xmc_usbd.c ****   memset((void*)ep,0x0U,sizeof(XMC_USBD_EP_t)); /* clear endpoint structure */
1437:C:/Files/Projects/Git/XMCLib/src\xmc_usbd.c ****   /* do ep configuration */
1438:C:/Files/Projects/Git/XMCLib/src\xmc_usbd.c ****   ep->address_u.address = ep_addr;
1439:C:/Files/Projects/Git/XMCLib/src\xmc_usbd.c ****   ep->isConfigured = 1U;
1440:C:/Files/Projects/Git/XMCLib/src\xmc_usbd.c ****   ep->maxPacketSize = (uint8_t)ep_max_packet_size;
1441:C:/Files/Projects/Git/XMCLib/src\xmc_usbd.c ****   if (ep->address_u.address != 0U)
1442:C:/Files/Projects/Git/XMCLib/src\xmc_usbd.c ****   {
1443:C:/Files/Projects/Git/XMCLib/src\xmc_usbd.c ****     ep->maxTransferSize = (uint32_t)XMC_USBD_MAX_TRANSFER_SIZE;
1444:C:/Files/Projects/Git/XMCLib/src\xmc_usbd.c ****   }
1445:C:/Files/Projects/Git/XMCLib/src\xmc_usbd.c ****   else
1446:C:/Files/Projects/Git/XMCLib/src\xmc_usbd.c ****   {
1447:C:/Files/Projects/Git/XMCLib/src\xmc_usbd.c ****     ep->maxTransferSize = (uint32_t)XMC_USBD_MAX_TRANSFER_SIZE_EP0;
1448:C:/Files/Projects/Git/XMCLib/src\xmc_usbd.c ****   }
1449:C:/Files/Projects/Git/XMCLib/src\xmc_usbd.c ****   /* transfer buffer */
1450:C:/Files/Projects/Git/XMCLib/src\xmc_usbd.c ****   ep->inBuffer = XMC_USBD_EP_IN_BUFFER[ep->address_u.address_st.number];
1451:C:/Files/Projects/Git/XMCLib/src\xmc_usbd.c ****   ep->outBuffer = XMC_USBD_EP_OUT_BUFFER[ep->address_u.address_st.number];
1452:C:/Files/Projects/Git/XMCLib/src\xmc_usbd.c ****   /* buffer size*/
1453:C:/Files/Projects/Git/XMCLib/src\xmc_usbd.c ****   ep->inBufferSize = XMC_USBD_EP_IN_BUFFERSIZE[ep->address_u.address_st.number];
1454:C:/Files/Projects/Git/XMCLib/src\xmc_usbd.c ****   ep->outBufferSize = XMC_USBD_EP_OUT_BUFFERSIZE[ep->address_u.address_st.number];
1455:C:/Files/Projects/Git/XMCLib/src\xmc_usbd.c ****   /* is in */
1456:C:/Files/Projects/Git/XMCLib/src\xmc_usbd.c ****   if ((ep->address_u.address_st.direction == 1U) || (ep_type == XMC_USBD_ENDPOINT_TYPE_CONTROL))
1457:C:/Files/Projects/Git/XMCLib/src\xmc_usbd.c ****   {
1458:C:/Files/Projects/Git/XMCLib/src\xmc_usbd.c ****     depctl_data_t data;
1459:C:/Files/Projects/Git/XMCLib/src\xmc_usbd.c ****     data.d32 = xmc_device.endpoint_in_register[ep->address_u.address_st.number]->diepctl;
1460:C:/Files/Projects/Git/XMCLib/src\xmc_usbd.c **** 		/*enable endpoint */
1461:C:/Files/Projects/Git/XMCLib/src\xmc_usbd.c **** 		data.b.usbactep = 1U;
1462:C:/Files/Projects/Git/XMCLib/src\xmc_usbd.c **** 		/* set ep type */
1463:C:/Files/Projects/Git/XMCLib/src\xmc_usbd.c **** 		data.b.eptype = (uint8_t)ep_type;
1464:C:/Files/Projects/Git/XMCLib/src\xmc_usbd.c **** 		/* set mps */
1465:C:/Files/Projects/Git/XMCLib/src\xmc_usbd.c ****     if (ep_type == XMC_USBD_ENDPOINT_TYPE_CONTROL)
1466:C:/Files/Projects/Git/XMCLib/src\xmc_usbd.c ****     {
1467:C:/Files/Projects/Git/XMCLib/src\xmc_usbd.c **** 			switch(ep_max_packet_size)
1468:C:/Files/Projects/Git/XMCLib/src\xmc_usbd.c **** 			{
1469:C:/Files/Projects/Git/XMCLib/src\xmc_usbd.c **** 				case (64U):
1470:C:/Files/Projects/Git/XMCLib/src\xmc_usbd.c **** 				data.b.mps = 0x0U;
1471:C:/Files/Projects/Git/XMCLib/src\xmc_usbd.c **** 				break;
1472:C:/Files/Projects/Git/XMCLib/src\xmc_usbd.c **** 				case (32U):
1473:C:/Files/Projects/Git/XMCLib/src\xmc_usbd.c **** 				data.b.mps = 0x1U;
1474:C:/Files/Projects/Git/XMCLib/src\xmc_usbd.c **** 				break;
1475:C:/Files/Projects/Git/XMCLib/src\xmc_usbd.c **** 				case (16U):
1476:C:/Files/Projects/Git/XMCLib/src\xmc_usbd.c **** 				data.b.mps = 0x2U;
1477:C:/Files/Projects/Git/XMCLib/src\xmc_usbd.c **** 				break;
1478:C:/Files/Projects/Git/XMCLib/src\xmc_usbd.c **** 				case (8U):
1479:C:/Files/Projects/Git/XMCLib/src\xmc_usbd.c **** 				data.b.mps = 0x3U;
1480:C:/Files/Projects/Git/XMCLib/src\xmc_usbd.c **** 				break;
1481:C:/Files/Projects/Git/XMCLib/src\xmc_usbd.c **** 				default:
1482:C:/Files/Projects/Git/XMCLib/src\xmc_usbd.c **** 				break;
1483:C:/Files/Projects/Git/XMCLib/src\xmc_usbd.c **** 			}
1484:C:/Files/Projects/Git/XMCLib/src\xmc_usbd.c **** 		}
1485:C:/Files/Projects/Git/XMCLib/src\xmc_usbd.c **** 		else
1486:C:/Files/Projects/Git/XMCLib/src\xmc_usbd.c **** 		{
1487:C:/Files/Projects/Git/XMCLib/src\xmc_usbd.c **** 			data.b.mps = ep_max_packet_size;
1488:C:/Files/Projects/Git/XMCLib/src\xmc_usbd.c **** 		}
1489:C:/Files/Projects/Git/XMCLib/src\xmc_usbd.c **** 		/* set first data0 pid */
1490:C:/Files/Projects/Git/XMCLib/src\xmc_usbd.c **** 		data.b.setd0pid = 1U;
1491:C:/Files/Projects/Git/XMCLib/src\xmc_usbd.c **** 		/* clear stall */
1492:C:/Files/Projects/Git/XMCLib/src\xmc_usbd.c **** 		data.b.stall = 0U;
1493:C:/Files/Projects/Git/XMCLib/src\xmc_usbd.c **** 		/* set tx fifo */
1494:C:/Files/Projects/Git/XMCLib/src\xmc_usbd.c **** 		ep->txFifoNum = XMC_USBD_lAssignTXFifo(); /* get tx fifo */
1495:C:/Files/Projects/Git/XMCLib/src\xmc_usbd.c **** 		data.b.txfnum = ep->txFifoNum;
1496:C:/Files/Projects/Git/XMCLib/src\xmc_usbd.c **** 		xmc_device.endpoint_in_register[ep->address_u.address_st.number]->diepctl = data.d32; /* configur
1497:C:/Files/Projects/Git/XMCLib/src\xmc_usbd.c **** 		daintmsk.ep.in |= (uint16_t)((uint16_t)1U << (uint8_t)ep->address_u.address_st.number); /* enable
1498:C:/Files/Projects/Git/XMCLib/src\xmc_usbd.c ****   }
1499:C:/Files/Projects/Git/XMCLib/src\xmc_usbd.c ****   if ((ep->address_u.address_st.direction == 0U) || (ep_type == XMC_USBD_ENDPOINT_TYPE_CONTROL))
1500:C:/Files/Projects/Git/XMCLib/src\xmc_usbd.c ****   {
1501:C:/Files/Projects/Git/XMCLib/src\xmc_usbd.c ****     /* is out */
1502:C:/Files/Projects/Git/XMCLib/src\xmc_usbd.c **** 		depctl_data_t data;
1503:C:/Files/Projects/Git/XMCLib/src\xmc_usbd.c **** 		data.d32 = xmc_device.endpoint_out_register[ep->address_u.address_st.number]->doepctl;
1504:C:/Files/Projects/Git/XMCLib/src\xmc_usbd.c **** 		/*enable endpoint */
1505:C:/Files/Projects/Git/XMCLib/src\xmc_usbd.c **** 		data.b.usbactep = 1U;
1506:C:/Files/Projects/Git/XMCLib/src\xmc_usbd.c **** 		/* set ep type */
1507:C:/Files/Projects/Git/XMCLib/src\xmc_usbd.c **** 		data.b.eptype = (uint8_t)ep_type;
1508:C:/Files/Projects/Git/XMCLib/src\xmc_usbd.c ****     /* set mps */
1509:C:/Files/Projects/Git/XMCLib/src\xmc_usbd.c ****     if (ep_type == XMC_USBD_ENDPOINT_TYPE_CONTROL)
1510:C:/Files/Projects/Git/XMCLib/src\xmc_usbd.c **** 		{
1511:C:/Files/Projects/Git/XMCLib/src\xmc_usbd.c **** 			switch(ep_max_packet_size)
1512:C:/Files/Projects/Git/XMCLib/src\xmc_usbd.c **** 			{
1513:C:/Files/Projects/Git/XMCLib/src\xmc_usbd.c **** 				case (64U):
1514:C:/Files/Projects/Git/XMCLib/src\xmc_usbd.c **** 					data.b.mps = 0x0U;
1515:C:/Files/Projects/Git/XMCLib/src\xmc_usbd.c **** 					break;
1516:C:/Files/Projects/Git/XMCLib/src\xmc_usbd.c **** 				case (32U):
1517:C:/Files/Projects/Git/XMCLib/src\xmc_usbd.c **** 					data.b.mps = 0x1U;
1518:C:/Files/Projects/Git/XMCLib/src\xmc_usbd.c **** 					break;
1519:C:/Files/Projects/Git/XMCLib/src\xmc_usbd.c **** 				case (16U):
1520:C:/Files/Projects/Git/XMCLib/src\xmc_usbd.c **** 					data.b.mps = 0x2U;
1521:C:/Files/Projects/Git/XMCLib/src\xmc_usbd.c **** 					break;
1522:C:/Files/Projects/Git/XMCLib/src\xmc_usbd.c **** 				case (8U):
1523:C:/Files/Projects/Git/XMCLib/src\xmc_usbd.c **** 					data.b.mps = 0x3U;
1524:C:/Files/Projects/Git/XMCLib/src\xmc_usbd.c **** 					break;
1525:C:/Files/Projects/Git/XMCLib/src\xmc_usbd.c **** 				default:
1526:C:/Files/Projects/Git/XMCLib/src\xmc_usbd.c **** 					break;
1527:C:/Files/Projects/Git/XMCLib/src\xmc_usbd.c **** 			}
1528:C:/Files/Projects/Git/XMCLib/src\xmc_usbd.c **** 		}
1529:C:/Files/Projects/Git/XMCLib/src\xmc_usbd.c **** 		else
1530:C:/Files/Projects/Git/XMCLib/src\xmc_usbd.c **** 		{
1531:C:/Files/Projects/Git/XMCLib/src\xmc_usbd.c **** 			data.b.mps = ep_max_packet_size;
1532:C:/Files/Projects/Git/XMCLib/src\xmc_usbd.c **** 		}
1533:C:/Files/Projects/Git/XMCLib/src\xmc_usbd.c **** 		/* set first data0 pid */
1534:C:/Files/Projects/Git/XMCLib/src\xmc_usbd.c **** 		data.b.setd0pid = 1U;
1535:C:/Files/Projects/Git/XMCLib/src\xmc_usbd.c **** 		/* clear stall */
1536:C:/Files/Projects/Git/XMCLib/src\xmc_usbd.c **** 		data.b.stall =(uint8_t) 0U;
1537:C:/Files/Projects/Git/XMCLib/src\xmc_usbd.c **** 		xmc_device.endpoint_out_register[ep->address_u.address_st.number]->doepctl = data.d32; /* configu
1538:C:/Files/Projects/Git/XMCLib/src\xmc_usbd.c **** 		daintmsk.ep.out |=(uint16_t) ((uint16_t)1U << (uint8_t)ep->address_u.address_st.number); /* enabl
1539:C:/Files/Projects/Git/XMCLib/src\xmc_usbd.c ****   }
1540:C:/Files/Projects/Git/XMCLib/src\xmc_usbd.c ****   xmc_device.device_register->daintmsk = daintmsk.d32;
1541:C:/Files/Projects/Git/XMCLib/src\xmc_usbd.c ****   return XMC_USBD_STATUS_OK;
1542:C:/Files/Projects/Git/XMCLib/src\xmc_usbd.c **** }
1543:C:/Files/Projects/Git/XMCLib/src\xmc_usbd.c **** 
1544:C:/Files/Projects/Git/XMCLib/src\xmc_usbd.c **** /**
1545:C:/Files/Projects/Git/XMCLib/src\xmc_usbd.c ****  * Unconfigure the selected endpoint.
1546:C:/Files/Projects/Git/XMCLib/src\xmc_usbd.c ****  **/
1547:C:/Files/Projects/Git/XMCLib/src\xmc_usbd.c **** XMC_USBD_STATUS_t XMC_USBD_EndpointUnconfigure(const uint8_t ep_addr) 
1548:C:/Files/Projects/Git/XMCLib/src\xmc_usbd.c **** {
 992              	 .loc 1 1548 0
 993              	 .cfi_startproc
 994              	 
 995              	 
 996              	.LVL94:
 997 0000 F0B5     	 push {r4,r5,r6,r7,lr}
 998              	.LCFI13:
 999              	 .cfi_def_cfa_offset 20
 1000              	 .cfi_offset 4,-20
 1001              	 .cfi_offset 5,-16
 1002              	 .cfi_offset 6,-12
 1003              	 .cfi_offset 7,-8
 1004              	 .cfi_offset 14,-4
1549:C:/Files/Projects/Git/XMCLib/src\xmc_usbd.c ****   XMC_USBD_EP_t *ep = &xmc_device.ep[ep_addr & (uint8_t)XMC_USBD_ENDPOINT_NUMBER_MASK];
 1005              	 .loc 1 1549 0
 1006 0002 00F00F00 	 and r0,r0,#15
 1007              	.LVL95:
1550:C:/Files/Projects/Git/XMCLib/src\xmc_usbd.c ****   depctl_data_t data;
1551:C:/Files/Projects/Git/XMCLib/src\xmc_usbd.c **** 	daint_data_t daintmsk;
1552:C:/Files/Projects/Git/XMCLib/src\xmc_usbd.c **** 	XMC_USBD_STATUS_t result;
1553:C:/Files/Projects/Git/XMCLib/src\xmc_usbd.c **** 	uint32_t number_temp;
1554:C:/Files/Projects/Git/XMCLib/src\xmc_usbd.c ****   data.d32 = 0U;  
 1008              	 .loc 1 1554 0
 1009 0006 0025     	 movs r5,#0
 1010              	.LVL96:
1555:C:/Files/Projects/Git/XMCLib/src\xmc_usbd.c ****   daintmsk.d32 = xmc_device.device_register->daintmsk;  
 1011              	 .loc 1 1555 0
 1012 0008 414A     	 ldr r2,.L94
 1013 000a D2F8A431 	 ldr r3,[r2,#420]
 1014 000e DE69     	 ldr r6,[r3,#28]
 1015              	.LVL97:
1556:C:/Files/Projects/Git/XMCLib/src\xmc_usbd.c ****   number_temp = (uint32_t)((uint32_t)1U << (uint8_t)ep->address_u.address_st.number);
 1016              	 .loc 1 1556 0
 1017 0010 3423     	 movs r3,#52
 1018 0012 03FB00F3 	 mul r3,r3,r0
 1019 0016 D118     	 adds r1,r2,r3
 1020 0018 D35C     	 ldrb r3,[r2,r3]
 1021 001a 03F00F03 	 and r3,r3,#15
 1022              	.LVL98:
1557:C:/Files/Projects/Git/XMCLib/src\xmc_usbd.c ****   /* if not configured return an error */
1558:C:/Files/Projects/Git/XMCLib/src\xmc_usbd.c ****   if (!ep->isConfigured)
 1023              	 .loc 1 1558 0
 1024 001e 0A79     	 ldrb r2,[r1,#4]
 1025 0020 12F0040F 	 tst r2,#4
 1026 0024 71D0     	 beq .L92
1556:C:/Files/Projects/Git/XMCLib/src\xmc_usbd.c ****   number_temp = (uint32_t)((uint32_t)1U << (uint8_t)ep->address_u.address_st.number);
 1027              	 .loc 1 1556 0
 1028 0026 0127     	 movs r7,#1
 1029 0028 9F40     	 lsls r7,r7,r3
1559:C:/Files/Projects/Git/XMCLib/src\xmc_usbd.c ****   {
1560:C:/Files/Projects/Git/XMCLib/src\xmc_usbd.c ****      result = XMC_USBD_STATUS_ERROR;
1561:C:/Files/Projects/Git/XMCLib/src\xmc_usbd.c ****   }
1562:C:/Files/Projects/Git/XMCLib/src\xmc_usbd.c ****   else
1563:C:/Files/Projects/Git/XMCLib/src\xmc_usbd.c ****   {
1564:C:/Files/Projects/Git/XMCLib/src\xmc_usbd.c ****     /* disable the endpoint, deactivate it and only send naks */
1565:C:/Files/Projects/Git/XMCLib/src\xmc_usbd.c ****     data.b.usbactep = 0U;
 1030              	 .loc 1 1565 0
 1031 002a 6FF3CF35 	 bfc r5,#15,#1
 1032              	.LVL99:
1566:C:/Files/Projects/Git/XMCLib/src\xmc_usbd.c ****     data.b.epdis =  1U;
1567:C:/Files/Projects/Git/XMCLib/src\xmc_usbd.c ****     data.b.snak =  1U;
 1033              	 .loc 1 1567 0
 1034 002e 45F09045 	 orr r5,r5,#1207959552
 1035              	.LVL100:
1568:C:/Files/Projects/Git/XMCLib/src\xmc_usbd.c ****     data.b.stall =  0U;
 1036              	 .loc 1 1568 0
 1037 0032 6FF35555 	 bfc r5,#21,#1
 1038              	.LVL101:
1569:C:/Files/Projects/Git/XMCLib/src\xmc_usbd.c ****     ep->isConfigured =  0U;
 1039              	 .loc 1 1569 0
 1040 0036 DFF8D8E0 	 ldr lr,.L94
 1041 003a 3421     	 movs r1,#52
 1042              	.LVL102:
 1043 003c 01FB00F1 	 mul r1,r1,r0
 1044              	.LVL103:
 1045 0040 0EEB0102 	 add r2,lr,r1
 1046              	.LVL104:
 1047 0044 1479     	 ldrb r4,[r2,#4]
1570:C:/Files/Projects/Git/XMCLib/src\xmc_usbd.c ****     ep->isStalled =  0U;
 1048              	 .loc 1 1570 0
 1049 0046 04F0FB04 	 and r4,r4,#251
 1050 004a 6FF34514 	 bfc r4,#5,#1
 1051 004e 1471     	 strb r4,[r2,#4]
1571:C:/Files/Projects/Git/XMCLib/src\xmc_usbd.c ****     ep->outInUse =  0U;
 1052              	 .loc 1 1571 0
 1053 0050 5468     	 ldr r4,[r2,#4]
 1054 0052 24F01004 	 bic r4,r4,#16
 1055 0056 5460     	 str r4,[r2,#4]
1572:C:/Files/Projects/Git/XMCLib/src\xmc_usbd.c ****     ep->inInUse =  0U;
 1056              	 .loc 1 1572 0
 1057 0058 5468     	 ldr r4,[r2,#4]
 1058 005a 24F00804 	 bic r4,r4,#8
 1059 005e 5460     	 str r4,[r2,#4]
1573:C:/Files/Projects/Git/XMCLib/src\xmc_usbd.c ****     /* chose register based on the direction. Control Endpoint need both */
1574:C:/Files/Projects/Git/XMCLib/src\xmc_usbd.c ****     if ((ep->address_u.address_st.direction == 1U) || (ep->type == (uint8_t)XMC_USBD_ENDPOINT_TYPE_
 1060              	 .loc 1 1574 0
 1061 0060 1EF80120 	 ldrb r2,[lr,r1]
 1062              	.LVL105:
 1063 0064 12F0800F 	 tst r2,#128
 1064 0068 06D1     	 bne .L89
 1065              	 .loc 1 1574 0 is_stmt 0 discriminator 1
 1066 006a 3422     	 movs r2,#52
 1067 006c 02FB00E2 	 mla r2,r2,r0,lr
 1068              	.LVL106:
 1069 0070 1279     	 ldrb r2,[r2,#4]
 1070              	.LVL107:
 1071 0072 12F0030F 	 tst r2,#3
 1072 0076 16D1     	 bne .L90
 1073              	.L89:
1575:C:/Files/Projects/Git/XMCLib/src\xmc_usbd.c ****     {
1576:C:/Files/Projects/Git/XMCLib/src\xmc_usbd.c ****       /* disable endpoint configuration */
1577:C:/Files/Projects/Git/XMCLib/src\xmc_usbd.c ****       xmc_device.endpoint_in_register[ep->address_u.address_st.number]->diepctl = data.d32;
 1074              	 .loc 1 1577 0 is_stmt 1
 1075 0078 254A     	 ldr r2,.L94
 1076 007a 6A33     	 adds r3,r3,#106
 1077 007c 52F82330 	 ldr r3,[r2,r3,lsl#2]
 1078 0080 1D60     	 str r5,[r3]
 1079              	.LVL108:
1578:C:/Files/Projects/Git/XMCLib/src\xmc_usbd.c ****       /* disable interrupts */
1579:C:/Files/Projects/Git/XMCLib/src\xmc_usbd.c ****       daintmsk.ep.in = (uint16_t)((uint32_t)daintmsk.ep.in & (~(uint32_t)number_temp));
 1080              	 .loc 1 1579 0
 1081 0082 26EA0703 	 bic r3,r6,r7
 1082 0086 63F30F06 	 bfi r6,r3,#0,#16
1580:C:/Files/Projects/Git/XMCLib/src\xmc_usbd.c ****     }
1581:C:/Files/Projects/Git/XMCLib/src\xmc_usbd.c ****     if ((ep->address_u.address_st.direction == 0U) || (ep->type == (uint8_t)XMC_USBD_ENDPOINT_TYPE_
 1083              	 .loc 1 1581 0
 1084 008a 3423     	 movs r3,#52
 1085 008c 03FB00F3 	 mul r3,r3,r0
 1086 0090 D35C     	 ldrb r3,[r2,r3]
 1087 0092 13F0800F 	 tst r3,#128
 1088 0096 06D0     	 beq .L90
 1089              	 .loc 1 1581 0 is_stmt 0 discriminator 1
 1090 0098 3423     	 movs r3,#52
 1091 009a 03FB0023 	 mla r3,r3,r0,r2
 1092 009e 1B79     	 ldrb r3,[r3,#4]
 1093 00a0 13F0030F 	 tst r3,#3
 1094 00a4 1DD1     	 bne .L91
 1095              	.L90:
1582:C:/Files/Projects/Git/XMCLib/src\xmc_usbd.c ****     {
1583:C:/Files/Projects/Git/XMCLib/src\xmc_usbd.c ****       xmc_device.endpoint_out_register[ep->address_u.address_st.number]->doepctl = data.d32;
 1096              	 .loc 1 1583 0 is_stmt 1
 1097 00a6 1A4B     	 ldr r3,.L94
 1098 00a8 3422     	 movs r2,#52
 1099 00aa 02FB00F2 	 mul r2,r2,r0
 1100 00ae 9A5C     	 ldrb r2,[r3,r2]
 1101 00b0 02F00F02 	 and r2,r2,#15
 1102 00b4 03EB8203 	 add r3,r3,r2,lsl#2
 1103 00b8 D3F8C431 	 ldr r3,[r3,#452]
 1104 00bc 1D60     	 str r5,[r3]
1584:C:/Files/Projects/Git/XMCLib/src\xmc_usbd.c ****       daintmsk.ep.out = (uint16_t)((uint32_t)daintmsk.ep.out & (~(uint32_t)number_temp));
 1105              	 .loc 1 1584 0
 1106 00be C6F30F43 	 ubfx r3,r6,#16,#16
 1107 00c2 23EA0703 	 bic r3,r3,r7
 1108 00c6 63F31F46 	 bfi r6,r3,#16,#16
1585:C:/Files/Projects/Git/XMCLib/src\xmc_usbd.c ****       if(usbd_init->usbd_transfer_mode == XMC_USBD_USE_FIFO)
 1109              	 .loc 1 1585 0
 1110 00ca 124B     	 ldr r3,.L94+4
 1111 00cc 1B68     	 ldr r3,[r3]
 1112 00ce 5B7B     	 ldrb r3,[r3,#13]
 1113 00d0 012B     	 cmp r3,#1
 1114 00d2 06D1     	 bne .L91
1586:C:/Files/Projects/Git/XMCLib/src\xmc_usbd.c ****       {
1587:C:/Files/Projects/Git/XMCLib/src\xmc_usbd.c ****         xmc_device.device_register->dtknqr4_fifoemptymsk &= ~number_temp;
 1115              	 .loc 1 1587 0
 1116 00d4 0E4B     	 ldr r3,.L94
 1117 00d6 D3F8A421 	 ldr r2,[r3,#420]
 1118 00da 536B     	 ldr r3,[r2,#52]
 1119 00dc 23EA0707 	 bic r7,r3,r7
 1120 00e0 5763     	 str r7,[r2,#52]
 1121              	.L91:
1588:C:/Files/Projects/Git/XMCLib/src\xmc_usbd.c ****       }
1589:C:/Files/Projects/Git/XMCLib/src\xmc_usbd.c ****     }
1590:C:/Files/Projects/Git/XMCLib/src\xmc_usbd.c ****     xmc_device.device_register->daintmsk = daintmsk.d32;
 1122              	 .loc 1 1590 0
 1123 00e2 0B4B     	 ldr r3,.L94
 1124 00e4 D3F8A421 	 ldr r2,[r3,#420]
 1125 00e8 D661     	 str r6,[r2,#28]
 1126              	.LVL109:
1591:C:/Files/Projects/Git/XMCLib/src\xmc_usbd.c ****     XMC_USBD_lUnassignFifo(ep->txFifoNum); /* free fifo */
 1127              	 .loc 1 1591 0
 1128 00ea 3422     	 movs r2,#52
 1129 00ec 02FB0030 	 mla r0,r2,r0,r3
 1130              	.LVL110:
 1131 00f0 8188     	 ldrh r1,[r0,#4]
 1132              	.LBB5:
 1133              	.LBB6:
 384:C:/Files/Projects/Git/XMCLib/src\xmc_usbd.c **** }
 1134              	 .loc 1 384 0
 1135 00f2 C1F38311 	 ubfx r1,r1,#6,#4
 1136 00f6 0122     	 movs r2,#1
 1137 00f8 8A40     	 lsls r2,r2,r1
 1138 00fa B3F8FC11 	 ldrh r1,[r3,#508]
 1139 00fe 21EA0202 	 bic r2,r1,r2
 1140 0102 A3F8FC21 	 strh r2,[r3,#508]
 1141              	.LBE6:
 1142              	.LBE5:
1592:C:/Files/Projects/Git/XMCLib/src\xmc_usbd.c ****     result = XMC_USBD_STATUS_OK;
 1143              	 .loc 1 1592 0
 1144 0106 0020     	 movs r0,#0
 1145 0108 F0BD     	 pop {r4,r5,r6,r7,pc}
 1146              	.LVL111:
 1147              	.L92:
1560:C:/Files/Projects/Git/XMCLib/src\xmc_usbd.c ****   }
 1148              	 .loc 1 1560 0
 1149 010a 0120     	 movs r0,#1
 1150              	.LVL112:
1593:C:/Files/Projects/Git/XMCLib/src\xmc_usbd.c ****   }
1594:C:/Files/Projects/Git/XMCLib/src\xmc_usbd.c ****   return result;
1595:C:/Files/Projects/Git/XMCLib/src\xmc_usbd.c **** }
 1151              	 .loc 1 1595 0
 1152 010c F0BD     	 pop {r4,r5,r6,r7,pc}
 1153              	.LVL113:
 1154              	.L95:
 1155 010e 00BF     	 .align 2
 1156              	.L94:
 1157 0110 00000000 	 .word .LANCHOR0
 1158 0114 00000000 	 .word .LANCHOR1
 1159              	 .cfi_endproc
 1160              	.LFE212:
 1162              	 .section .text.XMC_USBD_GetFrameNumber,"ax",%progbits
 1163              	 .align 2
 1164              	 .global XMC_USBD_GetFrameNumber
 1165              	 .thumb
 1166              	 .thumb_func
 1168              	XMC_USBD_GetFrameNumber:
 1169              	.LFB213:
1596:C:/Files/Projects/Git/XMCLib/src\xmc_usbd.c **** 
1597:C:/Files/Projects/Git/XMCLib/src\xmc_usbd.c **** /**
1598:C:/Files/Projects/Git/XMCLib/src\xmc_usbd.c ****  * Gets the current USB frame number
1599:C:/Files/Projects/Git/XMCLib/src\xmc_usbd.c ****  **/
1600:C:/Files/Projects/Git/XMCLib/src\xmc_usbd.c **** uint16_t XMC_USBD_GetFrameNumber(void) 
1601:C:/Files/Projects/Git/XMCLib/src\xmc_usbd.c **** {
 1170              	 .loc 1 1601 0
 1171              	 .cfi_startproc
 1172              	 
 1173              	 
 1174              	 
1602:C:/Files/Projects/Git/XMCLib/src\xmc_usbd.c ****   uint16_t result;
1603:C:/Files/Projects/Git/XMCLib/src\xmc_usbd.c ****   dsts_data_t dsts;
1604:C:/Files/Projects/Git/XMCLib/src\xmc_usbd.c ****   dsts.d32 = xmc_device.device_register->dsts;
 1175              	 .loc 1 1604 0
 1176 0000 034B     	 ldr r3,.L97
 1177 0002 D3F8A431 	 ldr r3,[r3,#420]
 1178 0006 9868     	 ldr r0,[r3,#8]
 1179              	.LVL114:
1605:C:/Files/Projects/Git/XMCLib/src\xmc_usbd.c ****   result = (uint16_t)dsts.b.soffn;
1606:C:/Files/Projects/Git/XMCLib/src\xmc_usbd.c ****   return result;
1607:C:/Files/Projects/Git/XMCLib/src\xmc_usbd.c **** }
 1180              	 .loc 1 1607 0
 1181 0008 C0F30D20 	 ubfx r0,r0,#8,#14
 1182              	.LVL115:
 1183 000c 7047     	 bx lr
 1184              	.L98:
 1185 000e 00BF     	 .align 2
 1186              	.L97:
 1187 0010 00000000 	 .word .LANCHOR0
 1188              	 .cfi_endproc
 1189              	.LFE213:
 1191              	 .section .text.XMC_USBD_IsEnumDone,"ax",%progbits
 1192              	 .align 2
 1193              	 .global XMC_USBD_IsEnumDone
 1194              	 .thumb
 1195              	 .thumb_func
 1197              	XMC_USBD_IsEnumDone:
 1198              	.LFB214:
1608:C:/Files/Projects/Git/XMCLib/src\xmc_usbd.c **** 
1609:C:/Files/Projects/Git/XMCLib/src\xmc_usbd.c **** /**
1610:C:/Files/Projects/Git/XMCLib/src\xmc_usbd.c ****  * Gets the USB speed enumeration completion status.
1611:C:/Files/Projects/Git/XMCLib/src\xmc_usbd.c ****  * This should not be used for the actual USB enumeration completion status. For the actual USB enu
1612:C:/Files/Projects/Git/XMCLib/src\xmc_usbd.c ****  * the application layer should check for the completion of USB standard request Set configuration.
1613:C:/Files/Projects/Git/XMCLib/src\xmc_usbd.c ****  **/
1614:C:/Files/Projects/Git/XMCLib/src\xmc_usbd.c **** uint32_t XMC_USBD_IsEnumDone(void)
1615:C:/Files/Projects/Git/XMCLib/src\xmc_usbd.c **** {
 1199              	 .loc 1 1615 0
 1200              	 .cfi_startproc
 1201              	 
 1202              	 
 1203              	 
1616:C:/Files/Projects/Git/XMCLib/src\xmc_usbd.c ****   return (uint32_t)((uint8_t)xmc_device.IsConnected && (uint8_t)xmc_device.IsPowered);
 1204              	 .loc 1 1616 0
 1205 0000 044B     	 ldr r3,.L100
 1206 0002 93F8FE01 	 ldrb r0,[r3,#510]
 1207 0006 00F00500 	 and r0,r0,#5
1617:C:/Files/Projects/Git/XMCLib/src\xmc_usbd.c **** }
 1208              	 .loc 1 1617 0
 1209 000a 0528     	 cmp r0,#5
 1210 000c 14BF     	 ite ne
 1211 000e 0020     	 movne r0,#0
 1212 0010 0120     	 moveq r0,#1
 1213 0012 7047     	 bx lr
 1214              	.L101:
 1215              	 .align 2
 1216              	.L100:
 1217 0014 00000000 	 .word .LANCHOR0
 1218              	 .cfi_endproc
 1219              	.LFE214:
 1221              	 .section .text.XMC_USBD_Uninitialize,"ax",%progbits
 1222              	 .align 2
 1223              	 .global XMC_USBD_Uninitialize
 1224              	 .thumb
 1225              	 .thumb_func
 1227              	XMC_USBD_Uninitialize:
 1228              	.LFB201:
1201:C:/Files/Projects/Git/XMCLib/src\xmc_usbd.c ****   /* Disconnect the device */
 1229              	 .loc 1 1201 0
 1230              	 .cfi_startproc
 1231              	 
 1232              	 
 1233 0000 08B5     	 push {r3,lr}
 1234              	.LCFI14:
 1235              	 .cfi_def_cfa_offset 8
 1236              	 .cfi_offset 3,-8
 1237              	 .cfi_offset 14,-4
1204:C:/Files/Projects/Git/XMCLib/src\xmc_usbd.c ****   dctl.b.sftdiscon = 1U;
 1238              	 .loc 1 1204 0
 1239 0002 0748     	 ldr r0,.L104
 1240 0004 D0F8A421 	 ldr r2,[r0,#420]
 1241 0008 5368     	 ldr r3,[r2,#4]
1205:C:/Files/Projects/Git/XMCLib/src\xmc_usbd.c ****   xmc_device.device_register->dctl = dctl.d32;
 1242              	 .loc 1 1205 0
 1243 000a 43F00203 	 orr r3,r3,#2
 1244              	.LVL116:
1206:C:/Files/Projects/Git/XMCLib/src\xmc_usbd.c ****   /* clean up */
 1245              	 .loc 1 1206 0
 1246 000e 5360     	 str r3,[r2,#4]
1208:C:/Files/Projects/Git/XMCLib/src\xmc_usbd.c ****   return XMC_USBD_STATUS_OK;
 1247              	 .loc 1 1208 0
 1248 0010 0021     	 movs r1,#0
 1249 0012 4FF40272 	 mov r2,#520
 1250 0016 FFF7FEFF 	 bl memset
 1251              	.LVL117:
1210:C:/Files/Projects/Git/XMCLib/src\xmc_usbd.c **** 
 1252              	 .loc 1 1210 0
 1253 001a 0020     	 movs r0,#0
 1254 001c 08BD     	 pop {r3,pc}
 1255              	.L105:
 1256 001e 00BF     	 .align 2
 1257              	.L104:
 1258 0020 00000000 	 .word .LANCHOR0
 1259              	 .cfi_endproc
 1260              	.LFE201:
 1262              	 .section .text.XMC_USBD_EndpointConfigure,"ax",%progbits
 1263              	 .align 2
 1264              	 .global XMC_USBD_EndpointConfigure
 1265              	 .thumb
 1266              	 .thumb_func
 1268              	XMC_USBD_EndpointConfigure:
 1269              	.LFB211:
1431:C:/Files/Projects/Git/XMCLib/src\xmc_usbd.c ****   daint_data_t daintmsk;
 1270              	 .loc 1 1431 0
 1271              	 .cfi_startproc
 1272              	 
 1273              	 
 1274              	.LVL118:
 1275 0000 2DE9F041 	 push {r4,r5,r6,r7,r8,lr}
 1276              	.LCFI15:
 1277              	 .cfi_def_cfa_offset 24
 1278              	 .cfi_offset 4,-24
 1279              	 .cfi_offset 5,-20
 1280              	 .cfi_offset 6,-16
 1281              	 .cfi_offset 7,-12
 1282              	 .cfi_offset 8,-8
 1283              	 .cfi_offset 14,-4
1434:C:/Files/Projects/Git/XMCLib/src\xmc_usbd.c ****   ep =&xmc_device.ep[ep_addr & (uint32_t)XMC_USBD_ENDPOINT_NUMBER_MASK];
 1284              	 .loc 1 1434 0
 1285 0004 DFF894C2 	 ldr ip,.L143
 1286 0008 DCF8A431 	 ldr r3,[ip,#420]
 1287 000c DF69     	 ldr r7,[r3,#28]
 1288              	.LVL119:
1435:C:/Files/Projects/Git/XMCLib/src\xmc_usbd.c ****   memset((void*)ep,0x0U,sizeof(XMC_USBD_EP_t)); /* clear endpoint structure */
 1289              	 .loc 1 1435 0
 1290 000e 00F00F06 	 and r6,r0,#15
 1291              	.LVL120:
1436:C:/Files/Projects/Git/XMCLib/src\xmc_usbd.c ****   /* do ep configuration */
 1292              	 .loc 1 1436 0
 1293 0012 4FF0340E 	 mov lr,#52
 1294 0016 0EFB06FE 	 mul lr,lr,r6
 1295 001a 0CEB0E05 	 add r5,ip,lr
 1296 001e 0024     	 movs r4,#0
 1297 0020 4CF80E40 	 str r4,[ip,lr]
 1298 0024 6C60     	 str r4,[r5,#4]
 1299 0026 05F10803 	 add r3,r5,#8
 1300 002a 43F8044B 	 str r4,[r3],#4
 1301 002e 43F8044B 	 str r4,[r3],#4
 1302 0032 43F8044B 	 str r4,[r3],#4
 1303 0036 43F8044B 	 str r4,[r3],#4
 1304 003a 43F8044B 	 str r4,[r3],#4
 1305 003e 43F8044B 	 str r4,[r3],#4
 1306 0042 43F8044B 	 str r4,[r3],#4
 1307 0046 43F8044B 	 str r4,[r3],#4
 1308 004a 43F8044B 	 str r4,[r3],#4
 1309 004e 43F8044B 	 str r4,[r3],#4
 1310 0052 1C60     	 str r4,[r3]
1438:C:/Files/Projects/Git/XMCLib/src\xmc_usbd.c ****   ep->isConfigured = 1U;
 1311              	 .loc 1 1438 0
 1312 0054 0CF80E00 	 strb r0,[ip,lr]
1439:C:/Files/Projects/Git/XMCLib/src\xmc_usbd.c ****   ep->maxPacketSize = (uint8_t)ep_max_packet_size;
 1313              	 .loc 1 1439 0
 1314 0058 2B79     	 ldrb r3,[r5,#4]
 1315 005a 43F00403 	 orr r3,r3,#4
 1316 005e 2B71     	 strb r3,[r5,#4]
1440:C:/Files/Projects/Git/XMCLib/src\xmc_usbd.c ****   if (ep->address_u.address != 0U)
 1317              	 .loc 1 1440 0
 1318 0060 6B68     	 ldr r3,[r5,#4]
 1319 0062 62F3D123 	 bfi r3,r2,#11,#7
 1320 0066 6B60     	 str r3,[r5,#4]
1441:C:/Files/Projects/Git/XMCLib/src\xmc_usbd.c ****   {
 1321              	 .loc 1 1441 0
 1322 0068 30B1     	 cbz r0,.L107
1443:C:/Files/Projects/Git/XMCLib/src\xmc_usbd.c ****   }
 1323              	 .loc 1 1443 0
 1324 006a A868     	 ldr r0,[r5,#8]
 1325              	.LVL121:
 1326 006c 4FF6C074 	 movw r4,#65472
 1327 0070 64F31200 	 bfi r0,r4,#0,#19
 1328 0074 A860     	 str r0,[r5,#8]
 1329 0076 08E0     	 b .L108
 1330              	.LVL122:
 1331              	.L107:
1447:C:/Files/Projects/Git/XMCLib/src\xmc_usbd.c ****   }
 1332              	 .loc 1 1447 0
 1333 0078 3423     	 movs r3,#52
 1334 007a 8848     	 ldr r0,.L143
 1335              	.LVL123:
 1336 007c 03FB0603 	 mla r3,r3,r6,r0
 1337 0080 9868     	 ldr r0,[r3,#8]
 1338 0082 4024     	 movs r4,#64
 1339 0084 64F31200 	 bfi r0,r4,#0,#19
 1340 0088 9860     	 str r0,[r3,#8]
 1341              	.LVL124:
 1342              	.L108:
1450:C:/Files/Projects/Git/XMCLib/src\xmc_usbd.c ****   ep->outBuffer = XMC_USBD_EP_OUT_BUFFER[ep->address_u.address_st.number];
 1343              	 .loc 1 1450 0
 1344 008a DFF810C2 	 ldr ip,.L143
 1345 008e 3423     	 movs r3,#52
 1346 0090 03FB06F3 	 mul r3,r3,r6
 1347 0094 0CEB0300 	 add r0,ip,r3
 1348 0098 1CF80340 	 ldrb r4,[ip,r3]
 1349 009c 04F00F04 	 and r4,r4,#15
 1350 00a0 DFF804E2 	 ldr lr,.L143+12
 1351 00a4 2502     	 lsls r5,r4,#8
 1352 00a6 0EEB0508 	 add r8,lr,r5
 1353 00aa C0F81C80 	 str r8,[r0,#28]
1451:C:/Files/Projects/Git/XMCLib/src\xmc_usbd.c ****   /* buffer size*/
 1354              	 .loc 1 1451 0
 1355 00ae 0EF5E06E 	 add lr,lr,#1792
 1356 00b2 7544     	 add r5,r5,lr
 1357 00b4 C560     	 str r5,[r0,#12]
1453:C:/Files/Projects/Git/XMCLib/src\xmc_usbd.c ****   ep->outBufferSize = XMC_USBD_EP_OUT_BUFFERSIZE[ep->address_u.address_st.number];
 1358              	 .loc 1 1453 0
 1359 00b6 7A4D     	 ldr r5,.L143+4
 1360 00b8 55F82450 	 ldr r5,[r5,r4,lsl#2]
 1361 00bc 0562     	 str r5,[r0,#32]
1454:C:/Files/Projects/Git/XMCLib/src\xmc_usbd.c ****   /* is in */
 1362              	 .loc 1 1454 0
 1363 00be 794D     	 ldr r5,.L143+8
 1364 00c0 55F82450 	 ldr r5,[r5,r4,lsl#2]
 1365 00c4 4561     	 str r5,[r0,#20]
1456:C:/Files/Projects/Git/XMCLib/src\xmc_usbd.c ****   {
 1366              	 .loc 1 1456 0
 1367 00c6 1CF80330 	 ldrb r3,[ip,r3]
 1368 00ca 13F0800F 	 tst r3,#128
 1369 00ce 03D1     	 bne .L109
1456:C:/Files/Projects/Git/XMCLib/src\xmc_usbd.c ****   {
 1370              	 .loc 1 1456 0 is_stmt 0 discriminator 1
 1371 00d0 0029     	 cmp r1,#0
 1372 00d2 00F0AF80 	 beq .L110
 1373 00d6 C9E0     	 b .L140
 1374              	.L109:
 1375              	.LBB11:
1459:C:/Files/Projects/Git/XMCLib/src\xmc_usbd.c **** 		/*enable endpoint */
 1376              	 .loc 1 1459 0 is_stmt 1
 1377 00d8 04F16A03 	 add r3,r4,#106
 1378 00dc 6F48     	 ldr r0,.L143
 1379 00de 50F82330 	 ldr r3,[r0,r3,lsl#2]
 1380 00e2 1D68     	 ldr r5,[r3]
 1381              	.LVL125:
1461:C:/Files/Projects/Git/XMCLib/src\xmc_usbd.c **** 		/* set ep type */
 1382              	 .loc 1 1461 0
 1383 00e4 45F40045 	 orr r5,r5,#32768
 1384              	.LVL126:
1463:C:/Files/Projects/Git/XMCLib/src\xmc_usbd.c **** 		/* set mps */
 1385              	 .loc 1 1463 0
 1386 00e8 61F39345 	 bfi r5,r1,#18,#2
 1387              	.LVL127:
1465:C:/Files/Projects/Git/XMCLib/src\xmc_usbd.c ****     {
 1388              	 .loc 1 1465 0
 1389 00ec C1B9     	 cbnz r1,.L112
 1390              	.L134:
1467:C:/Files/Projects/Git/XMCLib/src\xmc_usbd.c **** 			{
 1391              	 .loc 1 1467 0
 1392 00ee 102A     	 cmp r2,#16
 1393 00f0 0ED0     	 beq .L114
 1394 00f2 02D8     	 bhi .L115
 1395 00f4 082A     	 cmp r2,#8
 1396 00f6 0FD0     	 beq .L116
 1397 00f8 14E0     	 b .L113
 1398              	.L115:
 1399 00fa 202A     	 cmp r2,#32
 1400 00fc 04D0     	 beq .L117
 1401 00fe 402A     	 cmp r2,#64
 1402 0100 10D1     	 bne .L113
1470:C:/Files/Projects/Git/XMCLib/src\xmc_usbd.c **** 				break;
 1403              	 .loc 1 1470 0
 1404 0102 6FF30A05 	 bfc r5,#0,#11
1471:C:/Files/Projects/Git/XMCLib/src\xmc_usbd.c **** 				case (32U):
 1405              	 .loc 1 1471 0
 1406 0106 0DE0     	 b .L113
 1407              	.L117:
1473:C:/Files/Projects/Git/XMCLib/src\xmc_usbd.c **** 				break;
 1408              	 .loc 1 1473 0
 1409 0108 0123     	 movs r3,#1
 1410 010a 63F30A05 	 bfi r5,r3,#0,#11
1474:C:/Files/Projects/Git/XMCLib/src\xmc_usbd.c **** 				case (16U):
 1411              	 .loc 1 1474 0
 1412 010e 09E0     	 b .L113
 1413              	.L114:
1476:C:/Files/Projects/Git/XMCLib/src\xmc_usbd.c **** 				break;
 1414              	 .loc 1 1476 0
 1415 0110 0223     	 movs r3,#2
 1416 0112 63F30A05 	 bfi r5,r3,#0,#11
1477:C:/Files/Projects/Git/XMCLib/src\xmc_usbd.c **** 				case (8U):
 1417              	 .loc 1 1477 0
 1418 0116 05E0     	 b .L113
 1419              	.L116:
1479:C:/Files/Projects/Git/XMCLib/src\xmc_usbd.c **** 				break;
 1420              	 .loc 1 1479 0
 1421 0118 0323     	 movs r3,#3
 1422 011a 63F30A05 	 bfi r5,r3,#0,#11
1480:C:/Files/Projects/Git/XMCLib/src\xmc_usbd.c **** 				default:
 1423              	 .loc 1 1480 0
 1424 011e 01E0     	 b .L113
 1425              	.L112:
1487:C:/Files/Projects/Git/XMCLib/src\xmc_usbd.c **** 		}
 1426              	 .loc 1 1487 0
 1427 0120 62F30A05 	 bfi r5,r2,#0,#11
 1428              	.L113:
1490:C:/Files/Projects/Git/XMCLib/src\xmc_usbd.c **** 		/* clear stall */
 1429              	 .loc 1 1490 0 discriminator 2
 1430 0124 45F08055 	 orr r5,r5,#268435456
 1431              	.LVL128:
1492:C:/Files/Projects/Git/XMCLib/src\xmc_usbd.c **** 		/* set tx fifo */
 1432              	 .loc 1 1492 0 discriminator 2
 1433 0128 6FF35555 	 bfc r5,#21,#1
 1434              	.LVL129:
 1435              	.LBB12:
 1436              	.LBB13:
 363:C:/Files/Projects/Git/XMCLib/src\xmc_usbd.c ****   {
 1437              	 .loc 1 363 0 discriminator 2
 1438 012c 5B4B     	 ldr r3,.L143
 1439 012e B3F8FCE1 	 ldrh lr,[r3,#508]
 1440 0132 1EF0010F 	 tst lr,#1
 1441 0136 09D1     	 bne .L137
 361:C:/Files/Projects/Git/XMCLib/src\xmc_usbd.c ****   uint8_t result = 0U;
 1442              	 .loc 1 361 0
 1443 0138 0023     	 movs r3,#0
 360:C:/Files/Projects/Git/XMCLib/src\xmc_usbd.c ****   uint8_t i = 0U;
 1444              	 .loc 1 360 0
 1445 013a 0120     	 movs r0,#1
 1446 013c 0FE0     	 b .L135
 1447              	.LVL130:
 1448              	.L122:
 365:C:/Files/Projects/Git/XMCLib/src\xmc_usbd.c ****     i++;
 1449              	 .loc 1 365 0
 1450 013e 4000     	 lsls r0,r0,#1
 1451              	.LVL131:
 1452 0140 80B2     	 uxth r0,r0
 1453              	.LVL132:
 366:C:/Files/Projects/Git/XMCLib/src\xmc_usbd.c ****   }
 1454              	 .loc 1 366 0
 1455 0142 0133     	 adds r3,r3,#1
 1456              	.LVL133:
 1457 0144 DBB2     	 uxtb r3,r3
 1458              	.LVL134:
 363:C:/Files/Projects/Git/XMCLib/src\xmc_usbd.c ****   {
 1459              	 .loc 1 363 0
 1460 0146 072B     	 cmp r3,#7
 1461 0148 02D1     	 bne .L119
 1462 014a 05E0     	 b .L121
 1463              	.LVL135:
 1464              	.L137:
 1465 014c 0123     	 movs r3,#1
 1466 014e 0220     	 movs r0,#2
 1467              	.LVL136:
 1468              	.L119:
 1469 0150 10EA0E0F 	 tst r0,lr
 1470 0154 F3D1     	 bne .L122
 1471 0156 02E0     	 b .L135
 1472              	.L121:
 368:C:/Files/Projects/Git/XMCLib/src\xmc_usbd.c ****   {
 1473              	 .loc 1 368 0
 1474 0158 10EA0E0F 	 tst r0,lr
 1475 015c 06D1     	 bne .L138
 1476              	.LVL137:
 1477              	.L135:
 370:C:/Files/Projects/Git/XMCLib/src\xmc_usbd.c ****     result=i;
 1478              	 .loc 1 370 0
 1479 015e 40EA0E00 	 orr r0,r0,lr
 1480 0162 DFF838E1 	 ldr lr,.L143
 1481 0166 AEF8FC01 	 strh r0,[lr,#508]
 1482              	.LVL138:
 1483 016a 00E0     	 b .L123
 1484              	.LVL139:
 1485              	.L138:
 362:C:/Files/Projects/Git/XMCLib/src\xmc_usbd.c ****   while( (i < (uint8_t)XMC_USBD_NUM_TX_FIFOS)&&((xmc_device.txfifomsk & mask) != 0U))
 1486              	 .loc 1 362 0
 1487 016c 0023     	 movs r3,#0
 1488              	.LVL140:
 1489              	.L123:
 1490              	.LBE13:
 1491              	.LBE12:
1494:C:/Files/Projects/Git/XMCLib/src\xmc_usbd.c **** 		data.b.txfnum = ep->txFifoNum;
 1492              	 .loc 1 1494 0
 1493 016e 03F00F03 	 and r3,r3,#15
 1494              	.LVL141:
 1495 0172 DFF828E1 	 ldr lr,.L143
 1496 0176 3420     	 movs r0,#52
 1497 0178 00FB06F0 	 mul r0,r0,r6
 1498 017c 0EEB000C 	 add ip,lr,r0
 1499 0180 BCF80480 	 ldrh r8,[ip,#4]
 1500 0184 63F38918 	 bfi r8,r3,#6,#4
 1501 0188 ACF80480 	 strh r8,[ip,#4]
1495:C:/Files/Projects/Git/XMCLib/src\xmc_usbd.c **** 		xmc_device.endpoint_in_register[ep->address_u.address_st.number]->diepctl = data.d32; /* configur
 1502              	 .loc 1 1495 0
 1503 018c 63F39955 	 bfi r5,r3,#22,#4
1496:C:/Files/Projects/Git/XMCLib/src\xmc_usbd.c **** 		daintmsk.ep.in |= (uint16_t)((uint16_t)1U << (uint8_t)ep->address_u.address_st.number); /* enable
 1504              	 .loc 1 1496 0
 1505 0190 6A34     	 adds r4,r4,#106
 1506 0192 5EF82430 	 ldr r3,[lr,r4,lsl#2]
 1507 0196 1D60     	 str r5,[r3]
1497:C:/Files/Projects/Git/XMCLib/src\xmc_usbd.c ****   }
 1508              	 .loc 1 1497 0
 1509 0198 1EF80000 	 ldrb r0,[lr,r0]
 1510 019c 00F00F04 	 and r4,r0,#15
 1511 01a0 0123     	 movs r3,#1
 1512 01a2 A340     	 lsls r3,r3,r4
 1513 01a4 3B43     	 orrs r3,r3,r7
 1514 01a6 63F30F07 	 bfi r7,r3,#0,#16
 1515              	.LBE11:
1499:C:/Files/Projects/Git/XMCLib/src\xmc_usbd.c ****   {
 1516              	 .loc 1 1499 0
 1517 01aa 10F0800F 	 tst r0,#128
 1518 01ae 02D0     	 beq .L124
1499:C:/Files/Projects/Git/XMCLib/src\xmc_usbd.c ****   {
 1519              	 .loc 1 1499 0 is_stmt 0 discriminator 1
 1520 01b0 0029     	 cmp r1,#0
 1521 01b2 4AD0     	 beq .L125
 1522 01b4 6BE0     	 b .L126
 1523              	.L124:
 1524              	.LBB14:
1503:C:/Files/Projects/Git/XMCLib/src\xmc_usbd.c **** 		/*enable endpoint */
 1525              	 .loc 1 1503 0 is_stmt 1
 1526 01b6 394B     	 ldr r3,.L143
 1527 01b8 3420     	 movs r0,#52
 1528 01ba 00FB06F0 	 mul r0,r0,r6
 1529 01be 185C     	 ldrb r0,[r3,r0]
 1530 01c0 00F00F00 	 and r0,r0,#15
 1531 01c4 03EB8003 	 add r3,r3,r0,lsl#2
 1532 01c8 D3F8C401 	 ldr r0,[r3,#452]
 1533 01cc 0368     	 ldr r3,[r0]
 1534              	.LVL142:
1505:C:/Files/Projects/Git/XMCLib/src\xmc_usbd.c **** 		/* set ep type */
 1535              	 .loc 1 1505 0
 1536 01ce 43F40043 	 orr r3,r3,#32768
 1537              	.LVL143:
1507:C:/Files/Projects/Git/XMCLib/src\xmc_usbd.c ****     /* set mps */
 1538              	 .loc 1 1507 0
 1539 01d2 61F39343 	 bfi r3,r1,#18,#2
 1540              	.LVL144:
1509:C:/Files/Projects/Git/XMCLib/src\xmc_usbd.c **** 		{
 1541              	 .loc 1 1509 0
 1542 01d6 C1B9     	 cbnz r1,.L127
 1543              	.LVL145:
 1544              	.L136:
1511:C:/Files/Projects/Git/XMCLib/src\xmc_usbd.c **** 			{
 1545              	 .loc 1 1511 0
 1546 01d8 102A     	 cmp r2,#16
 1547 01da 0ED0     	 beq .L129
 1548 01dc 02D8     	 bhi .L130
 1549 01de 082A     	 cmp r2,#8
 1550 01e0 0FD0     	 beq .L131
 1551 01e2 14E0     	 b .L128
 1552              	.L130:
 1553 01e4 202A     	 cmp r2,#32
 1554 01e6 04D0     	 beq .L132
 1555 01e8 402A     	 cmp r2,#64
 1556 01ea 10D1     	 bne .L128
1514:C:/Files/Projects/Git/XMCLib/src\xmc_usbd.c **** 					break;
 1557              	 .loc 1 1514 0
 1558 01ec 6FF30A03 	 bfc r3,#0,#11
1515:C:/Files/Projects/Git/XMCLib/src\xmc_usbd.c **** 				case (32U):
 1559              	 .loc 1 1515 0
 1560 01f0 0DE0     	 b .L128
 1561              	.L132:
1517:C:/Files/Projects/Git/XMCLib/src\xmc_usbd.c **** 					break;
 1562              	 .loc 1 1517 0
 1563 01f2 0122     	 movs r2,#1
 1564              	.LVL146:
 1565 01f4 62F30A03 	 bfi r3,r2,#0,#11
1518:C:/Files/Projects/Git/XMCLib/src\xmc_usbd.c **** 				case (16U):
 1566              	 .loc 1 1518 0
 1567 01f8 09E0     	 b .L128
 1568              	.LVL147:
 1569              	.L129:
1520:C:/Files/Projects/Git/XMCLib/src\xmc_usbd.c **** 					break;
 1570              	 .loc 1 1520 0
 1571 01fa 0222     	 movs r2,#2
 1572              	.LVL148:
 1573 01fc 62F30A03 	 bfi r3,r2,#0,#11
1521:C:/Files/Projects/Git/XMCLib/src\xmc_usbd.c **** 				case (8U):
 1574              	 .loc 1 1521 0
 1575 0200 05E0     	 b .L128
 1576              	.LVL149:
 1577              	.L131:
1523:C:/Files/Projects/Git/XMCLib/src\xmc_usbd.c **** 					break;
 1578              	 .loc 1 1523 0
 1579 0202 0322     	 movs r2,#3
 1580              	.LVL150:
 1581 0204 62F30A03 	 bfi r3,r2,#0,#11
1524:C:/Files/Projects/Git/XMCLib/src\xmc_usbd.c **** 				default:
 1582              	 .loc 1 1524 0
 1583 0208 01E0     	 b .L128
 1584              	.LVL151:
 1585              	.L127:
1531:C:/Files/Projects/Git/XMCLib/src\xmc_usbd.c **** 		}
 1586              	 .loc 1 1531 0
 1587 020a 62F30A03 	 bfi r3,r2,#0,#11
 1588              	.LVL152:
 1589              	.L128:
1534:C:/Files/Projects/Git/XMCLib/src\xmc_usbd.c **** 		/* clear stall */
 1590              	 .loc 1 1534 0 discriminator 4
 1591 020e 43F08053 	 orr r3,r3,#268435456
 1592              	.LVL153:
1536:C:/Files/Projects/Git/XMCLib/src\xmc_usbd.c **** 		xmc_device.endpoint_out_register[ep->address_u.address_st.number]->doepctl = data.d32; /* configu
 1593              	 .loc 1 1536 0 discriminator 4
 1594 0212 6FF35553 	 bfc r3,#21,#1
 1595              	.LVL154:
1537:C:/Files/Projects/Git/XMCLib/src\xmc_usbd.c **** 		daintmsk.ep.out |=(uint16_t) ((uint16_t)1U << (uint8_t)ep->address_u.address_st.number); /* enabl
 1596              	 .loc 1 1537 0 discriminator 4
 1597 0216 0360     	 str r3,[r0]
1538:C:/Files/Projects/Git/XMCLib/src\xmc_usbd.c ****   }
 1598              	 .loc 1 1538 0 discriminator 4
 1599 0218 3423     	 movs r3,#52
 1600              	.LVL155:
 1601 021a 03FB06F6 	 mul r6,r3,r6
 1602              	.LVL156:
 1603 021e 1F4B     	 ldr r3,.L143
 1604 0220 9A5D     	 ldrb r2,[r3,r6]
 1605 0222 02F00F02 	 and r2,r2,#15
 1606 0226 0123     	 movs r3,#1
 1607 0228 9340     	 lsls r3,r3,r2
 1608 022a 43EA1743 	 orr r3,r3,r7,lsr#16
 1609 022e 63F31F47 	 bfi r7,r3,#16,#16
 1610 0232 2CE0     	 b .L126
 1611              	.LVL157:
 1612              	.L110:
 1613              	.LBE14:
 1614              	.LBB15:
1459:C:/Files/Projects/Git/XMCLib/src\xmc_usbd.c **** 		/*enable endpoint */
 1615              	 .loc 1 1459 0
 1616 0234 04F16A03 	 add r3,r4,#106
 1617 0238 1848     	 ldr r0,.L143
 1618 023a 50F82330 	 ldr r3,[r0,r3,lsl#2]
 1619 023e 1D68     	 ldr r5,[r3]
 1620              	.LVL158:
1461:C:/Files/Projects/Git/XMCLib/src\xmc_usbd.c **** 		/* set ep type */
 1621              	 .loc 1 1461 0
 1622 0240 45F40045 	 orr r5,r5,#32768
 1623              	.LVL159:
1463:C:/Files/Projects/Git/XMCLib/src\xmc_usbd.c **** 		/* set mps */
 1624              	 .loc 1 1463 0
 1625 0244 6FF39345 	 bfc r5,#18,#2
 1626              	.LVL160:
 1627 0248 51E7     	 b .L134
 1628              	.L125:
 1629              	.LBE15:
 1630              	.LBB16:
1503:C:/Files/Projects/Git/XMCLib/src\xmc_usbd.c **** 		/*enable endpoint */
 1631              	 .loc 1 1503 0
 1632 024a 144B     	 ldr r3,.L143
 1633 024c 3421     	 movs r1,#52
 1634              	.LVL161:
 1635 024e 01FB06F1 	 mul r1,r1,r6
 1636 0252 595C     	 ldrb r1,[r3,r1]
 1637 0254 01F00F01 	 and r1,r1,#15
 1638 0258 03EB8103 	 add r3,r3,r1,lsl#2
 1639 025c D3F8C401 	 ldr r0,[r3,#452]
 1640 0260 0368     	 ldr r3,[r0]
 1641              	.LVL162:
1505:C:/Files/Projects/Git/XMCLib/src\xmc_usbd.c **** 		/* set ep type */
 1642              	 .loc 1 1505 0
 1643 0262 43F40043 	 orr r3,r3,#32768
 1644              	.LVL163:
1507:C:/Files/Projects/Git/XMCLib/src\xmc_usbd.c ****     /* set mps */
 1645              	 .loc 1 1507 0
 1646 0266 6FF39343 	 bfc r3,#18,#2
 1647              	.LVL164:
 1648 026a B5E7     	 b .L136
 1649              	.LVL165:
 1650              	.L140:
1503:C:/Files/Projects/Git/XMCLib/src\xmc_usbd.c **** 		/*enable endpoint */
 1651              	 .loc 1 1503 0
 1652 026c 0B4B     	 ldr r3,.L143
 1653 026e 3420     	 movs r0,#52
 1654 0270 00FB06F0 	 mul r0,r0,r6
 1655 0274 185C     	 ldrb r0,[r3,r0]
 1656 0276 00F00F00 	 and r0,r0,#15
 1657 027a 03EB8003 	 add r3,r3,r0,lsl#2
 1658 027e D3F8C401 	 ldr r0,[r3,#452]
 1659 0282 0368     	 ldr r3,[r0]
 1660              	.LVL166:
1505:C:/Files/Projects/Git/XMCLib/src\xmc_usbd.c **** 		/* set ep type */
 1661              	 .loc 1 1505 0
 1662 0284 43F40043 	 orr r3,r3,#32768
 1663              	.LVL167:
1507:C:/Files/Projects/Git/XMCLib/src\xmc_usbd.c ****     /* set mps */
 1664              	 .loc 1 1507 0
 1665 0288 61F39343 	 bfi r3,r1,#18,#2
 1666              	.LVL168:
 1667 028c BDE7     	 b .L127
 1668              	.LVL169:
 1669              	.L126:
 1670              	.LBE16:
1540:C:/Files/Projects/Git/XMCLib/src\xmc_usbd.c ****   return XMC_USBD_STATUS_OK;
 1671              	 .loc 1 1540 0
 1672 028e 034B     	 ldr r3,.L143
 1673 0290 D3F8A431 	 ldr r3,[r3,#420]
 1674 0294 DF61     	 str r7,[r3,#28]
1542:C:/Files/Projects/Git/XMCLib/src\xmc_usbd.c **** 
 1675              	 .loc 1 1542 0
 1676 0296 0020     	 movs r0,#0
 1677 0298 BDE8F081 	 pop {r4,r5,r6,r7,r8,pc}
 1678              	.LVL170:
 1679              	.L144:
 1680              	 .align 2
 1681              	.L143:
 1682 029c 00000000 	 .word .LANCHOR0
 1683 02a0 00000000 	 .word .LANCHOR3
 1684 02a4 00000000 	 .word .LANCHOR4
 1685 02a8 00000000 	 .word .LANCHOR2
 1686              	 .cfi_endproc
 1687              	.LFE211:
 1689              	 .section .text.XMC_USBD_EndpointRead,"ax",%progbits
 1690              	 .align 2
 1691              	 .global XMC_USBD_EndpointRead
 1692              	 .thumb
 1693              	 .thumb_func
 1695              	XMC_USBD_EndpointRead:
 1696              	.LFB206:
1285:C:/Files/Projects/Git/XMCLib/src\xmc_usbd.c ****   XMC_USBD_EP_t *ep = &xmc_device.ep[ep_num];
 1697              	 .loc 1 1285 0
 1698              	 .cfi_startproc
 1699              	 
 1700              	 
 1701              	.LVL171:
 1702 0000 70B5     	 push {r4,r5,r6,lr}
 1703              	.LCFI16:
 1704              	 .cfi_def_cfa_offset 16
 1705              	 .cfi_offset 4,-16
 1706              	 .cfi_offset 5,-12
 1707              	 .cfi_offset 6,-8
 1708              	 .cfi_offset 14,-4
 1709 0002 0646     	 mov r6,r0
 1710              	.LVL172:
1287:C:/Files/Projects/Git/XMCLib/src\xmc_usbd.c ****   {
 1711              	 .loc 1 1287 0
 1712 0004 3423     	 movs r3,#52
 1713 0006 0F4C     	 ldr r4,.L149
 1714 0008 03FB0044 	 mla r4,r3,r0,r4
 1715 000c 2569     	 ldr r5,[r4,#16]
 1716 000e 9542     	 cmp r5,r2
 1717 0010 28BF     	 it cs
 1718 0012 1546     	 movcs r5,r2
 1719              	.LVL173:
1291:C:/Files/Projects/Git/XMCLib/src\xmc_usbd.c ****   ep->outBytesAvailable -= length;
 1720              	 .loc 1 1291 0
 1721 0014 E268     	 ldr r2,[r4,#12]
 1722 0016 A369     	 ldr r3,[r4,#24]
 1723 0018 0846     	 mov r0,r1
 1724              	.LVL174:
 1725 001a D118     	 adds r1,r2,r3
 1726              	.LVL175:
 1727 001c 2A46     	 mov r2,r5
 1728 001e FFF7FEFF 	 bl memcpy
 1729              	.LVL176:
1292:C:/Files/Projects/Git/XMCLib/src\xmc_usbd.c ****   if (ep->outBytesAvailable)
 1730              	 .loc 1 1292 0
 1731 0022 2369     	 ldr r3,[r4,#16]
 1732 0024 5B1B     	 subs r3,r3,r5
 1733 0026 2361     	 str r3,[r4,#16]
1293:C:/Files/Projects/Git/XMCLib/src\xmc_usbd.c ****   {
 1734              	 .loc 1 1293 0
 1735 0028 1BB1     	 cbz r3,.L146
1295:C:/Files/Projects/Git/XMCLib/src\xmc_usbd.c ****   }
 1736              	 .loc 1 1295 0
 1737 002a A369     	 ldr r3,[r4,#24]
 1738 002c 2B44     	 add r3,r3,r5
 1739 002e A361     	 str r3,[r4,#24]
 1740 0030 05E0     	 b .L147
 1741              	.L146:
1299:C:/Files/Projects/Git/XMCLib/src\xmc_usbd.c ****   }
 1742              	 .loc 1 1299 0
 1743 0032 3422     	 movs r2,#52
 1744 0034 034B     	 ldr r3,.L149
 1745 0036 02FB0636 	 mla r6,r2,r6,r3
 1746              	.LVL177:
 1747 003a 0023     	 movs r3,#0
 1748 003c B361     	 str r3,[r6,#24]
 1749              	.L147:
1302:C:/Files/Projects/Git/XMCLib/src\xmc_usbd.c **** 
 1750              	 .loc 1 1302 0
 1751 003e 2846     	 mov r0,r5
 1752 0040 70BD     	 pop {r4,r5,r6,pc}
 1753              	.LVL178:
 1754              	.L150:
 1755 0042 00BF     	 .align 2
 1756              	.L149:
 1757 0044 00000000 	 .word .LANCHOR0
 1758              	 .cfi_endproc
 1759              	.LFE206:
 1761              	 .section .text.XMC_USBD_EndpointWrite,"ax",%progbits
 1762              	 .align 2
 1763              	 .global XMC_USBD_EndpointWrite
 1764              	 .thumb
 1765              	 .thumb_func
 1767              	XMC_USBD_EndpointWrite:
 1768              	.LFB207:
1308:C:/Files/Projects/Git/XMCLib/src\xmc_usbd.c ****   XMC_USBD_EP_t * ep = &xmc_device.ep[ep_num & (uint8_t)XMC_USBD_EP_NUM_MASK];
 1769              	 .loc 1 1308 0
 1770              	 .cfi_startproc
 1771              	 
 1772              	 
 1773              	.LVL179:
 1774 0000 F8B5     	 push {r3,r4,r5,r6,r7,lr}
 1775              	.LCFI17:
 1776              	 .cfi_def_cfa_offset 24
 1777              	 .cfi_offset 3,-24
 1778              	 .cfi_offset 4,-20
 1779              	 .cfi_offset 5,-16
 1780              	 .cfi_offset 6,-12
 1781              	 .cfi_offset 7,-8
 1782              	 .cfi_offset 14,-4
1309:C:/Files/Projects/Git/XMCLib/src\xmc_usbd.c ****   int32_t result;
 1783              	 .loc 1 1309 0
 1784 0002 00F00F00 	 and r0,r0,#15
 1785              	.LVL180:
1311:C:/Files/Projects/Git/XMCLib/src\xmc_usbd.c ****   {
 1786              	 .loc 1 1311 0
 1787 0006 3423     	 movs r3,#52
 1788 0008 164C     	 ldr r4,.L156
 1789 000a 03FB0043 	 mla r3,r3,r0,r4
 1790 000e 1B79     	 ldrb r3,[r3,#4]
 1791 0010 13F0040F 	 tst r3,#4
 1792 0014 21D0     	 beq .L153
1315:C:/Files/Projects/Git/XMCLib/src\xmc_usbd.c ****   {
 1793              	 .loc 1 1315 0
 1794 0016 3423     	 movs r3,#52
 1795 0018 03FB0043 	 mla r3,r3,r0,r4
 1796 001c 5B68     	 ldr r3,[r3,#4]
 1797 001e 13F0080F 	 tst r3,#8
 1798 0022 1CD1     	 bne .L154
1321:C:/Files/Projects/Git/XMCLib/src\xmc_usbd.c ****     {
 1799              	 .loc 1 1321 0
 1800 0024 3424     	 movs r4,#52
 1801 0026 0F4B     	 ldr r3,.L156
 1802 0028 04FB0034 	 mla r4,r4,r0,r3
 1803 002c 256A     	 ldr r5,[r4,#32]
 1804 002e 9542     	 cmp r5,r2
 1805 0030 28BF     	 it cs
 1806 0032 1546     	 movcs r5,r2
 1807              	.LVL181:
1326:C:/Files/Projects/Git/XMCLib/src\xmc_usbd.c **** 		ep->xferBuffer = ep->inBuffer;
 1808              	 .loc 1 1326 0
 1809 0034 E069     	 ldr r0,[r4,#28]
 1810              	.LVL182:
 1811 0036 2A46     	 mov r2,r5
 1812 0038 FFF7FEFF 	 bl memcpy
 1813              	.LVL183:
1327:C:/Files/Projects/Git/XMCLib/src\xmc_usbd.c ****     ep->xferTotal = length;
 1814              	 .loc 1 1327 0
 1815 003c E369     	 ldr r3,[r4,#28]
 1816 003e 6362     	 str r3,[r4,#36]
1328:C:/Files/Projects/Git/XMCLib/src\xmc_usbd.c ****     /* set transfer values */
 1817              	 .loc 1 1328 0
 1818 0040 2563     	 str r5,[r4,#48]
1330:C:/Files/Projects/Git/XMCLib/src\xmc_usbd.c ****     ep->xferCount = 0U;
 1819              	 .loc 1 1330 0
 1820 0042 0023     	 movs r3,#0
 1821 0044 A362     	 str r3,[r4,#40]
1331:C:/Files/Projects/Git/XMCLib/src\xmc_usbd.c ****     ep->inInUse = 1U;
 1822              	 .loc 1 1331 0
 1823 0046 E362     	 str r3,[r4,#44]
1332:C:/Files/Projects/Git/XMCLib/src\xmc_usbd.c ****     /* start the transfer */
 1824              	 .loc 1 1332 0
 1825 0048 6368     	 ldr r3,[r4,#4]
 1826 004a 43F00803 	 orr r3,r3,#8
 1827 004e 6360     	 str r3,[r4,#4]
1334:C:/Files/Projects/Git/XMCLib/src\xmc_usbd.c ****     result=(int32_t)ep->xferTotal;
 1828              	 .loc 1 1334 0
 1829 0050 2046     	 mov r0,r4
 1830 0052 FFF7FEFF 	 bl XMC_USBD_lStartWriteXfer
 1831              	.LVL184:
1335:C:/Files/Projects/Git/XMCLib/src\xmc_usbd.c ****   }
 1832              	 .loc 1 1335 0
 1833 0056 206B     	 ldr r0,[r4,#48]
 1834              	.LVL185:
 1835 0058 F8BD     	 pop {r3,r4,r5,r6,r7,pc}
 1836              	.LVL186:
 1837              	.L153:
1313:C:/Files/Projects/Git/XMCLib/src\xmc_usbd.c ****   }
 1838              	 .loc 1 1313 0
 1839 005a 0120     	 movs r0,#1
 1840              	.LVL187:
 1841 005c F8BD     	 pop {r3,r4,r5,r6,r7,pc}
 1842              	.LVL188:
 1843              	.L154:
1317:C:/Files/Projects/Git/XMCLib/src\xmc_usbd.c ****   }
 1844              	 .loc 1 1317 0
 1845 005e 0020     	 movs r0,#0
 1846              	.LVL189:
1338:C:/Files/Projects/Git/XMCLib/src\xmc_usbd.c **** 
 1847              	 .loc 1 1338 0
 1848 0060 F8BD     	 pop {r3,r4,r5,r6,r7,pc}
 1849              	.L157:
 1850 0062 00BF     	 .align 2
 1851              	.L156:
 1852 0064 00000000 	 .word .LANCHOR0
 1853              	 .cfi_endproc
 1854              	.LFE207:
 1856              	 .section .text.XMC_USBD_lDeviceActive,"ax",%progbits
 1857              	 .align 2
 1858              	 .global XMC_USBD_lDeviceActive
 1859              	 .thumb
 1860              	 .thumb_func
 1862              	XMC_USBD_lDeviceActive:
 1863              	.LFB175:
 181:C:/Files/Projects/Git/XMCLib/src\xmc_usbd.c ****   uint8_t i;
 1864              	 .loc 1 181 0
 1865              	 .cfi_startproc
 1866              	 
 1867              	 
 1868              	 
 1869              	.LVL190:
 1870 0000 70B4     	 push {r4,r5,r6}
 1871              	.LCFI18:
 1872              	 .cfi_def_cfa_offset 12
 1873              	 .cfi_offset 4,-12
 1874              	 .cfi_offset 5,-8
 1875              	 .cfi_offset 6,-4
 1876              	.LVL191:
 184:C:/Files/Projects/Git/XMCLib/src\xmc_usbd.c ****   {
 1877              	 .loc 1 184 0
 1878 0002 057B     	 ldrb r5,[r0,#12]
 1879 0004 CDB1     	 cbz r5,.L162
 1880 0006 0023     	 movs r3,#0
 1881 0008 1846     	 mov r0,r3
 1882              	.LVL192:
 186:C:/Files/Projects/Git/XMCLib/src\xmc_usbd.c ****     {
 1883              	 .loc 1 186 0
 1884 000a 0D4C     	 ldr r4,.L166
 1885 000c 3421     	 movs r1,#52
 188:C:/Files/Projects/Git/XMCLib/src\xmc_usbd.c ****     }
 1886              	 .loc 1 188 0
 1887 000e 0126     	 movs r6,#1
 1888              	.LVL193:
 1889              	.L161:
 186:C:/Files/Projects/Git/XMCLib/src\xmc_usbd.c ****     {
 1890              	 .loc 1 186 0
 1891 0010 01FB0342 	 mla r2,r1,r3,r4
 1892 0014 5268     	 ldr r2,[r2,#4]
 1893 0016 12F0080F 	 tst r2,#8
 1894 001a 08D1     	 bne .L163
 186:C:/Files/Projects/Git/XMCLib/src\xmc_usbd.c ****     {
 1895              	 .loc 1 186 0 is_stmt 0 discriminator 1
 1896 001c 01FB0342 	 mla r2,r1,r3,r4
 1897 0020 5268     	 ldr r2,[r2,#4]
 1898 0022 C2F30012 	 ubfx r2,r2,#4,#1
 188:C:/Files/Projects/Git/XMCLib/src\xmc_usbd.c ****     }
 1899              	 .loc 1 188 0 is_stmt 1 discriminator 1
 1900 0026 002A     	 cmp r2,#0
 1901 0028 18BF     	 it ne
 1902 002a 0120     	 movne r0,#1
 1903              	.LVL194:
 1904 002c 00E0     	 b .L160
 1905              	.LVL195:
 1906              	.L163:
 188:C:/Files/Projects/Git/XMCLib/src\xmc_usbd.c ****     }
 1907              	 .loc 1 188 0 is_stmt 0
 1908 002e 3046     	 mov r0,r6
 1909              	.LVL196:
 1910              	.L160:
 1911 0030 0133     	 adds r3,r3,#1
 1912              	.LVL197:
 184:C:/Files/Projects/Git/XMCLib/src\xmc_usbd.c ****   {
 1913              	 .loc 1 184 0 is_stmt 1 discriminator 2
 1914 0032 DAB2     	 uxtb r2,r3
 1915 0034 AA42     	 cmp r2,r5
 1916 0036 EBD3     	 bcc .L161
 1917 0038 00E0     	 b .L159
 1918              	.LVL198:
 1919              	.L162:
 183:C:/Files/Projects/Git/XMCLib/src\xmc_usbd.c ****   for (i = 0U; i < (uint8_t)obj->usbd_max_num_eps; i++)
 1920              	 .loc 1 183 0
 1921 003a 0020     	 movs r0,#0
 1922              	.LVL199:
 1923              	.L159:
 192:C:/Files/Projects/Git/XMCLib/src\xmc_usbd.c **** 
 1924              	 .loc 1 192 0
 1925 003c 70BC     	 pop {r4,r5,r6}
 1926              	.LCFI19:
 1927              	 .cfi_restore 6
 1928              	 .cfi_restore 5
 1929              	 .cfi_restore 4
 1930              	 .cfi_def_cfa_offset 0
 1931 003e 7047     	 bx lr
 1932              	.L167:
 1933              	 .align 2
 1934              	.L166:
 1935 0040 00000000 	 .word .LANCHOR0
 1936              	 .cfi_endproc
 1937              	.LFE175:
 1939              	 .section .text.XMC_USBD_DeviceGetState,"ax",%progbits
 1940              	 .align 2
 1941              	 .global XMC_USBD_DeviceGetState
 1942              	 .thumb
 1943              	 .thumb_func
 1945              	XMC_USBD_DeviceGetState:
 1946              	.LFB204:
1241:C:/Files/Projects/Git/XMCLib/src\xmc_usbd.c ****   XMC_USBD_STATE_t state={0U};
 1947              	 .loc 1 1241 0
 1948              	 .cfi_startproc
 1949              	 
 1950              	 
 1951              	.LVL200:
 1952 0000 70B5     	 push {r4,r5,r6,lr}
 1953              	.LCFI20:
 1954              	 .cfi_def_cfa_offset 16
 1955              	 .cfi_offset 4,-16
 1956              	 .cfi_offset 5,-12
 1957              	 .cfi_offset 6,-8
 1958              	 .cfi_offset 14,-4
1242:C:/Files/Projects/Git/XMCLib/src\xmc_usbd.c ****   state.speed = XMC_USBD_SPEED_FULL;
 1959              	 .loc 1 1242 0
 1960 0002 0024     	 movs r4,#0
 1961              	.LVL201:
1244:C:/Files/Projects/Git/XMCLib/src\xmc_usbd.c ****   state.active = XMC_USBD_lDeviceActive(obj);
 1962              	 .loc 1 1244 0
 1963 0004 0A4E     	 ldr r6,.L170
 1964 0006 96F8FE51 	 ldrb r5,[r6,#510]
 1965 000a 05F00105 	 and r5,r5,#1
 1966              	.LVL202:
1245:C:/Files/Projects/Git/XMCLib/src\xmc_usbd.c ****   state.powered = xmc_device.IsPowered;
 1967              	 .loc 1 1245 0
 1968 000e FFF7FEFF 	 bl XMC_USBD_lDeviceActive
 1969              	.LVL203:
1246:C:/Files/Projects/Git/XMCLib/src\xmc_usbd.c ****   return state;
 1970              	 .loc 1 1246 0
 1971 0012 96F8FE31 	 ldrb r3,[r6,#510]
1247:C:/Files/Projects/Git/XMCLib/src\xmc_usbd.c **** }
 1972              	 .loc 1 1247 0
 1973 0016 C3F38003 	 ubfx r3,r3,#2,#1
 1974 001a 63F30004 	 bfi r4,r3,#0,#1
 1975              	.LVL204:
 1976 001e 65F34104 	 bfi r4,r5,#1,#1
 1977 0022 60F38204 	 bfi r4,r0,#2,#1
 1978 0026 0123     	 movs r3,#1
 1979 0028 63F3C404 	 bfi r4,r3,#3,#2
1248:C:/Files/Projects/Git/XMCLib/src\xmc_usbd.c **** 
 1980              	 .loc 1 1248 0
 1981 002c 2046     	 mov r0,r4
 1982              	.LVL205:
 1983 002e 70BD     	 pop {r4,r5,r6,pc}
 1984              	.LVL206:
 1985              	.L171:
 1986              	 .align 2
 1987              	.L170:
 1988 0030 00000000 	 .word .LANCHOR0
 1989              	 .cfi_endproc
 1990              	.LFE204:
 1992              	 .section .text.XMC_USBD_Enable,"ax",%progbits
 1993              	 .align 2
 1994              	 .global XMC_USBD_Enable
 1995              	 .thumb
 1996              	 .thumb_func
 1998              	XMC_USBD_Enable:
 1999              	.LFB191:
 942:C:/Files/Projects/Git/XMCLib/src\xmc_usbd.c **** #if defined(CLOCK_GATING_SUPPORTED)
 2000              	 .loc 1 942 0
 2001              	 .cfi_startproc
 2002              	 
 2003              	 
 2004 0000 08B5     	 push {r3,lr}
 2005              	.LCFI21:
 2006              	 .cfi_def_cfa_offset 8
 2007              	 .cfi_offset 3,-8
 2008              	 .cfi_offset 14,-4
 947:C:/Files/Projects/Git/XMCLib/src\xmc_usbd.c ****   XMC_SCU_POWER_EnableUsb();
 2009              	 .loc 1 947 0
 2010 0002 0348     	 ldr r0,.L174
 2011 0004 FFF7FEFF 	 bl XMC_SCU_RESET_DeassertPeripheralReset
 2012              	.LVL207:
 948:C:/Files/Projects/Git/XMCLib/src\xmc_usbd.c **** }
 2013              	 .loc 1 948 0
 2014 0008 FFF7FEFF 	 bl XMC_SCU_POWER_EnableUsb
 2015              	.LVL208:
 2016 000c 08BD     	 pop {r3,pc}
 2017              	.L175:
 2018 000e 00BF     	 .align 2
 2019              	.L174:
 2020 0010 80000020 	 .word 536871040
 2021              	 .cfi_endproc
 2022              	.LFE191:
 2024              	 .section .text.XMC_USBD_Init,"ax",%progbits
 2025              	 .align 2
 2026              	 .global XMC_USBD_Init
 2027              	 .thumb
 2028              	 .thumb_func
 2030              	XMC_USBD_Init:
 2031              	.LFB200:
1084:C:/Files/Projects/Git/XMCLib/src\xmc_usbd.c ****   uint8_t *XMC_USBD_BASE_ADDRESS;
 2032              	 .loc 1 1084 0
 2033              	 .cfi_startproc
 2034              	 
 2035              	 
 2036              	.LVL209:
 2037 0000 38B5     	 push {r3,r4,r5,lr}
 2038              	.LCFI22:
 2039              	 .cfi_def_cfa_offset 16
 2040              	 .cfi_offset 3,-16
 2041              	 .cfi_offset 4,-12
 2042              	 .cfi_offset 5,-8
 2043              	 .cfi_offset 14,-4
 2044 0002 0446     	 mov r4,r0
1096:C:/Files/Projects/Git/XMCLib/src\xmc_usbd.c ****   
 2045              	 .loc 1 1096 0
 2046 0004 FFF7FEFF 	 bl XMC_USBD_Enable
 2047              	.LVL210:
1098:C:/Files/Projects/Git/XMCLib/src\xmc_usbd.c **** 
 2048              	 .loc 1 1098 0
 2049 0008 414B     	 ldr r3,.L189
 2050 000a 1C60     	 str r4,[r3]
 2051              	.LVL211:
 2052 000c 4148     	 ldr r0,.L189+4
 2053 000e 031F     	 subs r3,r0,#4
 2054 0010 4149     	 ldr r1,.L189+8
 2055 0012 1830     	 adds r0,r0,#24
1103:C:/Files/Projects/Git/XMCLib/src\xmc_usbd.c **** 	  XMC_USBD_EP_IN_BUFFERSIZE[i] 	= XMC_USBD_EP0_BUFFER_SIZE;
 2056              	 .loc 1 1103 0
 2057 0014 4022     	 movs r2,#64
 2058              	.LVL212:
 2059              	.L177:
1103:C:/Files/Projects/Git/XMCLib/src\xmc_usbd.c **** 	  XMC_USBD_EP_IN_BUFFERSIZE[i] 	= XMC_USBD_EP0_BUFFER_SIZE;
 2060              	 .loc 1 1103 0 is_stmt 0 discriminator 3
 2061 0016 43F8042F 	 str r2,[r3,#4]!
1104:C:/Files/Projects/Git/XMCLib/src\xmc_usbd.c ****   }
 2062              	 .loc 1 1104 0 is_stmt 1 discriminator 3
 2063 001a 41F8042F 	 str r2,[r1,#4]!
1101:C:/Files/Projects/Git/XMCLib/src\xmc_usbd.c ****   {
 2064              	 .loc 1 1101 0 discriminator 3
 2065 001e 8342     	 cmp r3,r0
 2066 0020 F9D1     	 bne .L177
1108:C:/Files/Projects/Git/XMCLib/src\xmc_usbd.c **** 
 2067              	 .loc 1 1108 0
 2068 0022 3E4D     	 ldr r5,.L189+12
 2069 0024 2846     	 mov r0,r5
 2070 0026 0021     	 movs r1,#0
 2071 0028 4FF40272 	 mov r2,#520
 2072 002c FFF7FEFF 	 bl memset
 2073              	.LVL213:
1111:C:/Files/Projects/Git/XMCLib/src\xmc_usbd.c ****   xmc_device.EndpointEvent_cb = obj->cb_endpoint_event;
 2074              	 .loc 1 1111 0
 2075 0030 6368     	 ldr r3,[r4,#4]
 2076 0032 C5F80032 	 str r3,[r5,#512]
1112:C:/Files/Projects/Git/XMCLib/src\xmc_usbd.c ****   XMC_USBD_BASE_ADDRESS = (uint8_t *)(obj->usbd);
 2077              	 .loc 1 1112 0
 2078 0036 A368     	 ldr r3,[r4,#8]
 2079 0038 C5F80432 	 str r3,[r5,#516]
1113:C:/Files/Projects/Git/XMCLib/src\xmc_usbd.c ****   /* assign register address */
 2080              	 .loc 1 1113 0
 2081 003c 2068     	 ldr r0,[r4]
 2082              	.LVL214:
1115:C:/Files/Projects/Git/XMCLib/src\xmc_usbd.c ****   xmc_device.device_register = ((dwc_otg_device_global_regs_t*)(XMC_USBD_BASE_ADDRESS + DWC_DEV_GLO
 2083              	 .loc 1 1115 0
 2084 003e C5F8A001 	 str r0,[r5,#416]
1116:C:/Files/Projects/Git/XMCLib/src\xmc_usbd.c ****   for (i = 0U;i < (uint32_t)XMC_USBD_NUM_EPS;i++)
 2085              	 .loc 1 1116 0
 2086 0042 00F50063 	 add r3,r0,#2048
 2087 0046 C5F8A431 	 str r3,[r5,#420]
 2088              	.LVL215:
 2089 004a 00F51062 	 add r2,r0,#2304
 2090 004e 05F5D273 	 add r3,r5,#420
 2091 0052 05F5E075 	 add r5,r5,#448
 2092              	.LVL216:
 2093              	.L178:
1119:C:/Files/Projects/Git/XMCLib/src\xmc_usbd.c ****     ((uint32_t)DWC_EP_REG_OFFSET*i));
 2094              	 .loc 1 1119 0 discriminator 3
 2095 0056 43F8042F 	 str r2,[r3,#4]!
 2096 005a 2032     	 adds r2,r2,#32
1117:C:/Files/Projects/Git/XMCLib/src\xmc_usbd.c ****   {
 2097              	 .loc 1 1117 0 discriminator 3
 2098 005c AB42     	 cmp r3,r5
 2099 005e FAD1     	 bne .L178
 2100 0060 00F53062 	 add r2,r0,#2816
 2101 0064 2D49     	 ldr r1,.L189+12
 2102 0066 01F5E073 	 add r3,r1,#448
 2103 006a 01F5EE71 	 add r1,r1,#476
 2104              	.L179:
1124:C:/Files/Projects/Git/XMCLib/src\xmc_usbd.c ****     									  DWC_DEV_OUT_EP_REG_OFFSET +
 2105              	 .loc 1 1124 0 discriminator 3
 2106 006e 43F8042F 	 str r2,[r3,#4]!
 2107 0072 2032     	 adds r2,r2,#32
1122:C:/Files/Projects/Git/XMCLib/src\xmc_usbd.c ****   {
 2108              	 .loc 1 1122 0 discriminator 3
 2109 0074 8B42     	 cmp r3,r1
 2110 0076 FAD1     	 bne .L179
 2111 0078 00F58052 	 add r2,r0,#4096
 2112 007c 2749     	 ldr r1,.L189+12
 2113 007e 01F5EE73 	 add r3,r1,#476
 2114 0082 01F5FC71 	 add r1,r1,#504
 2115              	.L180:
1130:C:/Files/Projects/Git/XMCLib/src\xmc_usbd.c ****     						XMC_USBD_TX_FIFO_REG_OFFSET +
 2116              	 .loc 1 1130 0 discriminator 3
 2117 0086 43F8042F 	 str r2,[r3,#4]!
 2118 008a 02F58052 	 add r2,r2,#4096
1128:C:/Files/Projects/Git/XMCLib/src\xmc_usbd.c ****   {
 2119              	 .loc 1 1128 0 discriminator 3
 2120 008e 8B42     	 cmp r3,r1
 2121 0090 F9D1     	 bne .L180
1137:C:/Files/Projects/Git/XMCLib/src\xmc_usbd.c ****   gahbcfg.b.glblintrmsk = 1U; /* enable interrupts ( global mask ) */
 2122              	 .loc 1 1137 0
 2123 0092 8368     	 ldr r3,[r0,#8]
 2124              	.LVL217:
1139:C:/Files/Projects/Git/XMCLib/src\xmc_usbd.c ****   if(obj->usbd_transfer_mode == XMC_USBD_USE_DMA)
 2125              	 .loc 1 1139 0
 2126 0094 43F08103 	 orr r3,r3,#129
 2127              	.LVL218:
1140:C:/Files/Projects/Git/XMCLib/src\xmc_usbd.c ****   {
 2128              	 .loc 1 1140 0
 2129 0098 627B     	 ldrb r2,[r4,#13]
 2130 009a 12B9     	 cbnz r2,.L181
 2131              	.LVL219:
1143:C:/Files/Projects/Git/XMCLib/src\xmc_usbd.c ****   }
 2132              	 .loc 1 1143 0
 2133 009c 43F02003 	 orr r3,r3,#32
 2134              	.LVL220:
 2135 00a0 01E0     	 b .L182
 2136              	.L181:
1147:C:/Files/Projects/Git/XMCLib/src\xmc_usbd.c ****   }
 2137              	 .loc 1 1147 0
 2138 00a2 6FF34513 	 bfc r3,#5,#1
 2139              	.LVL221:
 2140              	.L182:
1149:C:/Files/Projects/Git/XMCLib/src\xmc_usbd.c ****   /* configure usb details */  
 2141              	 .loc 1 1149 0
 2142 00a6 8360     	 str r3,[r0,#8]
1151:C:/Files/Projects/Git/XMCLib/src\xmc_usbd.c ****   gusbcfg.b.force_dev_mode = 1U; /* force us into device mode */
 2143              	 .loc 1 1151 0
 2144 00a8 1C4D     	 ldr r5,.L189+12
 2145 00aa D5F8A021 	 ldr r2,[r5,#416]
 2146 00ae D368     	 ldr r3,[r2,#12]
 2147              	.LVL222:
1153:C:/Files/Projects/Git/XMCLib/src\xmc_usbd.c ****   xmc_device.global_register->gusbcfg = gusbcfg.d32;
 2148              	 .loc 1 1153 0
 2149 00b0 43F08043 	 orr r3,r3,#1073741824
 2150              	.LVL223:
 2151 00b4 43F48073 	 orr r3,r3,#256
 2152              	.LVL224:
1154:C:/Files/Projects/Git/XMCLib/src\xmc_usbd.c **** 
 2153              	 .loc 1 1154 0
 2154 00b8 D360     	 str r3,[r2,#12]
1158:C:/Files/Projects/Git/XMCLib/src\xmc_usbd.c ****   dcfg.b.devspd = XMC_USBD_DCFG_DEVSPD_FS;
 2155              	 .loc 1 1158 0
 2156 00ba D5F8A421 	 ldr r2,[r5,#420]
 2157 00be 1368     	 ldr r3,[r2]
 2158              	.LVL225:
1159:C:/Files/Projects/Git/XMCLib/src\xmc_usbd.c ****   dcfg.b.descdma = 0U;
 2159              	 .loc 1 1159 0
 2160 00c0 43F00303 	 orr r3,r3,#3
 2161              	.LVL226:
1160:C:/Files/Projects/Git/XMCLib/src\xmc_usbd.c ****   xmc_device.device_register->dcfg = dcfg.d32;
 2162              	 .loc 1 1160 0
 2163 00c4 6FF3D753 	 bfc r3,#23,#1
 2164              	.LVL227:
1161:C:/Files/Projects/Git/XMCLib/src\xmc_usbd.c ****   /* configure device functions */  
 2165              	 .loc 1 1161 0
 2166 00c8 1360     	 str r3,[r2]
1163:C:/Files/Projects/Git/XMCLib/src\xmc_usbd.c ****   dctl.b.sftdiscon = 1U; /* disconnect the device until its connected by the user */
 2167              	 .loc 1 1163 0
 2168 00ca D5F8A421 	 ldr r2,[r5,#420]
 2169 00ce 5368     	 ldr r3,[r2,#4]
 2170              	.LVL228:
1164:C:/Files/Projects/Git/XMCLib/src\xmc_usbd.c ****   /* all other config is done by default register value */
 2171              	 .loc 1 1164 0
 2172 00d0 43F00203 	 orr r3,r3,#2
 2173              	.LVL229:
1166:C:/Files/Projects/Git/XMCLib/src\xmc_usbd.c ****   /* flush the fifos for proper operation */
 2174              	 .loc 1 1166 0
 2175 00d4 5360     	 str r3,[r2,#4]
1168:C:/Files/Projects/Git/XMCLib/src\xmc_usbd.c ****   XMC_USBD_lFlushRXFifo();
 2176              	 .loc 1 1168 0
 2177 00d6 1020     	 movs r0,#16
 2178              	.LVL230:
 2179 00d8 FFF7FEFF 	 bl XMC_USBD_lFlushTXFifo
 2180              	.LVL231:
1169:C:/Files/Projects/Git/XMCLib/src\xmc_usbd.c ****   /* Enable Global Interrupts */
 2181              	 .loc 1 1169 0
 2182 00dc FFF7FEFF 	 bl XMC_USBD_lFlushRXFifo
 2183              	.LVL232:
1172:C:/Files/Projects/Git/XMCLib/src\xmc_usbd.c ****   xmc_device.global_register->gintsts = 0xFFFFFFFFU; /* clear all interrupts */
 2184              	 .loc 1 1172 0
 2185 00e0 D5F8A031 	 ldr r3,[r5,#416]
 2186 00e4 0022     	 movs r2,#0
 2187 00e6 9A61     	 str r2,[r3,#24]
1173:C:/Files/Projects/Git/XMCLib/src\xmc_usbd.c ****  
 2188              	 .loc 1 1173 0
 2189 00e8 D5F8A031 	 ldr r3,[r5,#416]
 2190 00ec 4FF0FF32 	 mov r2,#-1
 2191 00f0 5A61     	 str r2,[r3,#20]
1186:C:/Files/Projects/Git/XMCLib/src\xmc_usbd.c ****   if(obj->usbd_transfer_mode == XMC_USBD_USE_FIFO)
 2192              	 .loc 1 1186 0
 2193 00f2 0B4B     	 ldr r3,.L189+16
 2194              	.LVL233:
1187:C:/Files/Projects/Git/XMCLib/src\xmc_usbd.c ****   {
 2195              	 .loc 1 1187 0
 2196 00f4 627B     	 ldrb r2,[r4,#13]
 2197 00f6 012A     	 cmp r2,#1
 2198              	.LVL234:
1189:C:/Files/Projects/Git/XMCLib/src\xmc_usbd.c ****   }
 2199              	 .loc 1 1189 0
 2200 00f8 08BF     	 it eq
 2201 00fa 43F01003 	 orreq r3,r3,#16
 2202              	.LVL235:
1192:C:/Files/Projects/Git/XMCLib/src\xmc_usbd.c ****   xmc_device.global_register->gintmsk = gintmsk.d32;
 2203              	 .loc 1 1192 0
 2204 00fe 43F44023 	 orr r3,r3,#786432
 2205              	.LVL236:
1193:C:/Files/Projects/Git/XMCLib/src\xmc_usbd.c ****   return XMC_USBD_STATUS_OK;
 2206              	 .loc 1 1193 0
 2207 0102 064A     	 ldr r2,.L189+12
 2208 0104 D2F8A021 	 ldr r2,[r2,#416]
 2209              	.LVL237:
 2210 0108 9361     	 str r3,[r2,#24]
1195:C:/Files/Projects/Git/XMCLib/src\xmc_usbd.c **** 
 2211              	 .loc 1 1195 0
 2212 010a 0020     	 movs r0,#0
 2213 010c 38BD     	 pop {r3,r4,r5,pc}
 2214              	.LVL238:
 2215              	.L190:
 2216 010e 00BF     	 .align 2
 2217              	.L189:
 2218 0110 00000000 	 .word .LANCHOR1
 2219 0114 00000000 	 .word .LANCHOR4
 2220 0118 FCFFFFFF 	 .word .LANCHOR3-4
 2221 011c 00000000 	 .word .LANCHOR0
 2222 0120 0E3C00C0 	 .word -1073726450
 2223              	 .cfi_endproc
 2224              	.LFE200:
 2226              	 .section .text.XMC_USBD_Disable,"ax",%progbits
 2227              	 .align 2
 2228              	 .global XMC_USBD_Disable
 2229              	 .thumb
 2230              	 .thumb_func
 2232              	XMC_USBD_Disable:
 2233              	.LFB192:
 955:C:/Files/Projects/Git/XMCLib/src\xmc_usbd.c ****   /* Clear Reset and power up */
 2234              	 .loc 1 955 0
 2235              	 .cfi_startproc
 2236              	 
 2237              	 
 2238 0000 08B5     	 push {r3,lr}
 2239              	.LCFI23:
 2240              	 .cfi_def_cfa_offset 8
 2241              	 .cfi_offset 3,-8
 2242              	 .cfi_offset 14,-4
 957:C:/Files/Projects/Git/XMCLib/src\xmc_usbd.c **** #if defined(CLOCK_GATING_SUPPORTED)
 2243              	 .loc 1 957 0
 2244 0002 0348     	 ldr r0,.L193
 2245 0004 FFF7FEFF 	 bl XMC_SCU_RESET_AssertPeripheralReset
 2246              	.LVL239:
 961:C:/Files/Projects/Git/XMCLib/src\xmc_usbd.c **** }
 2247              	 .loc 1 961 0
 2248 0008 FFF7FEFF 	 bl XMC_SCU_POWER_DisableUsb
 2249              	.LVL240:
 2250 000c 08BD     	 pop {r3,pc}
 2251              	.L194:
 2252 000e 00BF     	 .align 2
 2253              	.L193:
 2254 0010 80000020 	 .word 536871040
 2255              	 .cfi_endproc
 2256              	.LFE192:
 2258              	 .section .text.XMC_USBD_ClearEvent,"ax",%progbits
 2259              	 .align 2
 2260              	 .global XMC_USBD_ClearEvent
 2261              	 .thumb
 2262              	 .thumb_func
 2264              	XMC_USBD_ClearEvent:
 2265              	.LFB193:
 968:C:/Files/Projects/Git/XMCLib/src\xmc_usbd.c ****   gintsts_data_t clear;
 2266              	 .loc 1 968 0
 2267              	 .cfi_startproc
 2268              	 
 2269              	 
 2270              	 
 2271              	.LVL241:
 970:C:/Files/Projects/Git/XMCLib/src\xmc_usbd.c ****   switch(event)
 2272              	 .loc 1 970 0
 2273 0000 0023     	 movs r3,#0
 2274              	.LVL242:
 971:C:/Files/Projects/Git/XMCLib/src\xmc_usbd.c ****   {
 2275              	 .loc 1 971 0
 2276 0002 0D28     	 cmp r0,#13
 2277 0004 21D8     	 bhi .L196
 2278 0006 DFE800F0 	 tbb [pc,r0]
 2279              	.L198:
 2280 000a 07       	 .byte (.L197-.L198)/2
 2281 000b 20       	 .byte (.L196-.L198)/2
 2282 000c 20       	 .byte (.L196-.L198)/2
 2283 000d 20       	 .byte (.L196-.L198)/2
 2284 000e 0A       	 .byte (.L199-.L198)/2
 2285 000f 20       	 .byte (.L196-.L198)/2
 2286 0010 0D       	 .byte (.L200-.L198)/2
 2287 0011 10       	 .byte (.L201-.L198)/2
 2288 0012 13       	 .byte (.L202-.L198)/2
 2289 0013 16       	 .byte (.L203-.L198)/2
 2290 0014 18       	 .byte (.L204-.L198)/2
 2291 0015 1B       	 .byte (.L205-.L198)/2
 2292 0016 20       	 .byte (.L196-.L198)/2
 2293 0017 1E       	 .byte (.L206-.L198)/2
 2294              	 .p2align 1
 2295              	.L197:
 974:C:/Files/Projects/Git/XMCLib/src\xmc_usbd.c **** 	  break;
 2296              	 .loc 1 974 0
 2297 0018 4FF08043 	 mov r3,#1073741824
 975:C:/Files/Projects/Git/XMCLib/src\xmc_usbd.c ****     case (XMC_USBD_EVENT_RESET):
 2298              	 .loc 1 975 0
 2299 001c 15E0     	 b .L196
 2300              	.L199:
 977:C:/Files/Projects/Git/XMCLib/src\xmc_usbd.c **** 	  break;
 2301              	 .loc 1 977 0
 2302 001e 4FF48053 	 mov r3,#4096
 978:C:/Files/Projects/Git/XMCLib/src\xmc_usbd.c ****     case (XMC_USBD_EVENT_SUSPEND):
 2303              	 .loc 1 978 0
 2304 0022 12E0     	 b .L196
 2305              	.L200:
 980:C:/Files/Projects/Git/XMCLib/src\xmc_usbd.c **** 	  break;
 2306              	 .loc 1 980 0
 2307 0024 4FF40063 	 mov r3,#2048
 981:C:/Files/Projects/Git/XMCLib/src\xmc_usbd.c ****     case (XMC_USBD_EVENT_RESUME):
 2308              	 .loc 1 981 0
 2309 0028 0FE0     	 b .L196
 2310              	.L201:
 983:C:/Files/Projects/Git/XMCLib/src\xmc_usbd.c **** 	  break;
 2311              	 .loc 1 983 0
 2312 002a 4FF00043 	 mov r3,#-2147483648
 984:C:/Files/Projects/Git/XMCLib/src\xmc_usbd.c ****     case (XMC_USBD_EVENT_REMOTE_WAKEUP):
 2313              	 .loc 1 984 0
 2314 002e 0CE0     	 b .L196
 2315              	.L202:
 986:C:/Files/Projects/Git/XMCLib/src\xmc_usbd.c **** 	  break;
 2316              	 .loc 1 986 0
 2317 0030 4FF00043 	 mov r3,#-2147483648
 987:C:/Files/Projects/Git/XMCLib/src\xmc_usbd.c ****     case (XMC_USBD_EVENT_SOF):
 2318              	 .loc 1 987 0
 2319 0034 09E0     	 b .L196
 2320              	.L203:
 989:C:/Files/Projects/Git/XMCLib/src\xmc_usbd.c **** 	  break;
 2321              	 .loc 1 989 0
 2322 0036 0823     	 movs r3,#8
 990:C:/Files/Projects/Git/XMCLib/src\xmc_usbd.c ****     case (XMC_USBD_EVENT_EARLYSUSPEND):
 2323              	 .loc 1 990 0
 2324 0038 07E0     	 b .L196
 2325              	.L204:
 992:C:/Files/Projects/Git/XMCLib/src\xmc_usbd.c **** 	  break;
 2326              	 .loc 1 992 0
 2327 003a 4FF48063 	 mov r3,#1024
 993:C:/Files/Projects/Git/XMCLib/src\xmc_usbd.c ****     case (XMC_USBD_EVENT_ENUMDONE):
 2328              	 .loc 1 993 0
 2329 003e 04E0     	 b .L196
 2330              	.L205:
 995:C:/Files/Projects/Git/XMCLib/src\xmc_usbd.c **** 	  break;
 2331              	 .loc 1 995 0
 2332 0040 4FF40053 	 mov r3,#8192
 996:C:/Files/Projects/Git/XMCLib/src\xmc_usbd.c ****     case (XMC_USBD_EVENT_OUTEP):
 2333              	 .loc 1 996 0
 2334 0044 01E0     	 b .L196
 2335              	.L206:
 998:C:/Files/Projects/Git/XMCLib/src\xmc_usbd.c **** 	  break;
 2336              	 .loc 1 998 0
 2337 0046 4FF40023 	 mov r3,#524288
 2338              	.L196:
1003:C:/Files/Projects/Git/XMCLib/src\xmc_usbd.c **** }
 2339              	 .loc 1 1003 0
 2340 004a 024A     	 ldr r2,.L207
 2341 004c D2F8A021 	 ldr r2,[r2,#416]
 2342              	.LVL243:
 2343 0050 5361     	 str r3,[r2,#20]
 2344 0052 7047     	 bx lr
 2345              	.L208:
 2346              	 .align 2
 2347              	.L207:
 2348 0054 00000000 	 .word .LANCHOR0
 2349              	 .cfi_endproc
 2350              	.LFE193:
 2352              	 .section .text.XMC_USBD_ClearEventINEP,"ax",%progbits
 2353              	 .align 2
 2354              	 .global XMC_USBD_ClearEventINEP
 2355              	 .thumb
 2356              	 .thumb_func
 2358              	XMC_USBD_ClearEventINEP:
 2359              	.LFB195:
1020:C:/Files/Projects/Git/XMCLib/src\xmc_usbd.c ****   diepint_data_t clear;
 2360              	 .loc 1 1020 0
 2361              	 .cfi_startproc
 2362              	 
 2363              	 
 2364              	 
 2365              	.LVL244:
1023:C:/Files/Projects/Git/XMCLib/src\xmc_usbd.c **** }
 2366              	 .loc 1 1023 0
 2367 0000 6A31     	 adds r1,r1,#106
 2368              	.LVL245:
 2369 0002 024B     	 ldr r3,.L210
 2370 0004 53F82130 	 ldr r3,[r3,r1,lsl#2]
 2371 0008 9860     	 str r0,[r3,#8]
 2372 000a 7047     	 bx lr
 2373              	.L211:
 2374              	 .align 2
 2375              	.L210:
 2376 000c 00000000 	 .word .LANCHOR0
 2377              	 .cfi_endproc
 2378              	.LFE195:
 2380              	 .section .text.XMC_USBD_ClearEventOUTEP,"ax",%progbits
 2381              	 .align 2
 2382              	 .global XMC_USBD_ClearEventOUTEP
 2383              	 .thumb
 2384              	 .thumb_func
 2386              	XMC_USBD_ClearEventOUTEP:
 2387              	.LFB196:
1030:C:/Files/Projects/Git/XMCLib/src\xmc_usbd.c ****   doepint_data_t clear;
 2388              	 .loc 1 1030 0
 2389              	 .cfi_startproc
 2390              	 
 2391              	 
 2392              	 
 2393              	.LVL246:
1033:C:/Files/Projects/Git/XMCLib/src\xmc_usbd.c **** }
 2394              	 .loc 1 1033 0
 2395 0000 034B     	 ldr r3,.L213
 2396 0002 03EB8101 	 add r1,r3,r1,lsl#2
 2397              	.LVL247:
 2398 0006 D1F8C431 	 ldr r3,[r1,#452]
 2399 000a 9860     	 str r0,[r3,#8]
 2400 000c 7047     	 bx lr
 2401              	.L214:
 2402 000e 00BF     	 .align 2
 2403              	.L213:
 2404 0010 00000000 	 .word .LANCHOR0
 2405              	 .cfi_endproc
 2406              	.LFE196:
 2408              	 .section .text.XMC_USBD_EnableEventOUTEP,"ax",%progbits
 2409              	 .align 2
 2410              	 .global XMC_USBD_EnableEventOUTEP
 2411              	 .thumb
 2412              	 .thumb_func
 2414              	XMC_USBD_EnableEventOUTEP:
 2415              	.LFB197:
1040:C:/Files/Projects/Git/XMCLib/src\xmc_usbd.c **** 	doepint_data_t doepint;
 2416              	 .loc 1 1040 0
 2417              	 .cfi_startproc
 2418              	 
 2419              	 
 2420              	 
 2421              	.LVL248:
1043:C:/Files/Projects/Git/XMCLib/src\xmc_usbd.c **** }
 2422              	 .loc 1 1043 0
 2423 0000 034B     	 ldr r3,.L216
 2424 0002 D3F8A421 	 ldr r2,[r3,#420]
 2425 0006 5369     	 ldr r3,[r2,#20]
 2426 0008 1843     	 orrs r0,r0,r3
 2427              	.LVL249:
 2428 000a 5061     	 str r0,[r2,#20]
 2429 000c 7047     	 bx lr
 2430              	.L217:
 2431 000e 00BF     	 .align 2
 2432              	.L216:
 2433 0010 00000000 	 .word .LANCHOR0
 2434              	 .cfi_endproc
 2435              	.LFE197:
 2437              	 .section .text.XMC_USBD_EnableEventINEP,"ax",%progbits
 2438              	 .align 2
 2439              	 .global XMC_USBD_EnableEventINEP
 2440              	 .thumb
 2441              	 .thumb_func
 2443              	XMC_USBD_EnableEventINEP:
 2444              	.LFB198:
1050:C:/Files/Projects/Git/XMCLib/src\xmc_usbd.c **** 	diepint_data_t diepint;
 2445              	 .loc 1 1050 0
 2446              	 .cfi_startproc
 2447              	 
 2448              	 
 2449              	 
 2450              	.LVL250:
1053:C:/Files/Projects/Git/XMCLib/src\xmc_usbd.c **** }
 2451              	 .loc 1 1053 0
 2452 0000 034B     	 ldr r3,.L219
 2453 0002 D3F8A421 	 ldr r2,[r3,#420]
 2454 0006 1369     	 ldr r3,[r2,#16]
 2455 0008 1843     	 orrs r0,r0,r3
 2456              	.LVL251:
 2457 000a 1061     	 str r0,[r2,#16]
 2458 000c 7047     	 bx lr
 2459              	.L220:
 2460 000e 00BF     	 .align 2
 2461              	.L219:
 2462 0010 00000000 	 .word .LANCHOR0
 2463              	 .cfi_endproc
 2464              	.LFE198:
 2466              	 .section .text.XMC_USBD_IRQHandler,"ax",%progbits
 2467              	 .align 2
 2468              	 .global XMC_USBD_IRQHandler
 2469              	 .thumb
 2470              	 .thumb_func
 2472              	XMC_USBD_IRQHandler:
 2473              	.LFB190:
 867:C:/Files/Projects/Git/XMCLib/src\xmc_usbd.c ****   gintmsk_data_t gintmsk;
 2474              	 .loc 1 867 0
 2475              	 .cfi_startproc
 2476              	 
 2477              	 
 2478              	.LVL252:
 2479 0000 2DE9F04F 	 push {r4,r5,r6,r7,r8,r9,r10,fp,lr}
 2480              	.LCFI24:
 2481              	 .cfi_def_cfa_offset 36
 2482              	 .cfi_offset 4,-36
 2483              	 .cfi_offset 5,-32
 2484              	 .cfi_offset 6,-28
 2485              	 .cfi_offset 7,-24
 2486              	 .cfi_offset 8,-20
 2487              	 .cfi_offset 9,-16
 2488              	 .cfi_offset 10,-12
 2489              	 .cfi_offset 11,-8
 2490              	 .cfi_offset 14,-4
 2491 0004 85B0     	 sub sp,sp,#20
 2492              	.LCFI25:
 2493              	 .cfi_def_cfa_offset 56
 2494 0006 0746     	 mov r7,r0
 871:C:/Files/Projects/Git/XMCLib/src\xmc_usbd.c ****   data.d32 = xmc_device.global_register->gintsts & gintmsk.d32;
 2495              	 .loc 1 871 0
 2496 0008 974B     	 ldr r3,.L268
 2497 000a D3F8A031 	 ldr r3,[r3,#416]
 2498 000e 9C69     	 ldr r4,[r3,#24]
 2499              	.LVL253:
 872:C:/Files/Projects/Git/XMCLib/src\xmc_usbd.c **** 	
 2500              	 .loc 1 872 0
 2501 0010 5B69     	 ldr r3,[r3,#20]
 2502 0012 03EA0409 	 and r9,r3,r4
 2503              	.LVL254:
 874:C:/Files/Projects/Git/XMCLib/src\xmc_usbd.c ****   {
 2504              	 .loc 1 874 0
 2505 0016 5FFA89F5 	 uxtb r5,r9
 2506 001a 15F0080F 	 tst r5,#8
 2507 001e 07D0     	 beq .L222
 876:C:/Files/Projects/Git/XMCLib/src\xmc_usbd.c ****     XMC_USBD_ClearEvent(XMC_USBD_EVENT_SOF);
 2508              	 .loc 1 876 0
 2509 0020 914B     	 ldr r3,.L268
 2510 0022 D3F80032 	 ldr r3,[r3,#512]
 2511 0026 0920     	 movs r0,#9
 2512              	.LVL255:
 2513 0028 9847     	 blx r3
 2514              	.LVL256:
 877:C:/Files/Projects/Git/XMCLib/src\xmc_usbd.c ****   }
 2515              	 .loc 1 877 0
 2516 002a 0920     	 movs r0,#9
 2517 002c FFF7FEFF 	 bl XMC_USBD_ClearEvent
 2518              	.LVL257:
 2519              	.L222:
 879:C:/Files/Projects/Git/XMCLib/src\xmc_usbd.c ****   {
 2520              	 .loc 1 879 0
 2521 0030 7B7B     	 ldrb r3,[r7,#13]
 2522 0032 012B     	 cmp r3,#1
 2523 0034 25D1     	 bne .L223
 881:C:/Files/Projects/Git/XMCLib/src\xmc_usbd.c ****     {
 2524              	 .loc 1 881 0
 2525 0036 15F0100F 	 tst r5,#16
 2526 003a 22D0     	 beq .L223
 884:C:/Files/Projects/Git/XMCLib/src\xmc_usbd.c ****       xmc_device.global_register->gintmsk = gintmsk.d32;
 2527              	 .loc 1 884 0
 2528 003c 6FF30414 	 bfc r4,#4,#1
 885:C:/Files/Projects/Git/XMCLib/src\xmc_usbd.c ****       XMC_USBD_lHandleRxFLvl(); /* handle the interrupt */
 2529              	 .loc 1 885 0
 2530 0040 894B     	 ldr r3,.L268
 2531 0042 D3F8A021 	 ldr r2,[r3,#416]
 2532 0046 9461     	 str r4,[r2,#24]
 2533              	.LBB42:
 2534              	.LBB43:
 838:C:/Files/Projects/Git/XMCLib/src\xmc_usbd.c **** 
 2535              	 .loc 1 838 0
 2536 0048 D3F8A031 	 ldr r3,[r3,#416]
 2537 004c 196A     	 ldr r1,[r3,#32]
 2538              	.LVL258:
 840:C:/Files/Projects/Git/XMCLib/src\xmc_usbd.c **** 	{
 2539              	 .loc 1 840 0
 2540 004e C1F34343 	 ubfx r3,r1,#17,#4
 2541 0052 022B     	 cmp r3,#2
 2542 0054 02D0     	 beq .L225
 2543 0056 062B     	 cmp r3,#6
 2544 0058 07D0     	 beq .L226
 2545 005a 0CE0     	 b .L224
 2546              	.L225:
 847:C:/Files/Projects/Git/XMCLib/src\xmc_usbd.c ****       break;
 2547              	 .loc 1 847 0
 2548 005c 01F00F00 	 and r0,r1,#15
 2549 0060 C1F30A11 	 ubfx r1,r1,#4,#11
 2550              	.LVL259:
 2551 0064 FFF7FEFF 	 bl XMC_USBD_lReadFifo
 2552              	.LVL260:
 2553 0068 05E0     	 b .L224
 2554              	.LVL261:
 2555              	.L226:
 850:C:/Files/Projects/Git/XMCLib/src\xmc_usbd.c ****       break;
 2556              	 .loc 1 850 0
 2557 006a 01F00F00 	 and r0,r1,#15
 2558 006e C1F30A11 	 ubfx r1,r1,#4,#11
 2559              	.LVL262:
 2560 0072 FFF7FEFF 	 bl XMC_USBD_lReadFifo
 2561              	.LVL263:
 2562              	.L224:
 2563              	.LBE43:
 2564              	.LBE42:
 887:C:/Files/Projects/Git/XMCLib/src\xmc_usbd.c ****       xmc_device.global_register->gintmsk = gintmsk.d32;
 2565              	 .loc 1 887 0
 2566 0076 44F01004 	 orr r4,r4,#16
 2567              	.LVL264:
 888:C:/Files/Projects/Git/XMCLib/src\xmc_usbd.c ****     }
 2568              	 .loc 1 888 0
 2569 007a 7B4B     	 ldr r3,.L268
 2570 007c D3F8A031 	 ldr r3,[r3,#416]
 2571              	.LVL265:
 2572 0080 9C61     	 str r4,[r3,#24]
 2573              	.L223:
 891:C:/Files/Projects/Git/XMCLib/src\xmc_usbd.c ****   {
 2574              	 .loc 1 891 0
 2575 0082 C9F30724 	 ubfx r4,r9,#8,#8
 2576              	.LVL266:
 2577 0086 14F0040F 	 tst r4,#4
 2578 008a 02D0     	 beq .L227
 893:C:/Files/Projects/Git/XMCLib/src\xmc_usbd.c ****   }
 2579              	 .loc 1 893 0
 2580 008c 0A20     	 movs r0,#10
 2581 008e FFF7FEFF 	 bl XMC_USBD_ClearEvent
 2582              	.LVL267:
 2583              	.L227:
 895:C:/Files/Projects/Git/XMCLib/src\xmc_usbd.c ****   {
 2584              	 .loc 1 895 0
 2585 0092 14F0080F 	 tst r4,#8
 2586 0096 07D0     	 beq .L228
 897:C:/Files/Projects/Git/XMCLib/src\xmc_usbd.c ****     XMC_USBD_ClearEvent(XMC_USBD_EVENT_SUSPEND);
 2587              	 .loc 1 897 0
 2588 0098 734B     	 ldr r3,.L268
 2589 009a D3F80032 	 ldr r3,[r3,#512]
 2590 009e 0620     	 movs r0,#6
 2591 00a0 9847     	 blx r3
 2592              	.LVL268:
 898:C:/Files/Projects/Git/XMCLib/src\xmc_usbd.c ****   }
 2593              	 .loc 1 898 0
 2594 00a2 0620     	 movs r0,#6
 2595 00a4 FFF7FEFF 	 bl XMC_USBD_ClearEvent
 2596              	.LVL269:
 2597              	.L228:
 900:C:/Files/Projects/Git/XMCLib/src\xmc_usbd.c ****   {
 2598              	 .loc 1 900 0
 2599 00a8 4FEA1965 	 lsr r5,r9,#24
 2600 00ac 15F0800F 	 tst r5,#128
 2601 00b0 07D0     	 beq .L229
 902:C:/Files/Projects/Git/XMCLib/src\xmc_usbd.c ****     XMC_USBD_ClearEvent(XMC_USBD_EVENT_REMOTE_WAKEUP);
 2602              	 .loc 1 902 0
 2603 00b2 6D4B     	 ldr r3,.L268
 2604 00b4 D3F80032 	 ldr r3,[r3,#512]
 2605 00b8 0820     	 movs r0,#8
 2606 00ba 9847     	 blx r3
 2607              	.LVL270:
 903:C:/Files/Projects/Git/XMCLib/src\xmc_usbd.c ****   }
 2608              	 .loc 1 903 0
 2609 00bc 0820     	 movs r0,#8
 2610 00be FFF7FEFF 	 bl XMC_USBD_ClearEvent
 2611              	.LVL271:
 2612              	.L229:
 905:C:/Files/Projects/Git/XMCLib/src\xmc_usbd.c ****   {
 2613              	 .loc 1 905 0
 2614 00c2 15F0400F 	 tst r5,#64
 2615 00c6 0DD0     	 beq .L230
 907:C:/Files/Projects/Git/XMCLib/src\xmc_usbd.c ****     xmc_device.DeviceEvent_cb(XMC_USBD_EVENT_POWER_ON);
 2616              	 .loc 1 907 0
 2617 00c8 674B     	 ldr r3,.L268
 2618 00ca 93F8FE21 	 ldrb r2,[r3,#510]
 2619 00ce 42F00402 	 orr r2,r2,#4
 2620 00d2 83F8FE21 	 strb r2,[r3,#510]
 908:C:/Files/Projects/Git/XMCLib/src\xmc_usbd.c ****     XMC_USBD_ClearEvent(XMC_USBD_EVENT_POWER_ON);
 2621              	 .loc 1 908 0
 2622 00d6 D3F80032 	 ldr r3,[r3,#512]
 2623 00da 0020     	 movs r0,#0
 2624 00dc 9847     	 blx r3
 2625              	.LVL272:
 909:C:/Files/Projects/Git/XMCLib/src\xmc_usbd.c ****   }
 2626              	 .loc 1 909 0
 2627 00de 0020     	 movs r0,#0
 2628 00e0 FFF7FEFF 	 bl XMC_USBD_ClearEvent
 2629              	.LVL273:
 2630              	.L230:
 911:C:/Files/Projects/Git/XMCLib/src\xmc_usbd.c ****   {
 2631              	 .loc 1 911 0
 2632 00e4 14F0100F 	 tst r4,#16
 2633 00e8 64D0     	 beq .L231
 2634              	.LVL274:
 2635              	.LBB44:
 2636              	.LBB45:
 530:C:/Files/Projects/Git/XMCLib/src\xmc_usbd.c ****   dctl.b.rmtwkupsig = 1U;
 2637              	 .loc 1 530 0
 2638 00ea 5F48     	 ldr r0,.L268
 2639 00ec D0F8A421 	 ldr r2,[r0,#420]
 2640 00f0 5368     	 ldr r3,[r2,#4]
 531:C:/Files/Projects/Git/XMCLib/src\xmc_usbd.c ****   xmc_device.device_register->dctl = dctl.d32;
 2641              	 .loc 1 531 0
 2642 00f2 43F00103 	 orr r3,r3,#1
 2643              	.LVL275:
 532:C:/Files/Projects/Git/XMCLib/src\xmc_usbd.c **** 
 2644              	 .loc 1 532 0
 2645 00f6 5360     	 str r3,[r2,#4]
 2646              	.LVL276:
 2647 00f8 00F5E072 	 add r2,r0,#448
 2648 00fc 00F5EE70 	 add r0,r0,#476
 2649              	.LVL277:
 2650              	.L232:
 537:C:/Files/Projects/Git/XMCLib/src\xmc_usbd.c **** 		epctl.b.snak = 1U;
 2651              	 .loc 1 537 0
 2652 0100 52F8041F 	 ldr r1,[r2,#4]!
 2653              	.LVL278:
 2654 0104 0B68     	 ldr r3,[r1]
 2655              	.LVL279:
 538:C:/Files/Projects/Git/XMCLib/src\xmc_usbd.c **** 		epctl.b.stall = 0U;
 2656              	 .loc 1 538 0
 2657 0106 43F00063 	 orr r3,r3,#134217728
 539:C:/Files/Projects/Git/XMCLib/src\xmc_usbd.c **** 		xmc_device.endpoint_out_register[i]->doepctl = epctl.d32;
 2658              	 .loc 1 539 0
 2659 010a 6FF35553 	 bfc r3,#21,#1
 2660              	.LVL280:
 540:C:/Files/Projects/Git/XMCLib/src\xmc_usbd.c ****   }
 2661              	 .loc 1 540 0
 2662 010e 0B60     	 str r3,[r1]
 535:C:/Files/Projects/Git/XMCLib/src\xmc_usbd.c ****   {
 2663              	 .loc 1 535 0
 2664 0110 8242     	 cmp r2,r0
 2665 0112 F5D1     	 bne .L232
 545:C:/Files/Projects/Git/XMCLib/src\xmc_usbd.c ****   /* Calculate the size of the tx fifo for ep 0 */  
 2666              	 .loc 1 545 0
 2667 0114 544A     	 ldr r2,.L268
 2668 0116 D2F8A031 	 ldr r3,[r2,#416]
 2669              	.LVL281:
 2670 011a 4021     	 movs r1,#64
 2671 011c 5962     	 str r1,[r3,#36]
 547:C:/Files/Projects/Git/XMCLib/src\xmc_usbd.c ****   gnptxfsiz.b.depth = 16U;
 2672              	 .loc 1 547 0
 2673 011e 0023     	 movs r3,#0
 2674              	.LVL282:
 548:C:/Files/Projects/Git/XMCLib/src\xmc_usbd.c ****   gnptxfsiz.b.startaddr = 64U;
 2675              	 .loc 1 548 0
 2676 0120 C0F21003 	 movt r3,16
 2677              	.LVL283:
 549:C:/Files/Projects/Git/XMCLib/src\xmc_usbd.c ****   xmc_device.global_register->gnptxfsiz = gnptxfsiz.d32;
 2678              	 .loc 1 549 0
 2679 0124 61F30F03 	 bfi r3,r1,#0,#16
 550:C:/Files/Projects/Git/XMCLib/src\xmc_usbd.c ****   /* calculate the size for the rest */
 2680              	 .loc 1 550 0
 2681 0128 D2F8A021 	 ldr r2,[r2,#416]
 2682 012c 9362     	 str r3,[r2,#40]
 2683              	.LVL284:
 2684 012e 4FF4A075 	 mov r5,#320
 2685 0132 0021     	 movs r1,#0
 554:C:/Files/Projects/Git/XMCLib/src\xmc_usbd.c ****   }
 2686              	 .loc 1 554 0
 2687 0134 4C4E     	 ldr r6,.L268
 2688              	.LVL285:
 2689              	.L233:
 2690 0136 AA08     	 lsrs r2,r5,#2
 2691 0138 42F48012 	 orr r2,r2,#1048576
 2692 013c 01F14000 	 add r0,r1,#64
 2693 0140 D6F8A031 	 ldr r3,[r6,#416]
 2694              	.LVL286:
 2695 0144 03EB8003 	 add r3,r3,r0,lsl#2
 2696 0148 5A60     	 str r2,[r3,#4]
 2697              	.LVL287:
 2698 014a 0131     	 adds r1,r1,#1
 2699              	.LVL288:
 2700 014c 4035     	 adds r5,r5,#64
 552:C:/Files/Projects/Git/XMCLib/src\xmc_usbd.c ****   {
 2701              	 .loc 1 552 0
 2702 014e 0629     	 cmp r1,#6
 2703 0150 F1D1     	 bne .L233
 558:C:/Files/Projects/Git/XMCLib/src\xmc_usbd.c ****   XMC_USBD_lFlushTXFifo(0x0U);
 2704              	 .loc 1 558 0
 2705 0152 1020     	 movs r0,#16
 2706 0154 FFF7FEFF 	 bl XMC_USBD_lFlushTXFifo
 2707              	.LVL289:
 559:C:/Files/Projects/Git/XMCLib/src\xmc_usbd.c ****   XMC_USBD_lFlushRXFifo();
 2708              	 .loc 1 559 0
 2709 0158 0020     	 movs r0,#0
 2710 015a FFF7FEFF 	 bl XMC_USBD_lFlushTXFifo
 2711              	.LVL290:
